 addon

 Timestamp is 5ac6f217 (Fri Apr  6 11:05:43 2018)

 Preferred load address is 0000000180000000

 Start         Length     Name                   Class
 0001:00000000 00042640H .text$mn                CODE
 0001:00042640 00000020H .text$mn$00             CODE
 0001:00042660 000003d0H .text$x                 CODE
 0002:00000000 00000288H .idata$5                DATA
 0002:00000288 00000010H .00cfg                  DATA
 0002:00000298 00000008H .CRT$XCA                DATA
 0002:000002a0 00000008H .CRT$XCU                DATA
 0002:000002a8 00000008H .CRT$XCZ                DATA
 0002:000002b0 00000008H .CRT$XIA                DATA
 0002:000002b8 00000020H .CRT$XIC                DATA
 0002:000002d8 00000008H .CRT$XIZ                DATA
 0002:000002e0 00000008H .CRT$XLA                DATA
 0002:000002e8 00000008H .CRT$XLZ                DATA
 0002:000002f0 00000008H .CRT$XPA                DATA
 0002:000002f8 00000010H .CRT$XPX                DATA
 0002:00000308 00000008H .CRT$XPXA               DATA
 0002:00000310 00000008H .CRT$XPZ                DATA
 0002:00000318 00000008H .CRT$XTA                DATA
 0002:00000320 00000010H .CRT$XTZ                DATA
 0002:00000330 000963e8H .rdata                  DATA
 0002:00096718 00000028H .rdata$T                DATA
 0002:00096740 00000404H .rdata$r                DATA
 0002:00096b44 0000046cH .rdata$zzzdbg           DATA
 0002:00096fb0 00000008H .rtc$IAA                DATA
 0002:00096fb8 00000008H .rtc$IZZ                DATA
 0002:00096fc0 00000008H .rtc$TAA                DATA
 0002:00096fc8 00000008H .rtc$TZZ                DATA
 0002:00096fd0 00004670H .xdata                  DATA
 0002:0009b640 00000244H .xdata$x                DATA
 0002:0009b884 00000020H .didat$2                DATA
 0002:0009b8a4 00000024H .didat$3                DATA
 0002:0009b8c8 000000f0H .didat$4                DATA
 0002:0009b9b8 00000808H .didat$6                DATA
 0002:0009c1c0 000000f0H .didat$7                DATA
 0002:0009c2b0 00000050H .edata                  DATA
 0002:0009c300 00000014H .idata$2                DATA
 0002:0009c314 00000014H .idata$3                DATA
 0002:0009c328 00000288H .idata$4                DATA
 0002:0009c5b0 000005dcH .idata$6                DATA
 0003:00000000 00000970H .data                   DATA
 0003:00000970 00000140H .data$r                 DATA
 0003:00000ab0 000000f0H .didat$5                DATA
 0003:00000ba0 00001258H .bss                    DATA
 0004:00000000 00003b94H .pdata                  DATA
 0005:00000000 00000084H .gfids$x                DATA
 0005:00000084 00000060H .gfids$y                DATA
 0006:00000000 00000004H .tls                    DATA
 0006:00000004 00000004H .tls$                   DATA
 0006:00000008 00000001H .tls$ZZZ                DATA
 0007:00000000 00000060H .rsrc$01                DATA
 0007:00000060 00000180H .rsrc$02                DATA

  Address         Publics by Value              Rva+Base               Lib:Object

 0000:00000000       __guard_iat_count          0000000000000000     <absolute>
 0000:00000000       __dynamic_value_reloc_table 0000000000000000     <absolute>
 0000:00000000       __guard_iat_table          0000000000000000     <absolute>
 0000:00000000       __guard_longjmp_table      0000000000000000     <absolute>
 0000:00000000       __guard_longjmp_count      0000000000000000     <absolute>
 0000:00000000       __guard_fids_count         0000000000000000     <absolute>
 0000:00000000       ___safe_se_handler_table   0000000000000000     <absolute>
 0000:00000000       ___safe_se_handler_count   0000000000000000     <absolute>
 0000:00000000       __guard_fids_table         0000000000000000     <absolute>
 0000:00000100       __guard_flags              0000000000000100     <absolute>
 0000:00000000       __ImageBase                0000000180000000     <linker-defined>
 0001:000000b0       ?New@?$Factory@VFunctionTemplate@v8@@@imp@Nan@@SA?AV?$Local@VFunctionTemplate@v8@@@v8@@P6AXAEBV?$FunctionCallbackInfo@VValue@v8@@@3@@ZV?$Local@VValue@v8@@@5@V?$Local@VSignature@v8@@@5@@Z 00000001800010b0 f i addon.obj
 0001:00000230       ?convert@@YAXAEBV?$FunctionCallbackInfo@VValue@v8@@@Nan@@@Z 0000000180001230 f   addon.obj
 0001:00000480       ?Init@@YAXV?$Local@VObject@v8@@@v8@@@Z 0000000180001480 f   addon.obj
 0001:000005c0       ?_Deallocate@std@@YAXPEAX_K1@Z 00000001800015c0 f i glyph.obj
 0001:00000630       ?ReadCompositeGlyphData@woff2@@YA_NPEAVBuffer@1@PEAVGlyph@1@@Z 0000000180001630 f   glyph.obj
 0001:00000710       ?ReadGlyph@woff2@@YA_NPEBE_KPEAVGlyph@1@@Z 0000000180001710 f   glyph.obj
 0001:000011b0       ?StoreGlyph@woff2@@YA_NAEBVGlyph@1@PEAEPEA_K@Z 00000001800021b0 f   glyph.obj
 0001:00001450       ?resize@?$vector@EV?$allocator@E@std@@@std@@QEAAX_K@Z 0000000180002450 f i glyph.obj
 0001:00001520       ?resize@?$vector@V?$vector@UPoint@Glyph@woff2@@V?$allocator@UPoint@Glyph@woff2@@@std@@@std@@V?$allocator@V?$vector@UPoint@Glyph@woff2@@V?$allocator@UPoint@Glyph@woff2@@@std@@@std@@@2@@std@@QEAAX_K@Z 0000000180002520 f i glyph.obj
 0001:00001620       ?resize@?$vector@UPoint@Glyph@woff2@@V?$allocator@UPoint@Glyph@woff2@@@std@@@std@@QEAAX_K@Z 0000000180002620 f i glyph.obj
 0001:00001710       ?_Tidy@?$vector@EV?$allocator@E@std@@@std@@IEAAXXZ 0000000180002710 f i glyph.obj
 0001:00001780       ?_Reserve@?$vector@EV?$allocator@E@std@@@std@@IEAAX_K@Z 0000000180002780 f i glyph.obj
 0001:00001800       ?_Reserve@?$vector@V?$vector@UPoint@Glyph@woff2@@V?$allocator@UPoint@Glyph@woff2@@@std@@@std@@V?$allocator@V?$vector@UPoint@Glyph@woff2@@V?$allocator@UPoint@Glyph@woff2@@@std@@@std@@@2@@std@@IEAAX_K@Z 0000000180002800 f i glyph.obj
 0001:000018d0       ?_Reserve@?$vector@UPoint@Glyph@woff2@@V?$allocator@UPoint@Glyph@woff2@@@std@@@std@@IEAAX_K@Z 00000001800028d0 f i glyph.obj
 0001:00001990       ?deallocate@?$_Wrap_alloc@V?$allocator@E@std@@@std@@QEAAXPEAE_K@Z 0000000180002990 f i glyph.obj
 0001:000019f0       ?deallocate@?$_Wrap_alloc@V?$allocator@V?$vector@UPoint@Glyph@woff2@@V?$allocator@UPoint@Glyph@woff2@@@std@@@std@@@std@@@std@@QEAAXPEAV?$vector@UPoint@Glyph@woff2@@V?$allocator@UPoint@Glyph@woff2@@@std@@@2@_K@Z 00000001800029f0 f i glyph.obj
 0001:000019f0       ?deallocate@?$_Wrap_alloc@V?$allocator@UFont@woff2@@@std@@@std@@QEAAXPEAUFont@woff2@@_K@Z 00000001800029f0 f i font.obj
 0001:000019f0       ?deallocate@?$_Wrap_alloc@V?$allocator@V?$vector@EV?$allocator@E@std@@@std@@@std@@@std@@QEAAXPEAV?$vector@EV?$allocator@E@std@@@2@_K@Z 00000001800029f0 f i glyph.obj
 0001:00001a60       ?allocate@?$_Wrap_alloc@V?$allocator@V?$vector@EV?$allocator@E@std@@@std@@@std@@@std@@QEAAPEAV?$vector@EV?$allocator@E@std@@@2@_K@Z 0000000180002a60 f i glyph.obj
 0001:00001ad0       ?_Reallocate@?$vector@EV?$allocator@E@std@@@std@@IEAAX_K@Z 0000000180002ad0 f i glyph.obj
 0001:00001bd0       ?deallocate@?$_Wrap_alloc@V?$allocator@UPoint@Glyph@woff2@@@std@@@std@@QEAAXPEAUPoint@Glyph@woff2@@_K@Z 0000000180002bd0 f i glyph.obj
 0001:00001c40       ?_Reallocate@?$vector@V?$vector@UPoint@Glyph@woff2@@V?$allocator@UPoint@Glyph@woff2@@@std@@@std@@V?$allocator@V?$vector@UPoint@Glyph@woff2@@V?$allocator@UPoint@Glyph@woff2@@@std@@@std@@@2@@std@@IEAAX_K@Z 0000000180002c40 f i glyph.obj
 0001:00001db0       ?_Reallocate@?$vector@UPoint@Glyph@woff2@@V?$allocator@UPoint@Glyph@woff2@@@std@@@std@@IEAAX_K@Z 0000000180002db0 f i glyph.obj
 0001:00001ed0       ?allocate@?$_Wrap_alloc@V?$allocator@E@std@@@std@@QEAAPEAE_K@Z 0000000180002ed0 f i glyph.obj
 0001:00001f30       ??$_Destroy_range1@V?$allocator@V?$vector@EV?$allocator@E@std@@@std@@@std@@PEAV?$vector@EV?$allocator@E@std@@@2@@std@@YAXPEAV?$vector@EV?$allocator@E@std@@@0@0AEAU?$_Wrap_alloc@V?$allocator@V?$vector@EV?$allocator@E@std@@@std@@@std@@@0@U?$integral_constant@_N$0A@@0@@Z 0000000180002f30 f i glyph.obj
 0001:00001fd0       ??$_Destroy_range1@V?$allocator@V?$vector@UPoint@Glyph@woff2@@V?$allocator@UPoint@Glyph@woff2@@@std@@@std@@@std@@PEAV?$vector@UPoint@Glyph@woff2@@V?$allocator@UPoint@Glyph@woff2@@@std@@@2@@std@@YAXPEAV?$vector@UPoint@Glyph@woff2@@V?$allocator@UPoint@Glyph@woff2@@@std@@@0@0AEAU?$_Wrap_alloc@V?$allocator@V?$vector@UPoint@Glyph@woff2@@V?$allocator@UPoint@Glyph@woff2@@@std@@@std@@@std@@@0@U?$integral_constant@_N$0A@@0@@Z 0000000180002fd0 f i glyph.obj
 0001:000020c0       ?Log2Floor@woff2@@YAHI@Z   00000001800030c0 f i font.obj
 0001:00002150       ?OutputOrderedTags@Font@woff2@@QEBA?AV?$vector@IV?$allocator@I@std@@@std@@XZ 0000000180003150 f   font.obj
 0001:00002290       ?ReadTrueTypeFont@woff2@@YA_NPEAVBuffer@1@PEBE_KPEAUFont@1@@Z 0000000180003290 f   font.obj
 0001:000026d0       ?ReadCollectionFont@woff2@@YA_NPEAVBuffer@1@PEBE_KPEAUFont@1@PEAV?$map@IPEAUTable@Font@woff2@@U?$less@I@std@@V?$allocator@U?$pair@$$CBIPEAUTable@Font@woff2@@@std@@@5@@std@@@Z 00000001800036d0 f   font.obj
 0001:00002890       ?ReadTrueTypeCollection@woff2@@YA_NPEAVBuffer@1@PEBE_KPEAUFontCollection@1@@Z 0000000180003890 f   font.obj
 0001:00002c70       ?NumGlyphs@woff2@@YAHAEBUFont@1@@Z 0000000180003c70 f   font.obj
 0001:00002da0       ?GetGlyphData@woff2@@YA_NAEBUFont@1@HPEAPEBEPEA_K@Z 0000000180003da0 f   font.obj
 0001:00003010       ?resize@?$vector@UFont@woff2@@V?$allocator@UFont@woff2@@@std@@@std@@QEAAX_K@Z 0000000180004010 f i font.obj
 0001:000030e0       ?erase@?$_Tree@V?$_Tmap_traits@IUTable@Font@woff2@@U?$less@I@std@@V?$allocator@U?$pair@$$CBIUTable@Font@woff2@@@std@@@5@$0A@@std@@@std@@QEAA?AV?$_Tree_iterator@V?$_Tree_val@U?$_Tree_simple_types@U?$pair@$$CBIUTable@Font@woff2@@@std@@@std@@@std@@@2@V?$_Tree_const_iterator@V?$_Tree_val@U?$_Tree_simple_types@U?$pair@$$CBIUTable@Font@woff2@@@std@@@std@@@std@@@2@@Z 00000001800040e0 f i font.obj
 0001:00003570       ??4?$vector@EV?$allocator@E@std@@@std@@QEAAAEAV01@AEBV01@@Z 0000000180004570 f i font.obj
 0001:00003690       ?_Tidy@?$vector@UFont@woff2@@V?$allocator@UFont@woff2@@@std@@@std@@IEAAXXZ 0000000180004690 f i font.obj
 0001:00003740       ?_Reserve@?$vector@UFont@woff2@@V?$allocator@UFont@woff2@@@std@@@std@@IEAAX_K@Z 0000000180004740 f i font.obj
 0001:00003810       ?_Pop_back_n@?$vector@UFont@woff2@@V?$allocator@UFont@woff2@@@std@@@std@@QEAAX_K@Z 0000000180004810 f i font.obj
 0001:000038a0       ?_Reserve@?$vector@IV?$allocator@I@std@@@std@@IEAAX_K@Z 00000001800048a0 f i font.obj
 0001:00003930       ?_Rrotate@?$_Tree@V?$_Tmap_traits@HHU?$less@H@std@@V?$allocator@U?$pair@$$CBHH@std@@@2@$0A@@std@@@std@@IEAAXPEAU?$_Tree_node@U?$pair@$$CBHH@std@@PEAX@2@@Z 0000000180004930 f i block_splitter.obj
 0001:00003930       ?_Rrotate@?$_Tree@V?$_Tmap_traits@IGU?$less@I@std@@V?$allocator@U?$pair@$$CBIG@std@@@2@$0A@@std@@@std@@IEAAXPEAU?$_Tree_node@U?$pair@$$CBIG@std@@PEAX@2@@Z 0000000180004930 f i woff2_enc.obj
 0001:00003930       ?_Rrotate@?$_Tree@V?$_Tmap_traits@IPEAUTable@Font@woff2@@U?$less@I@std@@V?$allocator@U?$pair@$$CBIPEAUTable@Font@woff2@@@std@@@5@$0A@@std@@@std@@IEAAXPEAU?$_Tree_node@U?$pair@$$CBIPEAUTable@Font@woff2@@@std@@PEAX@2@@Z 0000000180004930 f i font.obj
 0001:00003930       ?_Rrotate@?$_Tree@V?$_Tmap_traits@IUTable@Font@woff2@@U?$less@I@std@@V?$allocator@U?$pair@$$CBIUTable@Font@woff2@@@std@@@5@$0A@@std@@@std@@IEAAXPEAU?$_Tree_node@U?$pair@$$CBIUTable@Font@woff2@@@std@@PEAX@2@@Z 0000000180004930 f i font.obj
 0001:00003930       ?_Rrotate@?$_Tree@V?$_Tmap_traits@EEU?$less@E@std@@V?$allocator@U?$pair@$$CBEE@std@@@2@$0A@@std@@@std@@IEAAXPEAU?$_Tree_node@U?$pair@$$CBEE@std@@PEAX@2@@Z 0000000180004930 f i block_splitter.obj
 0001:00003930       ?_Rrotate@?$_Tree@V?$_Tmap_traits@IIU?$less@I@std@@V?$allocator@U?$pair@$$CBII@std@@@2@$0A@@std@@@std@@IEAAXPEAU?$_Tree_node@U?$pair@$$CBII@std@@PEAX@2@@Z 0000000180004930 f i font.obj
 0001:00003930       ?_Rrotate@?$_Tree@V?$_Tset_traits@HU?$less@H@std@@V?$allocator@H@2@$0A@@std@@@std@@IEAAXPEAU?$_Tree_node@HPEAX@2@@Z 0000000180004930 f i block_splitter.obj
 0001:00003990       ?_Lrotate@?$_Tree@V?$_Tmap_traits@IUTable@Font@woff2@@U?$less@I@std@@V?$allocator@U?$pair@$$CBIUTable@Font@woff2@@@std@@@5@$0A@@std@@@std@@IEAAXPEAU?$_Tree_node@U?$pair@$$CBIUTable@Font@woff2@@@std@@PEAX@2@@Z 0000000180004990 f i font.obj
 0001:00003990       ?_Lrotate@?$_Tree@V?$_Tmap_traits@EEU?$less@E@std@@V?$allocator@U?$pair@$$CBEE@std@@@2@$0A@@std@@@std@@IEAAXPEAU?$_Tree_node@U?$pair@$$CBEE@std@@PEAX@2@@Z 0000000180004990 f i block_splitter.obj
 0001:00003990       ?_Lrotate@?$_Tree@V?$_Tmap_traits@IPEAUTable@Font@woff2@@U?$less@I@std@@V?$allocator@U?$pair@$$CBIPEAUTable@Font@woff2@@@std@@@5@$0A@@std@@@std@@IEAAXPEAU?$_Tree_node@U?$pair@$$CBIPEAUTable@Font@woff2@@@std@@PEAX@2@@Z 0000000180004990 f i font.obj
 0001:00003990       ?_Lrotate@?$_Tree@V?$_Tmap_traits@HHU?$less@H@std@@V?$allocator@U?$pair@$$CBHH@std@@@2@$0A@@std@@@std@@IEAAXPEAU?$_Tree_node@U?$pair@$$CBHH@std@@PEAX@2@@Z 0000000180004990 f i block_splitter.obj
 0001:00003990       ?_Lrotate@?$_Tree@V?$_Tset_traits@HU?$less@H@std@@V?$allocator@H@2@$0A@@std@@@std@@IEAAXPEAU?$_Tree_node@HPEAX@2@@Z 0000000180004990 f i block_splitter.obj
 0001:00003990       ?_Lrotate@?$_Tree@V?$_Tmap_traits@IIU?$less@I@std@@V?$allocator@U?$pair@$$CBII@std@@@2@$0A@@std@@@std@@IEAAXPEAU?$_Tree_node@U?$pair@$$CBII@std@@PEAX@2@@Z 0000000180004990 f i font.obj
 0001:00003990       ?_Lrotate@?$_Tree@V?$_Tmap_traits@IGU?$less@I@std@@V?$allocator@U?$pair@$$CBIG@std@@@2@$0A@@std@@@std@@IEAAXPEAU?$_Tree_node@U?$pair@$$CBIG@std@@PEAX@2@@Z 0000000180004990 f i woff2_enc.obj
 0001:000039f0       ?_Buy@?$vector@EV?$allocator@E@std@@@std@@IEAA_N_K@Z 00000001800049f0 f i font.obj
 0001:00003a70       ?erase@?$_Tree@V?$_Tmap_traits@EEU?$less@E@std@@V?$allocator@U?$pair@$$CBEE@std@@@2@$0A@@std@@@std@@QEAA?AV?$_Tree_iterator@V?$_Tree_val@U?$_Tree_simple_types@U?$pair@$$CBEE@std@@@std@@@std@@@2@V?$_Tree_const_iterator@V?$_Tree_val@U?$_Tree_simple_types@U?$pair@$$CBEE@std@@@std@@@std@@@2@0@Z 0000000180004a70 f i block_splitter.obj
 0001:00003a70       ?erase@?$_Tree@V?$_Tmap_traits@IGU?$less@I@std@@V?$allocator@U?$pair@$$CBIG@std@@@2@$0A@@std@@@std@@QEAA?AV?$_Tree_iterator@V?$_Tree_val@U?$_Tree_simple_types@U?$pair@$$CBIG@std@@@std@@@std@@@2@V?$_Tree_const_iterator@V?$_Tree_val@U?$_Tree_simple_types@U?$pair@$$CBIG@std@@@std@@@std@@@2@0@Z 0000000180004a70 f i woff2_enc.obj
 0001:00003a70       ?erase@?$_Tree@V?$_Tmap_traits@IIU?$less@I@std@@V?$allocator@U?$pair@$$CBII@std@@@2@$0A@@std@@@std@@QEAA?AV?$_Tree_iterator@V?$_Tree_val@U?$_Tree_simple_types@U?$pair@$$CBII@std@@@std@@@std@@@2@V?$_Tree_const_iterator@V?$_Tree_val@U?$_Tree_simple_types@U?$pair@$$CBII@std@@@std@@@std@@@2@0@Z 0000000180004a70 f i font.obj
 0001:00003a70       ?erase@?$_Tree@V?$_Tmap_traits@IPEAUTable@Font@woff2@@U?$less@I@std@@V?$allocator@U?$pair@$$CBIPEAUTable@Font@woff2@@@std@@@5@$0A@@std@@@std@@QEAA?AV?$_Tree_iterator@V?$_Tree_val@U?$_Tree_simple_types@U?$pair@$$CBIPEAUTable@Font@woff2@@@std@@@std@@@std@@@2@V?$_Tree_const_iterator@V?$_Tree_val@U?$_Tree_simple_types@U?$pair@$$CBIPEAUTable@Font@woff2@@@std@@@std@@@std@@@2@0@Z 0000000180004a70 f i font.obj
 0001:00003a70       ?erase@?$_Tree@V?$_Tset_traits@HU?$less@H@std@@V?$allocator@H@2@$0A@@std@@@std@@QEAA?AV?$_Tree_const_iterator@V?$_Tree_val@U?$_Tree_simple_types@H@std@@@std@@@2@V32@0@Z 0000000180004a70 f i block_splitter.obj
 0001:00003a70       ?erase@?$_Tree@V?$_Tmap_traits@HHU?$less@H@std@@V?$allocator@U?$pair@$$CBHH@std@@@2@$0A@@std@@@std@@QEAA?AV?$_Tree_iterator@V?$_Tree_val@U?$_Tree_simple_types@U?$pair@$$CBHH@std@@@std@@@std@@@2@V?$_Tree_const_iterator@V?$_Tree_val@U?$_Tree_simple_types@U?$pair@$$CBHH@std@@@std@@@std@@@2@0@Z 0000000180004a70 f i block_splitter.obj
 0001:00003ba0       ?deallocate@?$_Wrap_alloc@V?$allocator@I@std@@@std@@QEAAXPEAI_K@Z 0000000180004ba0 f i font.obj
 0001:00003ba0       ?deallocate@?$_Wrap_alloc@V?$allocator@H@std@@@std@@QEAAXPEAH_K@Z 0000000180004ba0 f i block_splitter.obj
 0001:00003c10       ?_Reallocate@?$vector@UFont@woff2@@V?$allocator@UFont@woff2@@@std@@@std@@IEAAX_K@Z 0000000180004c10 f i font.obj
 0001:00003da0       ?_Reallocate@?$vector@IV?$allocator@I@std@@@std@@IEAAX_K@Z 0000000180004da0 f i font.obj
 0001:00003da0       ?_Reallocate@?$vector@HV?$allocator@H@std@@@std@@IEAAX_K@Z 0000000180004da0 f i block_splitter.obj
 0001:00003e80       ?erase@?$_Tree@V?$_Tmap_traits@IGU?$less@I@std@@V?$allocator@U?$pair@$$CBIG@std@@@2@$0A@@std@@@std@@QEAA?AV?$_Tree_iterator@V?$_Tree_val@U?$_Tree_simple_types@U?$pair@$$CBIG@std@@@std@@@std@@@2@V?$_Tree_const_iterator@V?$_Tree_val@U?$_Tree_simple_types@U?$pair@$$CBIG@std@@@std@@@std@@@2@@Z 0000000180004e80 f i woff2_enc.obj
 0001:00003e80       ?erase@?$_Tree@V?$_Tmap_traits@EEU?$less@E@std@@V?$allocator@U?$pair@$$CBEE@std@@@2@$0A@@std@@@std@@QEAA?AV?$_Tree_iterator@V?$_Tree_val@U?$_Tree_simple_types@U?$pair@$$CBEE@std@@@std@@@std@@@2@V?$_Tree_const_iterator@V?$_Tree_val@U?$_Tree_simple_types@U?$pair@$$CBEE@std@@@std@@@std@@@2@@Z 0000000180004e80 f i block_splitter.obj
 0001:00003e80       ?erase@?$_Tree@V?$_Tmap_traits@HHU?$less@H@std@@V?$allocator@U?$pair@$$CBHH@std@@@2@$0A@@std@@@std@@QEAA?AV?$_Tree_iterator@V?$_Tree_val@U?$_Tree_simple_types@U?$pair@$$CBHH@std@@@std@@@std@@@2@V?$_Tree_const_iterator@V?$_Tree_val@U?$_Tree_simple_types@U?$pair@$$CBHH@std@@@std@@@std@@@2@@Z 0000000180004e80 f i block_splitter.obj
 0001:00003e80       ?erase@?$_Tree@V?$_Tmap_traits@IIU?$less@I@std@@V?$allocator@U?$pair@$$CBII@std@@@2@$0A@@std@@@std@@QEAA?AV?$_Tree_iterator@V?$_Tree_val@U?$_Tree_simple_types@U?$pair@$$CBII@std@@@std@@@std@@@2@V?$_Tree_const_iterator@V?$_Tree_val@U?$_Tree_simple_types@U?$pair@$$CBII@std@@@std@@@std@@@2@@Z 0000000180004e80 f i font.obj
 0001:00003e80       ?erase@?$_Tree@V?$_Tset_traits@HU?$less@H@std@@V?$allocator@H@2@$0A@@std@@@std@@QEAA?AV?$_Tree_const_iterator@V?$_Tree_val@U?$_Tree_simple_types@H@std@@@std@@@2@V32@@Z 0000000180004e80 f i block_splitter.obj
 0001:00003e80       ?erase@?$_Tree@V?$_Tmap_traits@IPEAUTable@Font@woff2@@U?$less@I@std@@V?$allocator@U?$pair@$$CBIPEAUTable@Font@woff2@@@std@@@5@$0A@@std@@@std@@QEAA?AV?$_Tree_iterator@V?$_Tree_val@U?$_Tree_simple_types@U?$pair@$$CBIPEAUTable@Font@woff2@@@std@@@std@@@std@@@2@V?$_Tree_const_iterator@V?$_Tree_val@U?$_Tree_simple_types@U?$pair@$$CBIPEAUTable@Font@woff2@@@std@@@std@@@std@@@2@@Z 0000000180004e80 f i font.obj
 0001:000042c0       ?_Erase@?$_Tree@V?$_Tmap_traits@IPEAUTable@Font@woff2@@U?$less@I@std@@V?$allocator@U?$pair@$$CBIPEAUTable@Font@woff2@@@std@@@5@$0A@@std@@@std@@IEAAXPEAU?$_Tree_node@U?$pair@$$CBIPEAUTable@Font@woff2@@@std@@PEAX@2@@Z 00000001800052c0 f i font.obj
 0001:000042c0       ?_Erase@?$_Tree@V?$_Tmap_traits@IGU?$less@I@std@@V?$allocator@U?$pair@$$CBIG@std@@@2@$0A@@std@@@std@@IEAAXPEAU?$_Tree_node@U?$pair@$$CBIG@std@@PEAX@2@@Z 00000001800052c0 f i woff2_enc.obj
 0001:000042c0       ?_Erase@?$_Tree@V?$_Tmap_traits@HHU?$less@H@std@@V?$allocator@U?$pair@$$CBHH@std@@@2@$0A@@std@@@std@@IEAAXPEAU?$_Tree_node@U?$pair@$$CBHH@std@@PEAX@2@@Z 00000001800052c0 f i block_splitter.obj
 0001:000042c0       ?_Erase@?$_Tree@V?$_Tmap_traits@EEU?$less@E@std@@V?$allocator@U?$pair@$$CBEE@std@@@2@$0A@@std@@@std@@IEAAXPEAU?$_Tree_node@U?$pair@$$CBEE@std@@PEAX@2@@Z 00000001800052c0 f i block_splitter.obj
 0001:000042c0       ?_Erase@?$_Tree@V?$_Tset_traits@HU?$less@H@std@@V?$allocator@H@2@$0A@@std@@@std@@IEAAXPEAU?$_Tree_node@HPEAX@2@@Z 00000001800052c0 f i block_splitter.obj
 0001:000042c0       ?_Erase@?$_Tree@V?$_Tmap_traits@IIU?$less@I@std@@V?$allocator@U?$pair@$$CBII@std@@@2@$0A@@std@@@std@@IEAAXPEAU?$_Tree_node@U?$pair@$$CBII@std@@PEAX@2@@Z 00000001800052c0 f i font.obj
 0001:00004310       ??$_Uninitialized_default_fill_n1@PEAUFont@woff2@@_KV?$allocator@UFont@woff2@@@std@@@std@@YAXPEAUFont@woff2@@_KAEAU?$_Wrap_alloc@V?$allocator@UFont@woff2@@@std@@@0@U?$integral_constant@_N$0A@@0@@Z 0000000180005310 f i font.obj
 0001:000043a0       ??$_Try_emplace@AEBI$$V@?$map@IPEAUTable@Font@woff2@@U?$less@I@std@@V?$allocator@U?$pair@$$CBIPEAUTable@Font@woff2@@@std@@@5@@std@@QEAA?AU?$pair@V?$_Tree_iterator@V?$_Tree_val@U?$_Tree_simple_types@U?$pair@$$CBIPEAUTable@Font@woff2@@@std@@@std@@@std@@@std@@_N@1@AEBI@Z 00000001800053a0 f i font.obj
 0001:00004490       ??$_Try_emplace@I$$V@?$map@IUTable@Font@woff2@@U?$less@I@std@@V?$allocator@U?$pair@$$CBIUTable@Font@woff2@@@std@@@5@@std@@QEAA?AU?$pair@V?$_Tree_iterator@V?$_Tree_val@U?$_Tree_simple_types@U?$pair@$$CBIUTable@Font@woff2@@@std@@@std@@@std@@@std@@_N@1@$$QEAI@Z 0000000180005490 f i transform.obj
 0001:00004490       ??$_Try_emplace@AEBI$$V@?$map@IUTable@Font@woff2@@U?$less@I@std@@V?$allocator@U?$pair@$$CBIUTable@Font@woff2@@@std@@@5@@std@@QEAA?AU?$pair@V?$_Tree_iterator@V?$_Tree_val@U?$_Tree_simple_types@U?$pair@$$CBIUTable@Font@woff2@@@std@@@std@@@std@@@std@@_N@1@AEBI@Z 0000000180005490 f i font.obj
 0001:000045a0       ??$_Sort_unchecked1@PEAI_JU?$less@X@std@@@std@@YAXPEAI0_JAEAU?$less@X@0@@Z 00000001800055a0 f i font.obj
 0001:000046b0       ??$_Insert_hint@AEAU?$pair@$$CBII@std@@PEAU?$_Tree_node@U?$pair@$$CBII@std@@PEAX@2@@?$_Tree@V?$_Tmap_traits@IIU?$less@I@std@@V?$allocator@U?$pair@$$CBII@std@@@2@$0A@@std@@@std@@IEAA?AV?$_Tree_iterator@V?$_Tree_val@U?$_Tree_simple_types@U?$pair@$$CBII@std@@@std@@@std@@@1@V?$_Tree_const_iterator@V?$_Tree_val@U?$_Tree_simple_types@U?$pair@$$CBII@std@@@std@@@std@@@1@AEAU?$pair@$$CBII@1@PEAU?$_Tree_node@U?$pair@$$CBII@std@@PEAX@1@@Z 00000001800056b0 f i font.obj
 0001:000046b0       ??$_Insert_hint@AEAU?$pair@$$CBIG@std@@PEAU?$_Tree_node@U?$pair@$$CBIG@std@@PEAX@2@@?$_Tree@V?$_Tmap_traits@IGU?$less@I@std@@V?$allocator@U?$pair@$$CBIG@std@@@2@$0A@@std@@@std@@IEAA?AV?$_Tree_iterator@V?$_Tree_val@U?$_Tree_simple_types@U?$pair@$$CBIG@std@@@std@@@std@@@1@V?$_Tree_const_iterator@V?$_Tree_val@U?$_Tree_simple_types@U?$pair@$$CBIG@std@@@std@@@std@@@1@AEAU?$pair@$$CBIG@1@PEAU?$_Tree_node@U?$pair@$$CBIG@std@@PEAX@1@@Z 00000001800056b0 f i woff2_enc.obj
 0001:00004900       ??$_Insert_hint@AEAU?$pair@$$CBIPEAUTable@Font@woff2@@@std@@PEAU?$_Tree_node@U?$pair@$$CBIPEAUTable@Font@woff2@@@std@@PEAX@2@@?$_Tree@V?$_Tmap_traits@IPEAUTable@Font@woff2@@U?$less@I@std@@V?$allocator@U?$pair@$$CBIPEAUTable@Font@woff2@@@std@@@5@$0A@@std@@@std@@IEAA?AV?$_Tree_iterator@V?$_Tree_val@U?$_Tree_simple_types@U?$pair@$$CBIPEAUTable@Font@woff2@@@std@@@std@@@std@@@1@V?$_Tree_const_iterator@V?$_Tree_val@U?$_Tree_simple_types@U?$pair@$$CBIPEAUTable@Font@woff2@@@std@@@std@@@std@@@1@AEAU?$pair@$$CBIPEAUTable@Font@woff2@@@1@PEAU?$_Tree_node@U?$pair@$$CBIPEAUTable@Font@woff2@@@std@@PEAX@1@@Z 0000000180005900 f i font.obj
 0001:00004b50       ??$_Insert_hint@AEAU?$pair@$$CBIUTable@Font@woff2@@@std@@PEAU?$_Tree_node@U?$pair@$$CBIUTable@Font@woff2@@@std@@PEAX@2@@?$_Tree@V?$_Tmap_traits@IUTable@Font@woff2@@U?$less@I@std@@V?$allocator@U?$pair@$$CBIUTable@Font@woff2@@@std@@@5@$0A@@std@@@std@@IEAA?AV?$_Tree_iterator@V?$_Tree_val@U?$_Tree_simple_types@U?$pair@$$CBIUTable@Font@woff2@@@std@@@std@@@std@@@1@V?$_Tree_const_iterator@V?$_Tree_val@U?$_Tree_simple_types@U?$pair@$$CBIUTable@Font@woff2@@@std@@@std@@@std@@@1@AEAU?$pair@$$CBIUTable@Font@woff2@@@1@PEAU?$_Tree_node@U?$pair@$$CBIUTable@Font@woff2@@@std@@PEAX@1@@Z 0000000180005b50 f i font.obj
 0001:00004da0       ??$_Partition_by_median_guess_unchecked@PEAIU?$less@X@std@@@std@@YA?AU?$pair@PEAIPEAI@0@PEAI0AEAU?$less@X@0@@Z 0000000180005da0 f i font.obj
 0001:00004f40       ??$_Make_heap_unchecked@PEAIU?$less@X@std@@@std@@YAXPEAI0AEAU?$less@X@0@@Z 0000000180005f40 f i font.obj
 0001:00005030       ??$_Sort_heap_unchecked@PEAIU?$less@X@std@@@std@@YAXPEAI0AEAU?$less@X@0@@Z 0000000180006030 f i font.obj
 0001:00005160       ??$_Insertion_sort_unchecked@PEAIU?$less@X@std@@@std@@YAXPEAI0AEAU?$less@X@0@@Z 0000000180006160 f i font.obj
 0001:00005210       ??$_Insert_at@AEAU?$pair@$$CBIG@std@@PEAU?$_Tree_node@U?$pair@$$CBIG@std@@PEAX@2@@?$_Tree@V?$_Tmap_traits@IGU?$less@I@std@@V?$allocator@U?$pair@$$CBIG@std@@@2@$0A@@std@@@std@@IEAA?AV?$_Tree_iterator@V?$_Tree_val@U?$_Tree_simple_types@U?$pair@$$CBIG@std@@@std@@@std@@@1@_NPEAU?$_Tree_node@U?$pair@$$CBIG@std@@PEAX@1@AEAU?$pair@$$CBIG@1@1@Z 0000000180006210 f i woff2_enc.obj
 0001:00005210       ??$_Insert_at@AEAU?$pair@$$CBII@std@@PEAU?$_Tree_node@U?$pair@$$CBII@std@@PEAX@2@@?$_Tree@V?$_Tmap_traits@IIU?$less@I@std@@V?$allocator@U?$pair@$$CBII@std@@@2@$0A@@std@@@std@@IEAA?AV?$_Tree_iterator@V?$_Tree_val@U?$_Tree_simple_types@U?$pair@$$CBII@std@@@std@@@std@@@1@_NPEAU?$_Tree_node@U?$pair@$$CBII@std@@PEAX@1@AEAU?$pair@$$CBII@1@1@Z 0000000180006210 f i font.obj
 0001:00005210       ??$_Insert_at@AEAU?$pair@$$CBHH@std@@PEAU?$_Tree_node@U?$pair@$$CBHH@std@@PEAX@2@@?$_Tree@V?$_Tmap_traits@HHU?$less@H@std@@V?$allocator@U?$pair@$$CBHH@std@@@2@$0A@@std@@@std@@IEAA?AV?$_Tree_iterator@V?$_Tree_val@U?$_Tree_simple_types@U?$pair@$$CBHH@std@@@std@@@std@@@1@_NPEAU?$_Tree_node@U?$pair@$$CBHH@std@@PEAX@1@AEAU?$pair@$$CBHH@1@1@Z 0000000180006210 f i block_splitter.obj
 0001:000054b0       ??$_Insert_nohint@AEAU?$pair@$$CBII@std@@PEAU?$_Tree_node@U?$pair@$$CBII@std@@PEAX@2@@?$_Tree@V?$_Tmap_traits@IIU?$less@I@std@@V?$allocator@U?$pair@$$CBII@std@@@2@$0A@@std@@@std@@IEAA?AU?$pair@V?$_Tree_iterator@V?$_Tree_val@U?$_Tree_simple_types@U?$pair@$$CBII@std@@@std@@@std@@@std@@_N@1@_NAEAU?$pair@$$CBII@1@PEAU?$_Tree_node@U?$pair@$$CBII@std@@PEAX@1@@Z 00000001800064b0 f i font.obj
 0001:000054b0       ??$_Insert_nohint@AEAU?$pair@$$CBIG@std@@PEAU?$_Tree_node@U?$pair@$$CBIG@std@@PEAX@2@@?$_Tree@V?$_Tmap_traits@IGU?$less@I@std@@V?$allocator@U?$pair@$$CBIG@std@@@2@$0A@@std@@@std@@IEAA?AU?$pair@V?$_Tree_iterator@V?$_Tree_val@U?$_Tree_simple_types@U?$pair@$$CBIG@std@@@std@@@std@@@std@@_N@1@_NAEAU?$pair@$$CBIG@1@PEAU?$_Tree_node@U?$pair@$$CBIG@std@@PEAX@1@@Z 00000001800064b0 f i woff2_enc.obj
 0001:000055d0       ??$_Insert_at@AEAU?$pair@$$CBIPEAUTable@Font@woff2@@@std@@PEAU?$_Tree_node@U?$pair@$$CBIPEAUTable@Font@woff2@@@std@@PEAX@2@@?$_Tree@V?$_Tmap_traits@IPEAUTable@Font@woff2@@U?$less@I@std@@V?$allocator@U?$pair@$$CBIPEAUTable@Font@woff2@@@std@@@5@$0A@@std@@@std@@IEAA?AV?$_Tree_iterator@V?$_Tree_val@U?$_Tree_simple_types@U?$pair@$$CBIPEAUTable@Font@woff2@@@std@@@std@@@std@@@1@_NPEAU?$_Tree_node@U?$pair@$$CBIPEAUTable@Font@woff2@@@std@@PEAX@1@AEAU?$pair@$$CBIPEAUTable@Font@woff2@@@1@1@Z 00000001800065d0 f i font.obj
 0001:00005870       ??$_Insert_nohint@AEAU?$pair@$$CBIPEAUTable@Font@woff2@@@std@@PEAU?$_Tree_node@U?$pair@$$CBIPEAUTable@Font@woff2@@@std@@PEAX@2@@?$_Tree@V?$_Tmap_traits@IPEAUTable@Font@woff2@@U?$less@I@std@@V?$allocator@U?$pair@$$CBIPEAUTable@Font@woff2@@@std@@@5@$0A@@std@@@std@@IEAA?AU?$pair@V?$_Tree_iterator@V?$_Tree_val@U?$_Tree_simple_types@U?$pair@$$CBIPEAUTable@Font@woff2@@@std@@@std@@@std@@@std@@_N@1@_NAEAU?$pair@$$CBIPEAUTable@Font@woff2@@@1@PEAU?$_Tree_node@U?$pair@$$CBIPEAUTable@Font@woff2@@@std@@PEAX@1@@Z 0000000180006870 f i font.obj
 0001:00005990       ??$_Insert_at@AEAU?$pair@$$CBIUTable@Font@woff2@@@std@@PEAU?$_Tree_node@U?$pair@$$CBIUTable@Font@woff2@@@std@@PEAX@2@@?$_Tree@V?$_Tmap_traits@IUTable@Font@woff2@@U?$less@I@std@@V?$allocator@U?$pair@$$CBIUTable@Font@woff2@@@std@@@5@$0A@@std@@@std@@IEAA?AV?$_Tree_iterator@V?$_Tree_val@U?$_Tree_simple_types@U?$pair@$$CBIUTable@Font@woff2@@@std@@@std@@@std@@@1@_NPEAU?$_Tree_node@U?$pair@$$CBIUTable@Font@woff2@@@std@@PEAX@1@AEAU?$pair@$$CBIUTable@Font@woff2@@@1@1@Z 0000000180006990 f i font.obj
 0001:00005c40       ??$_Insert_nohint@AEAU?$pair@$$CBIUTable@Font@woff2@@@std@@PEAU?$_Tree_node@U?$pair@$$CBIUTable@Font@woff2@@@std@@PEAX@2@@?$_Tree@V?$_Tmap_traits@IUTable@Font@woff2@@U?$less@I@std@@V?$allocator@U?$pair@$$CBIUTable@Font@woff2@@@std@@@5@$0A@@std@@@std@@IEAA?AU?$pair@V?$_Tree_iterator@V?$_Tree_val@U?$_Tree_simple_types@U?$pair@$$CBIUTable@Font@woff2@@@std@@@std@@@std@@@std@@_N@1@_NAEAU?$pair@$$CBIUTable@Font@woff2@@@1@PEAU?$_Tree_node@U?$pair@$$CBIUTable@Font@woff2@@@std@@PEAX@1@@Z 0000000180006c40 f i font.obj
 0001:00005d70       ?erase@?$_Tree@V?$_Tmap_traits@IUTable@Font@woff2@@U?$less@I@std@@V?$allocator@U?$pair@$$CBIUTable@Font@woff2@@@std@@@5@$0A@@std@@@std@@QEAA?AV?$_Tree_iterator@V?$_Tree_val@U?$_Tree_simple_types@U?$pair@$$CBIUTable@Font@woff2@@@std@@@std@@@std@@@2@V?$_Tree_const_iterator@V?$_Tree_val@U?$_Tree_simple_types@U?$pair@$$CBIUTable@Font@woff2@@@std@@@std@@@std@@@2@0@Z 0000000180006d70 f i font.obj
 0001:00005e70       ?_Erase@?$_Tree@V?$_Tmap_traits@IUTable@Font@woff2@@U?$less@I@std@@V?$allocator@U?$pair@$$CBIUTable@Font@woff2@@@std@@@5@$0A@@std@@@std@@IEAAXPEAU?$_Tree_node@U?$pair@$$CBIUTable@Font@woff2@@@std@@PEAX@2@@Z 0000000180006e70 f i font.obj
 0001:00005f40       ??$_Guess_median_unchecked@PEAIU?$less@X@std@@@std@@YAXPEAI00AEAU?$less@X@0@@Z 0000000180006f40 f i font.obj
 0001:00006090       ??0Font@woff2@@QEAA@$$QEAU01@@Z 0000000180007090 f i font.obj
 0001:00006120       __local_stdio_printf_options 0000000180007120 f i normalize.obj
 0001:00006130       fprintf                    0000000180007130 f i normalize.obj
 0001:00006630       ?NormalizeGlyphs@woff2@@YA_NPEAUFont@1@@Z 0000000180007630 f   normalize.obj
 0001:000068a0       ?NormalizeOffsets@woff2@@YA_NPEAUFont@1@@Z 00000001800078a0 f   normalize.obj
 0001:00006bb0       ?FixChecksums@woff2@@YA_NPEAUFont@1@@Z 0000000180007bb0 f   normalize.obj
 0001:00006df0       ?NormalizeWithoutFixingChecksums@woff2@@YA_NPEAUFont@1@@Z 0000000180007df0 f   normalize.obj
 0001:00006ea0       ?NormalizeFontCollection@woff2@@YA_NPEAUFontCollection@1@@Z 0000000180007ea0 f   normalize.obj
 0001:00008430       ?TransformGlyfAndLocaTables@woff2@@YA_NPEAUFont@1@@Z 0000000180009430 f   transform.obj
 0001:00008cc0       ?Write255UShort@woff2@@YAXPEAV?$vector@EV?$allocator@E@std@@@std@@H@Z 0000000180009cc0 f   variable_length.obj
 0001:00008fd0       ?Store255UShort@woff2@@YAXHPEA_KPEAE@Z 0000000180009fd0 f   variable_length.obj
 0001:000090b0       ?StoreBase128@woff2@@YAX_KPEA_KPEAE@Z 000000018000a0b0 f   variable_length.obj
 0001:000097d0       ?MaxWOFF2CompressedSize@woff2@@YA_KPEBE_K@Z 000000018000a7d0 f   woff2_enc.obj
 0001:00009890       ?ConvertTTFToWOFF2@woff2@@YA_NPEBE_KPEAEPEA_K@Z 000000018000a890 f   woff2_enc.obj
 0001:00009980       ?ConvertTTFToWOFF2@woff2@@YA_NPEBE_KPEAEPEA_KAEBV?$basic_string@DU?$char_traits@D@std@@V?$allocator@D@2@@std@@@Z 000000018000a980 f   woff2_enc.obj
 0001:0000a7d0       ?push_back@?$vector@UTable@woff2@@V?$allocator@UTable@woff2@@@std@@@std@@QEAAXAEBUTable@woff2@@@Z 000000018000b7d0 f i woff2_enc.obj
 0001:0000a8a0       ??1?$basic_string@DU?$char_traits@D@std@@V?$allocator@D@2@@std@@QEAA@XZ 000000018000b8a0 f i woff2_enc.obj
 0001:0000a930       ?_Reserve@?$vector@UTable@woff2@@V?$allocator@UTable@woff2@@@std@@@std@@IEAAX_K@Z 000000018000b930 f i woff2_enc.obj
 0001:0000aa00       ?_Tidy@?$basic_string@DU?$char_traits@D@std@@V?$allocator@D@2@@std@@QEAAX_N_K@Z 000000018000ba00 f i woff2_enc.obj
 0001:0000aab0       ?assign@?$basic_string@DU?$char_traits@D@std@@V?$allocator@D@2@@std@@QEAAAEAV12@PEBD_K@Z 000000018000bab0 f i woff2_enc.obj
 0001:0000abe0       ?assign@?$basic_string@DU?$char_traits@D@std@@V?$allocator@D@2@@std@@QEAAAEAV12@AEBV12@_K1@Z 000000018000bbe0 f i woff2_enc.obj
 0001:0000ad10       ?deallocate@?$_Wrap_alloc@V?$allocator@UTable@woff2@@@std@@@std@@QEAAXPEAUTable@woff2@@_K@Z 000000018000bd10 f i woff2_enc.obj
 0001:0000ad80       ?_Reallocate@?$vector@UTable@woff2@@V?$allocator@UTable@woff2@@@std@@@std@@IEAAX_K@Z 000000018000bd80 f i woff2_enc.obj
 0001:0000aea0       ?erase@?$basic_string@DU?$char_traits@D@std@@V?$allocator@D@2@@std@@QEAAAEAV12@_K0@Z 000000018000bea0 f i woff2_enc.obj
 0001:0000af40       ?_Copy@?$basic_string@DU?$char_traits@D@std@@V?$allocator@D@2@@std@@QEAAX_K0@Z 000000018000bf40 f i woff2_enc.obj
 0001:0000b0c0       ??$?0U?$_Wrap_alloc@V?$allocator@U?$_Tree_node@U?$pair@$$CBIG@std@@PEAX@std@@@std@@@std@@@?$_Tree@V?$_Tmap_traits@IGU?$less@I@std@@V?$allocator@U?$pair@$$CBIG@std@@@2@$0A@@std@@@std@@QEAA@AEBV01@$$QEAU?$_Wrap_alloc@V?$allocator@U?$_Tree_node@U?$pair@$$CBIG@std@@PEAX@std@@@std@@@1@@Z 000000018000c0c0 f i woff2_enc.obj
 0001:0000b1c0       ??$_Try_emplace@AEBI$$V@?$map@IGU?$less@I@std@@V?$allocator@U?$pair@$$CBIG@std@@@2@@std@@QEAA?AU?$pair@V?$_Tree_iterator@V?$_Tree_val@U?$_Tree_simple_types@U?$pair@$$CBIG@std@@@std@@@std@@@std@@_N@1@AEBI@Z 000000018000c1c0 f i woff2_enc.obj
 0001:0000b2b0       ??$_Copy_nodes@U_Copy_tag@?$_Tree@V?$_Tmap_traits@IGU?$less@I@std@@V?$allocator@U?$pair@$$CBIG@std@@@2@$0A@@std@@@std@@@?$_Tree@V?$_Tmap_traits@IGU?$less@I@std@@V?$allocator@U?$pair@$$CBIG@std@@@2@$0A@@std@@@std@@IEAAPEAU?$_Tree_node@U?$pair@$$CBIG@std@@PEAX@1@PEAU21@0U_Copy_tag@01@@Z 000000018000c2b0 f i woff2_enc.obj
 0001:0000b3a0       ?Log2Floor@brotli@@YAHI@Z  000000018000c3a0 f i backward_references.obj
 0001:0000b490       ?GetLength@StaticDictionary@brotli@@QEBAHI@Z 000000018000c490 f i backward_references.obj
 0001:0000b550       ?BackwardReferenceScore@brotli@@YANNHH@Z 000000018000c550 f i backward_references.obj
 0001:0000b740       ?CreateBackwardReferences@brotli@@YAX_K0PEBE0PEBM0_KNHPEAUHashers@1@HPEAH5PEAUCommand@1@5@Z 000000018000c740 f   backward_references.obj
 0001:0000bc10       ?lower_bound@?$_Hash@V?$_Umap_traits@V?$basic_string@DU?$char_traits@D@std@@V?$allocator@D@2@@std@@HV?$_Uhash_compare@V?$basic_string@DU?$char_traits@D@std@@V?$allocator@D@2@@std@@U?$hash@V?$basic_string@DU?$char_traits@D@std@@V?$allocator@D@2@@std@@@2@U?$equal_to@V?$basic_string@DU?$char_traits@D@std@@V?$allocator@D@2@@std@@@2@@2@V?$allocator@U?$pair@$$CBV?$basic_string@DU?$char_traits@D@std@@V?$allocator@D@2@@std@@H@std@@@2@$0A@@std@@@std@@QEBA?AV?$_List_const_iterator@V?$_List_val@U?$_List_simple_types@U?$pair@$$CBV?$basic_string@DU?$char_traits@D@std@@V?$allocator@D@2@@std@@H@std@@@std@@@std@@@2@AEBV?$basic_string@DU?$char_traits@D@std@@V?$allocator@D@2@@2@@Z 000000018000cc10 f i backward_references.obj
 0001:0000bc10       ?lower_bound@?$_Hash@V?$_Umap_traits@V?$basic_string@DU?$char_traits@D@std@@V?$allocator@D@2@@std@@HV?$_Uhash_compare@V?$basic_string@DU?$char_traits@D@std@@V?$allocator@D@2@@std@@U?$hash@V?$basic_string@DU?$char_traits@D@std@@V?$allocator@D@2@@std@@@2@U?$equal_to@V?$basic_string@DU?$char_traits@D@std@@V?$allocator@D@2@@std@@@2@@2@V?$allocator@U?$pair@$$CBV?$basic_string@DU?$char_traits@D@std@@V?$allocator@D@2@@std@@H@std@@@2@$0A@@std@@@std@@QEAA?AV?$_List_iterator@V?$_List_val@U?$_List_simple_types@U?$pair@$$CBV?$basic_string@DU?$char_traits@D@std@@V?$allocator@D@2@@std@@H@std@@@std@@@std@@@2@AEBV?$basic_string@DU?$char_traits@D@std@@V?$allocator@D@2@@2@@Z 000000018000cc10 f i encode.obj
 0001:0000bd80       ??$CreateBackwardReferences@V?$HashLongestMatchQuickly@$0BA@$00@brotli@@$0A@$0A@@brotli@@YAX_K0PEBE0PEBM0_KNHPEAV?$HashLongestMatchQuickly@$0BA@$00@0@PEAH5PEAUCommand@0@5@Z 000000018000cd80 f i backward_references.obj
 0001:0000c7a0       ??$CreateBackwardReferences@V?$HashLongestMatchQuickly@$0BB@$03@brotli@@$0A@$0A@@brotli@@YAX_K0PEBE0PEBM0_KNHPEAV?$HashLongestMatchQuickly@$0BB@$03@0@PEAH5PEAUCommand@0@5@Z 000000018000d7a0 f i backward_references.obj
 0001:0000ce40       ??$CreateBackwardReferences@V?$HashLongestMatch@$0O@$03$03$03$0A@$0A@@brotli@@$0A@$0A@@brotli@@YAX_K0PEBE0PEBM0_KNHPEAV?$HashLongestMatch@$0O@$03$03$03$0A@$0A@@0@PEAH5PEAUCommand@0@5@Z 000000018000de40 f i backward_references.obj
 0001:0000d580       ??$CreateBackwardReferences@V?$HashLongestMatch@$0O@$04$03$03$0A@$0A@@brotli@@$0A@$0A@@brotli@@YAX_K0PEBE0PEBM0_KNHPEAV?$HashLongestMatch@$0O@$04$03$03$0A@$0A@@0@PEAH5PEAUCommand@0@5@Z 000000018000e580 f i backward_references.obj
 0001:0000dcc0       ??$CreateBackwardReferences@V?$HashLongestMatch@$0P@$05$03$09$0A@$0A@@brotli@@$0A@$0A@@brotli@@YAX_K0PEBE0PEBM0_KNHPEAV?$HashLongestMatch@$0P@$05$03$09$0A@$0A@@0@PEAH5PEAUCommand@0@5@Z 000000018000ecc0 f i backward_references.obj
 0001:0000e400       ??$CreateBackwardReferences@V?$HashLongestMatch@$0P@$06$03$09$0A@$0A@@brotli@@$0A@$0A@@brotli@@YAX_K0PEBE0PEBM0_KNHPEAV?$HashLongestMatch@$0P@$06$03$09$0A@$0A@@0@PEAH5PEAUCommand@0@5@Z 000000018000f400 f i backward_references.obj
 0001:0000eb40       ??$CreateBackwardReferences@V?$HashLongestMatch@$0P@$07$03$0BA@$0A@$0A@@brotli@@$0A@$0A@@brotli@@YAX_K0PEBE0PEBM0_KNHPEAV?$HashLongestMatch@$0P@$07$03$0BA@$0A@$0A@@0@PEAH5PEAUCommand@0@5@Z 000000018000fb40 f i backward_references.obj
 0001:0000f260       ??$CreateBackwardReferences@V?$HashLongestMatch@$0P@$07$03$0BA@$00$00@brotli@@$00$00@brotli@@YAX_K0PEBE0PEBM0_KNHPEAV?$HashLongestMatch@$0P@$07$03$0BA@$00$00@0@PEAH5PEAUCommand@0@5@Z 0000000180010260 f i backward_references.obj
 0001:0000ff10       ??$CreateBackwardReferences@V?$HashLongestMatch@$0P@$07$01$0BA@$00$0A@@brotli@@$00$0A@@brotli@@YAX_K0PEBE0PEBM0_KNHPEAV?$HashLongestMatch@$0P@$07$01$0BA@$00$0A@@0@PEAH5PEAUCommand@0@5@Z 0000000180010f10 f i backward_references.obj
 0001:00010960       ?FindLongestMatch@?$HashLongestMatch@$0P@$07$01$0BA@$00$0A@@brotli@@QEAA_NPEIBE_KPEIBM1NPEIBHIIIPEIAH44PEIAN@Z 0000000180011960 f i backward_references.obj
 0001:000110f0       ?FindLongestMatch@?$HashLongestMatch@$0P@$07$03$0BA@$00$00@brotli@@QEAA_NPEIBE_KPEIBM1NPEIBHIIIPEIAH44PEIAN@Z 00000001800120f0 f i backward_references.obj
 0001:00011980       ?FindLongestMatch@?$HashLongestMatch@$0P@$07$03$0BA@$0A@$0A@@brotli@@QEAA_NPEIBE_KPEIBM1NPEIBHIIIPEIAH44PEIAN@Z 0000000180012980 f i backward_references.obj
 0001:00011f00       ?FindLongestMatch@?$HashLongestMatch@$0P@$06$03$09$0A@$0A@@brotli@@QEAA_NPEIBE_KPEIBM1NPEIBHIIIPEIAH44PEIAN@Z 0000000180012f00 f i backward_references.obj
 0001:00012480       ?FindLongestMatch@?$HashLongestMatch@$0P@$05$03$09$0A@$0A@@brotli@@QEAA_NPEIBE_KPEIBM1NPEIBHIIIPEIAH44PEIAN@Z 0000000180013480 f i backward_references.obj
 0001:00012a00       ?FindLongestMatch@?$HashLongestMatch@$0O@$04$03$03$0A@$0A@@brotli@@QEAA_NPEIBE_KPEIBM1NPEIBHIIIPEIAH44PEIAN@Z 0000000180013a00 f i backward_references.obj
 0001:00012f80       ?FindLongestMatch@?$HashLongestMatch@$0O@$03$03$03$0A@$0A@@brotli@@QEAA_NPEIBE_KPEIBM1NPEIBHIIIPEIAH44PEIAN@Z 0000000180013f80 f i backward_references.obj
 0001:00013500       ?FindLongestMatch@?$HashLongestMatchQuickly@$0BB@$03@brotli@@QEAA_NPEIBE_KPEIBM1NPEIBHIIIPEIAH44PEIAN@Z 0000000180014500 f i backward_references.obj
 0001:00013ba0       ?ClusterCostDiff@brotli@@YANHH@Z 0000000180014ba0 f i block_splitter.obj
 0001:00013c90       ?CopyLiteralsToByteArray@brotli@@YAXPEBUCommand@1@_KPEBEPEAV?$vector@EV?$allocator@E@std@@@std@@@Z 0000000180014c90 f   block_splitter.obj
 0001:00013de0       ?CopyCommandsToByteArray@brotli@@YAXPEBUCommand@1@_KPEAV?$vector@GV?$allocator@G@std@@@std@@PEAV?$vector@EV?$allocator@E@std@@@4@@Z 0000000180014de0 f   block_splitter.obj
 0001:00014120       ?RemapBlockIds@brotli@@YAHPEAE_K@Z 0000000180015120 f   block_splitter.obj
 0001:000143b0       ?BuildBlockSplit@brotli@@YAXAEBV?$vector@EV?$allocator@E@std@@@std@@PEAUBlockSplit@1@@Z 00000001800153b0 f   block_splitter.obj
 0001:000147e0       ?SplitBlock@brotli@@YAXPEBUCommand@1@_KPEBEPEAUBlockSplit@1@33@Z 00000001800157e0 f   block_splitter.obj
 0001:000149b0       ?_Reserve@?$vector@HV?$allocator@H@std@@@std@@IEAAX_K@Z 00000001800159b0 f i block_splitter.obj
 0001:00014a40       ?deallocate@?$_Wrap_alloc@V?$allocator@G@std@@@std@@QEAAXPEAG_K@Z 0000000180015a40 f i block_splitter.obj
 0001:00014ab0       ?_Reallocate@?$vector@GV?$allocator@G@std@@@std@@IEAAX_K@Z 0000000180015ab0 f i block_splitter.obj
 0001:00014b90       ?allocate@?$_Wrap_alloc@V?$allocator@G@std@@@std@@QEAAPEAG_K@Z 0000000180015b90 f i block_splitter.obj
 0001:00014c00       ?allocate@?$_Wrap_alloc@V?$allocator@H@std@@@std@@QEAAPEAH_K@Z 0000000180015c00 f i block_splitter.obj
 0001:00014c70       ??$SplitByteVector@U?$Histogram@$0BAA@@brotli@@E@brotli@@YAXAEBV?$vector@EV?$allocator@E@std@@@std@@HHHNPEAUBlockSplit@0@@Z 0000000180015c70 f i block_splitter.obj
 0001:00015160       ??$SplitByteVector@U?$Histogram@$0CMA@@brotli@@G@brotli@@YAXAEBV?$vector@GV?$allocator@G@std@@@std@@HHHNPEAUBlockSplit@0@@Z 0000000180016160 f i block_splitter.obj
 0001:000155a0       ??$SplitByteVector@U?$Histogram@$0CAI@@brotli@@E@brotli@@YAXAEBV?$vector@EV?$allocator@E@std@@@std@@HHHNPEAUBlockSplit@0@@Z 00000001800165a0 f i block_splitter.obj
 0001:00015a90       ?deallocate@?$_Wrap_alloc@V?$allocator@U?$Histogram@$0CAI@@brotli@@@std@@@std@@QEAAXPEAU?$Histogram@$0CAI@@brotli@@_K@Z 0000000180016a90 f i block_splitter.obj
 0001:00015b00       ?deallocate@?$_Wrap_alloc@V?$allocator@U?$Histogram@$0CMA@@brotli@@@std@@@std@@QEAAXPEAU?$Histogram@$0CMA@@brotli@@_K@Z 0000000180016b00 f i block_splitter.obj
 0001:00015b70       ?deallocate@?$_Wrap_alloc@V?$allocator@U?$Histogram@$0BAA@@brotli@@@std@@@std@@QEAAXPEAU?$Histogram@$0BAA@@brotli@@_K@Z 0000000180016b70 f i block_splitter.obj
 0001:00015be0       ??$InitialEntropyCodes@U?$Histogram@$0BAA@@brotli@@E@brotli@@YAXPEBE_KHH1PEAV?$vector@U?$Histogram@$0BAA@@brotli@@V?$allocator@U?$Histogram@$0BAA@@brotli@@@std@@@std@@@Z 0000000180016be0 f i block_splitter.obj
 0001:00015ea0       ??$RefineEntropyCodes@U?$Histogram@$0BAA@@brotli@@E@brotli@@YAXPEBE_K1PEAV?$vector@U?$Histogram@$0BAA@@brotli@@V?$allocator@U?$Histogram@$0BAA@@brotli@@@std@@@std@@@Z 0000000180016ea0 f i block_splitter.obj
 0001:000160c0       ??$FindBlocks@E$0BAA@@brotli@@YAXPEBE_KNAEBV?$vector@U?$Histogram@$0BAA@@brotli@@V?$allocator@U?$Histogram@$0BAA@@brotli@@@std@@@std@@PEAE@Z 00000001800170c0 f i block_splitter.obj
 0001:00016460       ??$ClusterBlocks@U?$Histogram@$0BAA@@brotli@@E@brotli@@YAXPEBE_KPEAE@Z 0000000180017460 f i block_splitter.obj
 0001:00016a90       ??$InitialEntropyCodes@U?$Histogram@$0CMA@@brotli@@G@brotli@@YAXPEBG_KHH1PEAV?$vector@U?$Histogram@$0CMA@@brotli@@V?$allocator@U?$Histogram@$0CMA@@brotli@@@std@@@std@@@Z 0000000180017a90 f i block_splitter.obj
 0001:00016c00       ??$RefineEntropyCodes@U?$Histogram@$0CMA@@brotli@@G@brotli@@YAXPEBG_K1PEAV?$vector@U?$Histogram@$0CMA@@brotli@@V?$allocator@U?$Histogram@$0CMA@@brotli@@@std@@@std@@@Z 0000000180017c00 f i block_splitter.obj
 0001:00016e20       ??$FindBlocks@G$0CMA@@brotli@@YAXPEBG_KNAEBV?$vector@U?$Histogram@$0CMA@@brotli@@V?$allocator@U?$Histogram@$0CMA@@brotli@@@std@@@std@@PEAE@Z 0000000180017e20 f i block_splitter.obj
 0001:000171a0       ??$ClusterBlocks@U?$Histogram@$0CMA@@brotli@@G@brotli@@YAXPEBG_KPEAE@Z 00000001800181a0 f i block_splitter.obj
 0001:00017600       ??$InitialEntropyCodes@U?$Histogram@$0CAI@@brotli@@E@brotli@@YAXPEBE_KHH1PEAV?$vector@U?$Histogram@$0CAI@@brotli@@V?$allocator@U?$Histogram@$0CAI@@brotli@@@std@@@std@@@Z 0000000180018600 f i block_splitter.obj
 0001:000178e0       ??$RefineEntropyCodes@U?$Histogram@$0CAI@@brotli@@E@brotli@@YAXPEBE_K1PEAV?$vector@U?$Histogram@$0CAI@@brotli@@V?$allocator@U?$Histogram@$0CAI@@brotli@@@std@@@std@@@Z 00000001800188e0 f i block_splitter.obj
 0001:00017b00       ??$FindBlocks@E$0CAI@@brotli@@YAXPEBE_KNAEBV?$vector@U?$Histogram@$0CAI@@brotli@@V?$allocator@U?$Histogram@$0CAI@@brotli@@@std@@@std@@PEAE@Z 0000000180018b00 f i block_splitter.obj
 0001:00017ea0       ??$ClusterBlocks@U?$Histogram@$0CAI@@brotli@@E@brotli@@YAXPEBE_KPEAE@Z 0000000180018ea0 f i block_splitter.obj
 0001:00018470       ?resize@?$vector@U?$Histogram@$0CAI@@brotli@@V?$allocator@U?$Histogram@$0CAI@@brotli@@@std@@@std@@QEAAX_K@Z 0000000180019470 f i block_splitter.obj
 0001:00018550       ?push_back@?$vector@U?$Histogram@$0CMA@@brotli@@V?$allocator@U?$Histogram@$0CMA@@brotli@@@std@@@std@@QEAAXAEBU?$Histogram@$0CMA@@brotli@@@Z 0000000180019550 f i block_splitter.obj
 0001:00018680       ?resize@?$vector@U?$Histogram@$0CMA@@brotli@@V?$allocator@U?$Histogram@$0CMA@@brotli@@@std@@@std@@QEAAX_K@Z 0000000180019680 f i block_splitter.obj
 0001:000187a0       ?resize@?$vector@U?$Histogram@$0BAA@@brotli@@V?$allocator@U?$Histogram@$0BAA@@brotli@@@std@@@std@@QEAAX_K@Z 00000001800197a0 f i block_splitter.obj
 0001:00018880       ?AddHistogram@?$Histogram@$0CAI@@brotli@@QEAAXAEBU12@@Z 0000000180019880 f i block_splitter.obj
 0001:00018920       ?AddHistogram@?$Histogram@$0CMA@@brotli@@QEAAXAEBU12@@Z 0000000180019920 f i block_splitter.obj
 0001:000189c0       ?AddHistogram@?$Histogram@$0BAA@@brotli@@QEAAXAEBU12@@Z 00000001800199c0 f i block_splitter.obj
 0001:00018a60       ?_Reserve@?$vector@U?$Histogram@$0CAI@@brotli@@V?$allocator@U?$Histogram@$0CAI@@brotli@@@std@@@std@@IEAAX_K@Z 0000000180019a60 f i block_splitter.obj
 0001:00018b30       ?_Reserve@?$vector@U?$Histogram@$0CMA@@brotli@@V?$allocator@U?$Histogram@$0CMA@@brotli@@@std@@@std@@IEAAX_K@Z 0000000180019b30 f i block_splitter.obj
 0001:00018c00       ?_Reserve@?$vector@U?$Histogram@$0BAA@@brotli@@V?$allocator@U?$Histogram@$0BAA@@brotli@@@std@@@std@@IEAAX_K@Z 0000000180019c00 f i block_splitter.obj
 0001:00018cd0       ?_Reallocate@?$vector@U?$Histogram@$0CAI@@brotli@@V?$allocator@U?$Histogram@$0CAI@@brotli@@@std@@@std@@IEAAX_K@Z 0000000180019cd0 f i block_splitter.obj
 0001:00018df0       ?_Reallocate@?$vector@U?$Histogram@$0CMA@@brotli@@V?$allocator@U?$Histogram@$0CMA@@brotli@@@std@@@std@@IEAAX_K@Z 0000000180019df0 f i block_splitter.obj
 0001:00018f10       ?_Reallocate@?$vector@U?$Histogram@$0BAA@@brotli@@V?$allocator@U?$Histogram@$0BAA@@brotli@@@std@@@std@@IEAAX_K@Z 0000000180019f10 f i block_splitter.obj
 0001:00019030       ?allocate@?$_Wrap_alloc@V?$allocator@U?$Histogram@$0CAI@@brotli@@@std@@@std@@QEAAPEAU?$Histogram@$0CAI@@brotli@@_K@Z 000000018001a030 f i block_splitter.obj
 0001:000190a0       ?allocate@?$_Wrap_alloc@V?$allocator@U?$Histogram@$0CMA@@brotli@@@std@@@std@@QEAAPEAU?$Histogram@$0CMA@@brotli@@_K@Z 000000018001a0a0 f i block_splitter.obj
 0001:00019110       ?allocate@?$_Wrap_alloc@V?$allocator@U?$Histogram@$0BAA@@brotli@@@std@@@std@@QEAAPEAU?$Histogram@$0BAA@@brotli@@_K@Z 000000018001a110 f i block_splitter.obj
 0001:00019180       ??$ClusterHistograms@U?$Histogram@$0BAA@@brotli@@@brotli@@YAXAEBV?$vector@U?$Histogram@$0BAA@@brotli@@V?$allocator@U?$Histogram@$0BAA@@brotli@@@std@@@std@@HHHPEAV12@PEAV?$vector@HV?$allocator@H@std@@@2@@Z 000000018001a180 f i block_splitter.obj
 0001:00019420       ??$ClusterHistograms@U?$Histogram@$0CMA@@brotli@@@brotli@@YAXAEBV?$vector@U?$Histogram@$0CMA@@brotli@@V?$allocator@U?$Histogram@$0CMA@@brotli@@@std@@@std@@HHHPEAV12@PEAV?$vector@HV?$allocator@H@std@@@2@@Z 000000018001a420 f i block_splitter.obj
 0001:00019680       ??$ClusterHistograms@U?$Histogram@$0CAI@@brotli@@@brotli@@YAXAEBV?$vector@U?$Histogram@$0CAI@@brotli@@V?$allocator@U?$Histogram@$0CAI@@brotli@@@std@@@std@@HHHPEAV12@PEAV?$vector@HV?$allocator@H@std@@@2@@Z 000000018001a680 f i block_splitter.obj
 0001:00019930       ??$construct@U?$Histogram@$0CAI@@brotli@@AEAU12@@?$_Wrap_alloc@V?$allocator@U?$Histogram@$0CAI@@brotli@@@std@@@std@@QEAAXPEAU?$Histogram@$0CAI@@brotli@@AEAU23@@Z 000000018001a930 f i block_splitter.obj
 0001:000199c0       ??$_Uninitialized_default_fill_n@PEAU?$Histogram@$0CAI@@brotli@@_KV?$allocator@U?$Histogram@$0CAI@@brotli@@@std@@@std@@YAXPEAU?$Histogram@$0CAI@@brotli@@_KAEAU?$_Wrap_alloc@V?$allocator@U?$Histogram@$0CAI@@brotli@@@std@@@0@@Z 000000018001a9c0 f i block_splitter.obj
 0001:00019a20       ??$construct@U?$Histogram@$0CMA@@brotli@@AEBU12@@?$_Wrap_alloc@V?$allocator@U?$Histogram@$0CMA@@brotli@@@std@@@std@@QEAAXPEAU?$Histogram@$0CMA@@brotli@@AEBU23@@Z 000000018001aa20 f i block_splitter.obj
 0001:00019aa0       ??$_Uninitialized_default_fill_n@PEAU?$Histogram@$0BAA@@brotli@@_KV?$allocator@U?$Histogram@$0BAA@@brotli@@@std@@@std@@YAXPEAU?$Histogram@$0BAA@@brotli@@_KAEAU?$_Wrap_alloc@V?$allocator@U?$Histogram@$0BAA@@brotli@@@std@@@0@@Z 000000018001aaa0 f i block_splitter.obj
 0001:00019b00       ?resize@?$vector@HV?$allocator@H@std@@@std@@QEAAX_K@Z 000000018001ab00 f i block_splitter.obj
 0001:00019bf0       ??$PopulationCost@$0BAA@@brotli@@YANAEBU?$Histogram@$0BAA@@0@@Z 000000018001abf0 f i block_splitter.obj
 0001:00019e40       ??$HistogramCombine@U?$Histogram@$0BAA@@brotli@@@brotli@@YAXPEAU?$Histogram@$0BAA@@0@PEAH1HH@Z 000000018001ae40 f i block_splitter.obj
 0001:0001a510       ??$HistogramRemap@U?$Histogram@$0BAA@@brotli@@@brotli@@YAXPEBU?$Histogram@$0BAA@@0@HPEAU10@PEAH@Z 000000018001b510 f i block_splitter.obj
 0001:0001a850       ??$HistogramReindex@U?$Histogram@$0BAA@@brotli@@@brotli@@YAXPEAV?$vector@U?$Histogram@$0BAA@@brotli@@V?$allocator@U?$Histogram@$0BAA@@brotli@@@std@@@std@@PEAV?$vector@HV?$allocator@H@std@@@2@@Z 000000018001b850 f i block_splitter.obj
 0001:0001ac90       ??$PopulationCost@$0CMA@@brotli@@YANAEBU?$Histogram@$0CMA@@0@@Z 000000018001bc90 f i block_splitter.obj
 0001:0001aee0       ??$HistogramCombine@U?$Histogram@$0CMA@@brotli@@@brotli@@YAXPEAU?$Histogram@$0CMA@@0@PEAH1HH@Z 000000018001bee0 f i block_splitter.obj
 0001:0001b5b0       ??$HistogramRemap@U?$Histogram@$0CMA@@brotli@@@brotli@@YAXPEBU?$Histogram@$0CMA@@0@HPEAU10@PEAH@Z 000000018001c5b0 f i block_splitter.obj
 0001:0001b8f0       ??$HistogramReindex@U?$Histogram@$0CMA@@brotli@@@brotli@@YAXPEAV?$vector@U?$Histogram@$0CMA@@brotli@@V?$allocator@U?$Histogram@$0CMA@@brotli@@@std@@@std@@PEAV?$vector@HV?$allocator@H@std@@@2@@Z 000000018001c8f0 f i block_splitter.obj
 0001:0001bd30       ??$PopulationCost@$0CAI@@brotli@@YANAEBU?$Histogram@$0CAI@@0@@Z 000000018001cd30 f i block_splitter.obj
 0001:0001bf90       ??$HistogramCombine@U?$Histogram@$0CAI@@brotli@@@brotli@@YAXPEAU?$Histogram@$0CAI@@0@PEAH1HH@Z 000000018001cf90 f i block_splitter.obj
 0001:0001c660       ??$HistogramRemap@U?$Histogram@$0CAI@@brotli@@@brotli@@YAXPEBU?$Histogram@$0CAI@@0@HPEAU10@PEAH@Z 000000018001d660 f i block_splitter.obj
 0001:0001c9a0       ??$HistogramReindex@U?$Histogram@$0CAI@@brotli@@@brotli@@YAXPEAV?$vector@U?$Histogram@$0CAI@@brotli@@V?$allocator@U?$Histogram@$0CAI@@brotli@@@std@@@std@@PEAV?$vector@HV?$allocator@H@std@@@2@@Z 000000018001d9a0 f i block_splitter.obj
 0001:0001cdf0       ??$_Insert_hint@AEAU?$pair@$$CBEE@std@@PEAU?$_Tree_node@U?$pair@$$CBEE@std@@PEAX@2@@?$_Tree@V?$_Tmap_traits@EEU?$less@E@std@@V?$allocator@U?$pair@$$CBEE@std@@@2@$0A@@std@@@std@@IEAA?AV?$_Tree_iterator@V?$_Tree_val@U?$_Tree_simple_types@U?$pair@$$CBEE@std@@@std@@@std@@@1@V?$_Tree_const_iterator@V?$_Tree_val@U?$_Tree_simple_types@U?$pair@$$CBEE@std@@@std@@@std@@@1@AEAU?$pair@$$CBEE@1@PEAU?$_Tree_node@U?$pair@$$CBEE@std@@PEAX@1@@Z 000000018001ddf0 f i block_splitter.obj
 0001:0001d050       ?_Buy@?$vector@U?$Histogram@$0CAI@@brotli@@V?$allocator@U?$Histogram@$0CAI@@brotli@@@std@@@std@@IEAA_N_K@Z 000000018001e050 f i block_splitter.obj
 0001:0001d0c0       ?_Buy@?$vector@U?$Histogram@$0BAA@@brotli@@V?$allocator@U?$Histogram@$0BAA@@brotli@@@std@@@std@@IEAA_N_K@Z 000000018001e0c0 f i block_splitter.obj
 0001:0001d130       ?deallocate@?$_Wrap_alloc@V?$allocator@UHistogramPair@brotli@@@std@@@std@@QEAAXPEAUHistogramPair@brotli@@_K@Z 000000018001e130 f i block_splitter.obj
 0001:0001d1a0       ??$CompareAndPushToHeap@U?$Histogram@$0BAA@@brotli@@@brotli@@YAXPEBU?$Histogram@$0BAA@@0@PEBHHHPEAV?$vector@UHistogramPair@brotli@@V?$allocator@UHistogramPair@brotli@@@std@@@std@@@Z 000000018001e1a0 f i block_splitter.obj
 0001:0001d400       ??$pop_heap@V?$_Vector_iterator@V?$_Vector_val@U?$_Simple_types@UHistogramPair@brotli@@@std@@@std@@@std@@UHistogramPairComparator@brotli@@@std@@YAXV?$_Vector_iterator@V?$_Vector_val@U?$_Simple_types@UHistogramPair@brotli@@@std@@@std@@@0@0UHistogramPairComparator@brotli@@@Z 000000018001e400 f i block_splitter.obj
 0001:0001d5f0       ??$HistogramBitCostDistance@U?$Histogram@$0BAA@@brotli@@@brotli@@YANAEBU?$Histogram@$0BAA@@0@0@Z 000000018001e5f0 f i block_splitter.obj
 0001:0001d720       ??$CompareAndPushToHeap@U?$Histogram@$0CMA@@brotli@@@brotli@@YAXPEBU?$Histogram@$0CMA@@0@PEBHHHPEAV?$vector@UHistogramPair@brotli@@V?$allocator@UHistogramPair@brotli@@@std@@@std@@@Z 000000018001e720 f i block_splitter.obj
 0001:0001d980       ??$HistogramBitCostDistance@U?$Histogram@$0CMA@@brotli@@@brotli@@YANAEBU?$Histogram@$0CMA@@0@0@Z 000000018001e980 f i block_splitter.obj
 0001:0001dab0       ??$CompareAndPushToHeap@U?$Histogram@$0CAI@@brotli@@@brotli@@YAXPEBU?$Histogram@$0CAI@@0@PEBHHHPEAV?$vector@UHistogramPair@brotli@@V?$allocator@UHistogramPair@brotli@@@std@@@std@@@Z 000000018001eab0 f i block_splitter.obj
 0001:0001dd20       ??$HistogramBitCostDistance@U?$Histogram@$0CAI@@brotli@@@brotli@@YANAEBU?$Histogram@$0CAI@@0@0@Z 000000018001ed20 f i block_splitter.obj
 0001:0001de60       ??$_Insert_at@AEAU?$pair@$$CBEE@std@@PEAU?$_Tree_node@U?$pair@$$CBEE@std@@PEAX@2@@?$_Tree@V?$_Tmap_traits@EEU?$less@E@std@@V?$allocator@U?$pair@$$CBEE@std@@@2@$0A@@std@@@std@@IEAA?AV?$_Tree_iterator@V?$_Tree_val@U?$_Tree_simple_types@U?$pair@$$CBEE@std@@@std@@@std@@@1@_NPEAU?$_Tree_node@U?$pair@$$CBEE@std@@PEAX@1@AEAU?$pair@$$CBEE@1@1@Z 000000018001ee60 f i block_splitter.obj
 0001:0001e100       ??$_Insert_nohint@AEAU?$pair@$$CBEE@std@@PEAU?$_Tree_node@U?$pair@$$CBEE@std@@PEAX@2@@?$_Tree@V?$_Tmap_traits@EEU?$less@E@std@@V?$allocator@U?$pair@$$CBEE@std@@@2@$0A@@std@@@std@@IEAA?AU?$pair@V?$_Tree_iterator@V?$_Tree_val@U?$_Tree_simple_types@U?$pair@$$CBEE@std@@@std@@@std@@@std@@_N@1@_NAEAU?$pair@$$CBEE@1@PEAU?$_Tree_node@U?$pair@$$CBEE@std@@PEAX@1@@Z 000000018001f100 f i block_splitter.obj
 0001:0001e220       ?_Reserve@?$vector@UHistogramPair@brotli@@V?$allocator@UHistogramPair@brotli@@@std@@@std@@IEAAX_K@Z 000000018001f220 f i block_splitter.obj
 0001:0001e2b0       ?_Reallocate@?$vector@UHistogramPair@brotli@@V?$allocator@UHistogramPair@brotli@@@std@@@std@@IEAAX_K@Z 000000018001f2b0 f i block_splitter.obj
 0001:0001e390       ??$_Insert_nohint@AEBHU_Nil@std@@@?$_Tree@V?$_Tset_traits@HU?$less@H@std@@V?$allocator@H@2@$0A@@std@@@std@@IEAA?AU?$pair@V?$_Tree_const_iterator@V?$_Tree_val@U?$_Tree_simple_types@H@std@@@std@@@std@@_N@1@_NAEBHU_Nil@1@@Z 000000018001f390 f i block_splitter.obj
 0001:0001e4e0       ??$_Uninitialized_copy_al_unchecked1@PEAU?$Histogram@$0CAI@@brotli@@PEAU12@V?$allocator@U?$Histogram@$0CAI@@brotli@@@std@@@std@@YAPEAU?$Histogram@$0CAI@@brotli@@PEAU12@00AEAU?$_Wrap_alloc@V?$allocator@U?$Histogram@$0CAI@@brotli@@@std@@@0@U_General_ptr_iterator_tag@0@U_Any_tag@0@@Z 000000018001f4e0 f i metablock.obj
 0001:0001e4e0       ??$_Uninitialized_copy_al_unchecked1@PEBU?$Histogram@$0CAI@@brotli@@PEAU12@V?$allocator@U?$Histogram@$0CAI@@brotli@@@std@@@std@@YAPEAU?$Histogram@$0CAI@@brotli@@PEBU12@0PEAU12@AEAU?$_Wrap_alloc@V?$allocator@U?$Histogram@$0CAI@@brotli@@@std@@@0@U_General_ptr_iterator_tag@0@U_Any_tag@0@@Z 000000018001f4e0 f i block_splitter.obj
 0001:0001e4e0       ??$_Uninitialized_move_al_unchecked1@PEAU?$Histogram@$0CAI@@brotli@@PEAU12@V?$allocator@U?$Histogram@$0CAI@@brotli@@@std@@@std@@YAPEAU?$Histogram@$0CAI@@brotli@@PEAU12@00AEAU?$_Wrap_alloc@V?$allocator@U?$Histogram@$0CAI@@brotli@@@std@@@0@U_General_ptr_iterator_tag@0@U_Any_tag@0@@Z 000000018001f4e0 f i block_splitter.obj
 0001:0001e590       ??$_Uninitialized_move_al_unchecked1@PEAU?$Histogram@$0CMA@@brotli@@PEAU12@V?$allocator@U?$Histogram@$0CMA@@brotli@@@std@@@std@@YAPEAU?$Histogram@$0CMA@@brotli@@PEAU12@00AEAU?$_Wrap_alloc@V?$allocator@U?$Histogram@$0CMA@@brotli@@@std@@@0@U_General_ptr_iterator_tag@0@U_Any_tag@0@@Z 000000018001f590 f i block_splitter.obj
 0001:0001e590       ??$_Uninitialized_copy_al_unchecked1@PEBU?$Histogram@$0CMA@@brotli@@PEAU12@V?$allocator@U?$Histogram@$0CMA@@brotli@@@std@@@std@@YAPEAU?$Histogram@$0CMA@@brotli@@PEBU12@0PEAU12@AEAU?$_Wrap_alloc@V?$allocator@U?$Histogram@$0CMA@@brotli@@@std@@@0@U_General_ptr_iterator_tag@0@U_Any_tag@0@@Z 000000018001f590 f i block_splitter.obj
 0001:0001e620       ??$_Uninitialized_copy_al_unchecked1@PEAU?$Histogram@$0BAA@@brotli@@PEAU12@V?$allocator@U?$Histogram@$0BAA@@brotli@@@std@@@std@@YAPEAU?$Histogram@$0BAA@@brotli@@PEAU12@00AEAU?$_Wrap_alloc@V?$allocator@U?$Histogram@$0BAA@@brotli@@@std@@@0@U_General_ptr_iterator_tag@0@U_Any_tag@0@@Z 000000018001f620 f i metablock.obj
 0001:0001e620       ??$_Uninitialized_move_al_unchecked1@PEAU?$Histogram@$0BAA@@brotli@@PEAU12@V?$allocator@U?$Histogram@$0BAA@@brotli@@@std@@@std@@YAPEAU?$Histogram@$0BAA@@brotli@@PEAU12@00AEAU?$_Wrap_alloc@V?$allocator@U?$Histogram@$0BAA@@brotli@@@std@@@0@U_General_ptr_iterator_tag@0@U_Any_tag@0@@Z 000000018001f620 f i block_splitter.obj
 0001:0001e620       ??$_Uninitialized_copy_al_unchecked1@PEBU?$Histogram@$0BAA@@brotli@@PEAU12@V?$allocator@U?$Histogram@$0BAA@@brotli@@@std@@@std@@YAPEAU?$Histogram@$0BAA@@brotli@@PEBU12@0PEAU12@AEAU?$_Wrap_alloc@V?$allocator@U?$Histogram@$0BAA@@brotli@@@std@@@0@U_General_ptr_iterator_tag@0@U_Any_tag@0@@Z 000000018001f620 f i block_splitter.obj
 0001:0001e6b0       ??$_Insert_at@AEBHU_Nil@std@@@?$_Tree@V?$_Tset_traits@HU?$less@H@std@@V?$allocator@H@2@$0A@@std@@@std@@IEAA?AV?$_Tree_const_iterator@V?$_Tree_val@U?$_Tree_simple_types@H@std@@@std@@@1@_NPEAU?$_Tree_node@HPEAX@1@AEBHU_Nil@1@@Z 000000018001f6b0 f i block_splitter.obj
 0001:0001e9c0       ??$_Push_heap_unchecked@PEAUHistogramPair@brotli@@UHistogramPairComparator@2@@std@@YAXPEAUHistogramPair@brotli@@0AEAUHistogramPairComparator@2@@Z 000000018001f9c0 f i block_splitter.obj
 0001:0001eab0       ??$_Insert_hint@AEAU?$pair@$$CBHH@std@@PEAU?$_Tree_node@U?$pair@$$CBHH@std@@PEAX@2@@?$_Tree@V?$_Tmap_traits@HHU?$less@H@std@@V?$allocator@U?$pair@$$CBHH@std@@@2@$0A@@std@@@std@@IEAA?AV?$_Tree_iterator@V?$_Tree_val@U?$_Tree_simple_types@U?$pair@$$CBHH@std@@@std@@@std@@@1@V?$_Tree_const_iterator@V?$_Tree_val@U?$_Tree_simple_types@U?$pair@$$CBHH@std@@@std@@@std@@@1@AEAU?$pair@$$CBHH@1@PEAU?$_Tree_node@U?$pair@$$CBHH@std@@PEAX@1@@Z 000000018001fab0 f i block_splitter.obj
 0001:0001ed00       ??$_Insert_nohint@AEAU?$pair@$$CBHH@std@@PEAU?$_Tree_node@U?$pair@$$CBHH@std@@PEAX@2@@?$_Tree@V?$_Tmap_traits@HHU?$less@H@std@@V?$allocator@U?$pair@$$CBHH@std@@@2@$0A@@std@@@std@@IEAA?AU?$pair@V?$_Tree_iterator@V?$_Tree_val@U?$_Tree_simple_types@U?$pair@$$CBHH@std@@@std@@@std@@@std@@_N@1@_NAEAU?$pair@$$CBHH@1@PEAU?$_Tree_node@U?$pair@$$CBHH@std@@PEAX@1@@Z 000000018001fd00 f i block_splitter.obj
 0001:0001f080       ?WriteBits@brotli@@YAXH_KPEIAHPEIAE@Z 0000000180020080 f i brotli_bit_stream.obj
 0001:0001f100       ?StoreVarLenUint8@brotli@@YAXHPEAHPEAE@Z 0000000180020100 f   brotli_bit_stream.obj
 0001:0001f1b0       ?StoreCompressedMetaBlockHeader@brotli@@YA_N_N_KPEAHPEAE@Z 00000001800201b0 f   brotli_bit_stream.obj
 0001:0001f2e0       ?StoreUncompressedMetaBlockHeader@brotli@@YA_N_KPEAHPEAE@Z 00000001800202e0 f   brotli_bit_stream.obj
 0001:0001f3b0       ?StoreHuffmanTreeOfHuffmanTreeToBitMask@brotli@@YAXHPEBEPEAHPEAE@Z 00000001800203b0 f   brotli_bit_stream.obj
 0001:0001f560       ?StoreHuffmanTreeToBitMask@brotli@@YAXAEBV?$vector@EV?$allocator@E@std@@@std@@0PEBEAEBV?$vector@GV?$allocator@G@std@@@3@PEIAHPEIAE@Z 0000000180020560 f   brotli_bit_stream.obj
 0001:0001f710       ?StoreSimpleHuffmanTree@brotli@@YAXPEBEQEAHHHPEAHPEAE@Z 0000000180020710 f   brotli_bit_stream.obj
 0001:0001fa90       ?StoreHuffmanTree@brotli@@YAXPEBE_KPEAHPEAE@Z 0000000180020a90 f   brotli_bit_stream.obj
 0001:0001fde0       ?BuildAndStoreHuffmanTree@brotli@@YAXPEBHHPEAEPEAGPEAH1@Z 0000000180020de0 f   brotli_bit_stream.obj
 0001:0001ff50       ?MoveToFrontTransform@brotli@@YA?AV?$vector@HV?$allocator@H@std@@@std@@AEBV23@@Z 0000000180020f50 f   brotli_bit_stream.obj
 0001:00020200       ?RunLengthCodeZeros@brotli@@YAXAEBV?$vector@HV?$allocator@H@std@@@std@@PEAHPEAV23@2@Z 0000000180021200 f   brotli_bit_stream.obj
 0001:00020c00       ?BestMaxZeroRunLengthPrefix@brotli@@YAHAEBV?$vector@HV?$allocator@H@std@@@std@@@Z 0000000180021c00 f   brotli_bit_stream.obj
 0001:000210c0       ?EncodeContextMap@brotli@@YAXAEBV?$vector@HV?$allocator@H@std@@@std@@HPEAHPEAE@Z 00000001800220c0 f   brotli_bit_stream.obj
 0001:00021570       ?BuildAndStoreBlockSplitCode@brotli@@YAXAEBV?$vector@HV?$allocator@H@std@@@std@@0HPEAUBlockSplitCode@1@PEAHPEAE@Z 0000000180022570 f   brotli_bit_stream.obj
 0001:00021a90       ?StoreTrivialContextMap@brotli@@YAXHHPEAHPEAE@Z 0000000180022a90 f   brotli_bit_stream.obj
 0001:00021fe0       ??0BlockEncoder@brotli@@QEAA@HHAEBV?$vector@HV?$allocator@H@std@@@std@@0@Z 0000000180022fe0 f i brotli_bit_stream.obj
 0001:000220d0       ?StoreSymbol@BlockEncoder@brotli@@QEAAXHPEAHPEAE@Z 00000001800230d0 f i brotli_bit_stream.obj
 0001:00022210       ??1BlockSplitCode@brotli@@QEAA@XZ 0000000180023210 f i brotli_bit_stream.obj
 0001:00022340       ?StoreMetaBlock@brotli@@YA_NPEBE_K11EE_NHHHPEBUCommand@1@1AEBUMetaBlockSplit@1@PEAHPEAE@Z 0000000180023340 f   brotli_bit_stream.obj
 0001:00022d60       ?StoreUncompressedMetaBlock@brotli@@YA_N_NPEBE_K22PEAHPEAE@Z 0000000180023d60 f   brotli_bit_stream.obj
 0001:00022ea0       ?resize@?$vector@GV?$allocator@G@std@@@std@@QEAAX_K@Z 0000000180023ea0 f i brotli_bit_stream.obj
 0001:00022f90       ??0?$vector@HV?$allocator@H@std@@@std@@QEAA@AEBV01@@Z 0000000180023f90 f i brotli_bit_stream.obj
 0001:00023040       ??$PopulationCost@$0BBA@@brotli@@YANAEBU?$Histogram@$0BBA@@0@@Z 0000000180024040 f i brotli_bit_stream.obj
 0001:00023260       ??$BuildAndStoreEntropyCodes@$0BAA@@BlockEncoder@brotli@@QEAAXAEBV?$vector@U?$Histogram@$0BAA@@brotli@@V?$allocator@U?$Histogram@$0BAA@@brotli@@@std@@@std@@PEAHPEAE@Z 0000000180024260 f i brotli_bit_stream.obj
 0001:000233a0       ??$BuildAndStoreEntropyCodes@$0CMA@@BlockEncoder@brotli@@QEAAXAEBV?$vector@U?$Histogram@$0CMA@@brotli@@V?$allocator@U?$Histogram@$0CMA@@brotli@@@std@@@std@@PEAHPEAE@Z 00000001800243a0 f i brotli_bit_stream.obj
 0001:000234e0       ??$BuildAndStoreEntropyCodes@$0CAI@@BlockEncoder@brotli@@QEAAXAEBV?$vector@U?$Histogram@$0CAI@@brotli@@V?$allocator@U?$Histogram@$0CAI@@brotli@@@std@@@std@@PEAHPEAE@Z 00000001800244e0 f i brotli_bit_stream.obj
 0001:00023620       ??$StoreSymbolWithContext@$05@BlockEncoder@brotli@@QEAAXHHAEBV?$vector@HV?$allocator@H@std@@@std@@PEAHPEAE@Z 0000000180024620 f i brotli_bit_stream.obj
 0001:00023780       ??$StoreSymbolWithContext@$01@BlockEncoder@brotli@@QEAAXHHAEBV?$vector@HV?$allocator@H@std@@@std@@PEAHPEAE@Z 0000000180024780 f i brotli_bit_stream.obj
 0001:000239f0       ?PrefixEncodeCopyDistance@brotli@@YAXHHHPEAGPEAI@Z 00000001800249f0 f i encode.obj
 0001:00023a80       ?ApplyTransform@brotli@@YA?AV?$basic_string@DU?$char_traits@D@std@@V?$allocator@D@2@@std@@AEBUTransform@1@PEBEH@Z 0000000180024a80 f i encode.obj
 0001:00023eb0       ??0StaticDictionary@brotli@@QEAA@XZ 0000000180024eb0 f i encode.obj
 0001:00023f70       ?Fill@StaticDictionary@brotli@@QEAAX_N@Z 0000000180024f70 f i encode.obj
 0001:00024100       ?Insert@StaticDictionary@brotli@@QEAAXAEBV?$basic_string@DU?$char_traits@D@std@@V?$allocator@D@2@@std@@HH@Z 0000000180025100 f i encode.obj
 0001:00024450       ?Init@Hashers@brotli@@QEAAXH@Z 0000000180025450 f i encode.obj
 0001:000247d0       ?Write@RingBuffer@brotli@@QEAAXPEBE_K@Z 00000001800257d0 f i encode.obj
 0001:000248b0       ??_GBrotliOut@brotli@@UEAAPEAXI@Z 00000001800258b0 f i encode.obj
 0001:000248b0       ??_GBrotliIn@brotli@@UEAAPEAXI@Z 00000001800258b0 f i encode.obj
 0001:000248b0       ??_EBrotliIn@brotli@@UEAAPEAXI@Z 00000001800258b0 f i * CIL library *:* CIL module *
 0001:000248b0       ??_EBrotliOut@brotli@@UEAAPEAXI@Z 00000001800258b0 f i * CIL library *:* CIL module *
 0001:000249f0       ?IsMostlyUTF8@brotli@@YA_NPEBE_KN@Z 00000001800259f0 f   encode.obj
 0001:00024bc0       ?RecomputeDistancePrefixes@brotli@@YAXPEAUCommand@1@_KHH@Z 0000000180025bc0 f   encode.obj
 0001:00024c70       ??0BrotliCompressor@brotli@@QEAA@UBrotliParams@1@@Z 0000000180025c70 f   encode.obj
 0001:00025010       ?WriteBrotliData@BrotliCompressor@brotli@@QEAA_N_N0PEA_KPEAPEAE@Z 0000000180026010 f   encode.obj
 0001:00025280       ?WriteMetaBlockInternal@BrotliCompressor@brotli@@AEAA_N_N0PEA_KPEAPEAE@Z 0000000180026280 f   encode.obj
 0001:000257f0       ?BrotliCompressBuffer@brotli@@YAHUBrotliParams@1@_KPEBEPEA_KPEAE@Z 00000001800267f0 f   encode.obj
 0001:00025950       ?CopyOneBlockToRingBuffer@brotli@@YA_KPEAVBrotliIn@1@PEAVBrotliCompressor@1@@Z 0000000180026950 f   encode.obj
 0001:00025a60       ?BrotliCompress@brotli@@YAHUBrotliParams@1@PEAVBrotliIn@1@PEAVBrotliOut@1@@Z 0000000180026a60 f   encode.obj
 0001:00025bf0       ??1MetaBlockSplit@brotli@@QEAA@XZ 0000000180026bf0 f i encode.obj
 0001:00025e60       ?append@?$basic_string@DU?$char_traits@D@std@@V?$allocator@D@2@@std@@QEAAAEAV12@AEBV12@_K1@Z 0000000180026e60 f i encode.obj
 0001:00025f60       ??1Hashers@brotli@@QEAA@XZ 0000000180026f60 f i encode.obj
 0001:00026020       ?_Init@?$_Hash@V?$_Umap_traits@V?$basic_string@DU?$char_traits@D@std@@V?$allocator@D@2@@std@@HV?$_Uhash_compare@V?$basic_string@DU?$char_traits@D@std@@V?$allocator@D@2@@std@@U?$hash@V?$basic_string@DU?$char_traits@D@std@@V?$allocator@D@2@@std@@@2@U?$equal_to@V?$basic_string@DU?$char_traits@D@std@@V?$allocator@D@2@@std@@@2@@2@V?$allocator@U?$pair@$$CBV?$basic_string@DU?$char_traits@D@std@@V?$allocator@D@2@@std@@H@std@@@2@$0A@@std@@@std@@IEAAX_K@Z 0000000180027020 f i encode.obj
 0001:00026020       ?_Init@?$_Hash@V?$_Umap_traits@IHV?$_Uhash_compare@IU?$hash@I@std@@U?$equal_to@I@2@@std@@V?$allocator@U?$pair@$$CBIH@std@@@2@$0A@@std@@@std@@IEAAX_K@Z 0000000180027020 f i encode.obj
 0001:000260c0       ?append@?$basic_string@DU?$char_traits@D@std@@V?$allocator@D@2@@std@@QEAAAEAV12@_KD@Z 00000001800270c0 f i encode.obj
 0001:000261b0       ?deallocate@?$_Wrap_alloc@U?$_Wrap_alloc@V?$allocator@V?$_List_unchecked_iterator@V?$_List_val@U?$_List_simple_types@U?$pair@$$CBIH@std@@@std@@@std@@@std@@@std@@@std@@@std@@QEAAXPEAV?$_List_unchecked_iterator@V?$_List_val@U?$_List_simple_types@U?$pair@$$CBIH@std@@@std@@@std@@@2@_K@Z 00000001800271b0 f i encode.obj
 0001:000261b0       ?deallocate@?$_Wrap_alloc@U?$_Wrap_alloc@V?$allocator@V?$_List_unchecked_iterator@V?$_List_val@U?$_List_simple_types@U?$pair@$$CBV?$basic_string@DU?$char_traits@D@std@@V?$allocator@D@2@@std@@H@std@@@std@@@std@@@std@@@std@@@std@@@std@@QEAAXPEAV?$_List_unchecked_iterator@V?$_List_val@U?$_List_simple_types@U?$pair@$$CBV?$basic_string@DU?$char_traits@D@std@@V?$allocator@D@2@@std@@H@std@@@std@@@std@@@2@_K@Z 00000001800271b0 f i encode.obj
 0001:000261b0       ?deallocate@?$_Wrap_alloc@V?$allocator@UHuffmanTree@?A0x1969e686@brotli@@@std@@@std@@QEAAXPEAUHuffmanTree@?A0x1969e686@brotli@@_K@Z 00000001800271b0 f i entropy_encode.obj
 0001:00026220       ?_Reallocate@?$vector@UHuffmanTree@?A0x1969e686@brotli@@V?$allocator@UHuffmanTree@?A0x1969e686@brotli@@@std@@@std@@IEAAX_K@Z 0000000180027220 f i entropy_encode.obj
 0001:00026220       ?_Reallocate@?$vector@V?$_List_unchecked_iterator@V?$_List_val@U?$_List_simple_types@U?$pair@$$CBV?$basic_string@DU?$char_traits@D@std@@V?$allocator@D@2@@std@@H@std@@@std@@@std@@@std@@U?$_Wrap_alloc@V?$allocator@V?$_List_unchecked_iterator@V?$_List_val@U?$_List_simple_types@U?$pair@$$CBV?$basic_string@DU?$char_traits@D@std@@V?$allocator@D@2@@std@@H@std@@@std@@@std@@@std@@@std@@@2@@std@@IEAAX_K@Z 0000000180027220 f i encode.obj
 0001:00026220       ?_Reallocate@?$vector@V?$_List_unchecked_iterator@V?$_List_val@U?$_List_simple_types@U?$pair@$$CBIH@std@@@std@@@std@@@std@@U?$_Wrap_alloc@V?$allocator@V?$_List_unchecked_iterator@V?$_List_val@U?$_List_simple_types@U?$pair@$$CBIH@std@@@std@@@std@@@std@@@std@@@2@@std@@IEAAX_K@Z 0000000180027220 f i encode.obj
 0001:00026330       ?allocate@?$_Wrap_alloc@U?$_Wrap_alloc@V?$allocator@V?$_List_unchecked_iterator@V?$_List_val@U?$_List_simple_types@U?$pair@$$CBV?$basic_string@DU?$char_traits@D@std@@V?$allocator@D@2@@std@@H@std@@@std@@@std@@@std@@@std@@@std@@@std@@QEAAPEAV?$_List_unchecked_iterator@V?$_List_val@U?$_List_simple_types@U?$pair@$$CBV?$basic_string@DU?$char_traits@D@std@@V?$allocator@D@2@@std@@H@std@@@std@@@std@@@2@_K@Z 0000000180027330 f i encode.obj
 0001:00026330       ?allocate@?$_Wrap_alloc@U?$_Wrap_alloc@V?$allocator@V?$_List_unchecked_iterator@V?$_List_val@U?$_List_simple_types@U?$pair@$$CBIH@std@@@std@@@std@@@std@@@std@@@std@@@std@@QEAAPEAV?$_List_unchecked_iterator@V?$_List_val@U?$_List_simple_types@U?$pair@$$CBIH@std@@@std@@@std@@@2@_K@Z 0000000180027330 f i encode.obj
 0001:000263a0       ?_Insert_n@?$vector@V?$_List_unchecked_iterator@V?$_List_val@U?$_List_simple_types@U?$pair@$$CBV?$basic_string@DU?$char_traits@D@std@@V?$allocator@D@2@@std@@H@std@@@std@@@std@@@std@@U?$_Wrap_alloc@V?$allocator@V?$_List_unchecked_iterator@V?$_List_val@U?$_List_simple_types@U?$pair@$$CBV?$basic_string@DU?$char_traits@D@std@@V?$allocator@D@2@@std@@H@std@@@std@@@std@@@std@@@std@@@2@@std@@IEAA?AV?$_Vector_iterator@V?$_Vector_val@U?$_Simple_types@V?$_List_unchecked_iterator@V?$_List_val@U?$_List_simple_types@U?$pair@$$CBV?$basic_string@DU?$char_traits@D@std@@V?$allocator@D@2@@std@@H@std@@@std@@@std@@@std@@@std@@@std@@@2@V?$_Vector_const_iterator@V?$_Vector_val@U?$_Simple_types@V?$_List_unchecked_iterator@V?$_List_val@U?$_List_simple_types@U?$pair@$$CBV?$basic_string@DU?$char_traits@D@std@@V?$allocator@D@2@@std@@H@std@@@std@@@std@@@std@@@std@@@std@@@2@_KAEBV?$_List_unchecked_iterator@V?$_List_val@U?$_List_simple_types@U?$pair@$$CBV?$basic_string@DU?$char_traits@D@std@@V?$allocator@D@2@@std@@H@std@@@std@@@std@@@2@@Z 00000001800273a0 f i encode.obj
 0001:000263a0       ?_Insert_n@?$vector@V?$_List_unchecked_iterator@V?$_List_val@U?$_List_simple_types@U?$pair@$$CBIH@std@@@std@@@std@@@std@@U?$_Wrap_alloc@V?$allocator@V?$_List_unchecked_iterator@V?$_List_val@U?$_List_simple_types@U?$pair@$$CBIH@std@@@std@@@std@@@std@@@std@@@2@@std@@IEAA?AV?$_Vector_iterator@V?$_Vector_val@U?$_Simple_types@V?$_List_unchecked_iterator@V?$_List_val@U?$_List_simple_types@U?$pair@$$CBIH@std@@@std@@@std@@@std@@@std@@@std@@@2@V?$_Vector_const_iterator@V?$_Vector_val@U?$_Simple_types@V?$_List_unchecked_iterator@V?$_List_val@U?$_List_simple_types@U?$pair@$$CBIH@std@@@std@@@std@@@std@@@std@@@std@@@2@_KAEBV?$_List_unchecked_iterator@V?$_List_val@U?$_List_simple_types@U?$pair@$$CBIH@std@@@std@@@std@@@2@@Z 00000001800273a0 f i encode.obj
 0001:00026690       ??$_Umove@PEAV?$_List_unchecked_iterator@V?$_List_val@U?$_List_simple_types@U?$pair@$$CBV?$basic_string@DU?$char_traits@D@std@@V?$allocator@D@2@@std@@H@std@@@std@@@std@@@std@@@?$vector@V?$_List_unchecked_iterator@V?$_List_val@U?$_List_simple_types@U?$pair@$$CBV?$basic_string@DU?$char_traits@D@std@@V?$allocator@D@2@@std@@H@std@@@std@@@std@@@std@@U?$_Wrap_alloc@V?$allocator@V?$_List_unchecked_iterator@V?$_List_val@U?$_List_simple_types@U?$pair@$$CBV?$basic_string@DU?$char_traits@D@std@@V?$allocator@D@2@@std@@H@std@@@std@@@std@@@std@@@std@@@2@@std@@IEAAPEAV?$_List_unchecked_iterator@V?$_List_val@U?$_List_simple_types@U?$pair@$$CBV?$basic_string@DU?$char_traits@D@std@@V?$allocator@D@2@@std@@H@std@@@std@@@std@@@1@PEAV21@00@Z 0000000180027690 f i encode.obj
 0001:00026690       ??$_Umove@PEAV?$_List_unchecked_iterator@V?$_List_val@U?$_List_simple_types@U?$pair@$$CBIH@std@@@std@@@std@@@std@@@?$vector@V?$_List_unchecked_iterator@V?$_List_val@U?$_List_simple_types@U?$pair@$$CBIH@std@@@std@@@std@@@std@@U?$_Wrap_alloc@V?$allocator@V?$_List_unchecked_iterator@V?$_List_val@U?$_List_simple_types@U?$pair@$$CBIH@std@@@std@@@std@@@std@@@std@@@2@@std@@IEAAPEAV?$_List_unchecked_iterator@V?$_List_val@U?$_List_simple_types@U?$pair@$$CBIH@std@@@std@@@std@@@1@PEAV21@00@Z 0000000180027690 f i encode.obj
 0001:000266d0       ??$_Try_emplace@AEBV?$basic_string@DU?$char_traits@D@std@@V?$allocator@D@2@@std@@$$V@?$unordered_map@V?$basic_string@DU?$char_traits@D@std@@V?$allocator@D@2@@std@@HU?$hash@V?$basic_string@DU?$char_traits@D@std@@V?$allocator@D@2@@std@@@2@U?$equal_to@V?$basic_string@DU?$char_traits@D@std@@V?$allocator@D@2@@std@@@2@V?$allocator@U?$pair@$$CBV?$basic_string@DU?$char_traits@D@std@@V?$allocator@D@2@@std@@H@std@@@2@@std@@QEAA?AU?$pair@V?$_List_iterator@V?$_List_val@U?$_List_simple_types@U?$pair@$$CBV?$basic_string@DU?$char_traits@D@std@@V?$allocator@D@2@@std@@H@std@@@std@@@std@@@std@@_N@1@AEBV?$basic_string@DU?$char_traits@D@std@@V?$allocator@D@2@@1@@Z 00000001800276d0 f i encode.obj
 0001:00026800       ??$_Insert@AEAU?$pair@$$CBIH@std@@V?$_List_unchecked_iterator@V?$_List_val@U?$_List_simple_types@U?$pair@$$CBIH@std@@@std@@@std@@@2@@?$_Hash@V?$_Umap_traits@IHV?$_Uhash_compare@IU?$hash@I@std@@U?$equal_to@I@2@@std@@V?$allocator@U?$pair@$$CBIH@std@@@2@$0A@@std@@@std@@IEAA?AU?$pair@V?$_List_iterator@V?$_List_val@U?$_List_simple_types@U?$pair@$$CBIH@std@@@std@@@std@@@std@@_N@1@AEAU?$pair@$$CBIH@1@V?$_List_unchecked_iterator@V?$_List_val@U?$_List_simple_types@U?$pair@$$CBIH@std@@@std@@@std@@@1@@Z 0000000180027800 f i encode.obj
 0001:00026980       ??$_Insert@AEAU?$pair@$$CBV?$basic_string@DU?$char_traits@D@std@@V?$allocator@D@2@@std@@H@std@@V?$_List_unchecked_iterator@V?$_List_val@U?$_List_simple_types@U?$pair@$$CBV?$basic_string@DU?$char_traits@D@std@@V?$allocator@D@2@@std@@H@std@@@std@@@std@@@2@@?$_Hash@V?$_Umap_traits@V?$basic_string@DU?$char_traits@D@std@@V?$allocator@D@2@@std@@HV?$_Uhash_compare@V?$basic_string@DU?$char_traits@D@std@@V?$allocator@D@2@@std@@U?$hash@V?$basic_string@DU?$char_traits@D@std@@V?$allocator@D@2@@std@@@2@U?$equal_to@V?$basic_string@DU?$char_traits@D@std@@V?$allocator@D@2@@std@@@2@@2@V?$allocator@U?$pair@$$CBV?$basic_string@DU?$char_traits@D@std@@V?$allocator@D@2@@std@@H@std@@@2@$0A@@std@@@std@@IEAA?AU?$pair@V?$_List_iterator@V?$_List_val@U?$_List_simple_types@U?$pair@$$CBV?$basic_string@DU?$char_traits@D@std@@V?$allocator@D@2@@std@@H@std@@@std@@@std@@@std@@_N@1@AEAU?$pair@$$CBV?$basic_string@DU?$char_traits@D@std@@V?$allocator@D@2@@std@@H@1@V?$_List_unchecked_iterator@V?$_List_val@U?$_List_simple_types@U?$pair@$$CBV?$basic_string@DU?$char_traits@D@std@@V?$allocator@D@2@@std@@H@std@@@std@@@std@@@1@@Z 0000000180027980 f i encode.obj
 0001:00026b70       ?_Check_size@?$_Hash@V?$_Umap_traits@IHV?$_Uhash_compare@IU?$hash@I@std@@U?$equal_to@I@2@@std@@V?$allocator@U?$pair@$$CBIH@std@@@2@$0A@@std@@@std@@IEAAXXZ 0000000180027b70 f i encode.obj
 0001:00026c30       ?_Check_size@?$_Hash@V?$_Umap_traits@V?$basic_string@DU?$char_traits@D@std@@V?$allocator@D@2@@std@@HV?$_Uhash_compare@V?$basic_string@DU?$char_traits@D@std@@V?$allocator@D@2@@std@@U?$hash@V?$basic_string@DU?$char_traits@D@std@@V?$allocator@D@2@@std@@@2@U?$equal_to@V?$basic_string@DU?$char_traits@D@std@@V?$allocator@D@2@@std@@@2@@2@V?$allocator@U?$pair@$$CBV?$basic_string@DU?$char_traits@D@std@@V?$allocator@D@2@@std@@H@std@@@2@$0A@@std@@@std@@IEAAXXZ 0000000180027c30 f i encode.obj
 0001:00026d90       ?CreateHuffmanTree@brotli@@YAXPEBHHHPEAE@Z 0000000180027d90 f   entropy_encode.obj
 0001:00027810       ?WriteHuffmanTreeRepetitions@brotli@@YAXHHHPEAV?$vector@EV?$allocator@E@std@@@std@@0@Z 0000000180028810 f   entropy_encode.obj
 0001:00027e20       ?WriteHuffmanTreeRepetitionsZeros@brotli@@YAXHPEAV?$vector@EV?$allocator@E@std@@@std@@0@Z 0000000180028e20 f   entropy_encode.obj
 0001:00028340       ?OptimizeHuffmanCountsForRle@brotli@@YAHHPEAH@Z 0000000180029340 f   entropy_encode.obj
 0001:00028880       ?WriteHuffmanTree@brotli@@YAXPEBEIPEAV?$vector@EV?$allocator@E@std@@@std@@1@Z 0000000180029880 f   entropy_encode.obj
 0001:00028a20       ?ConvertBitDepthsToSymbols@brotli@@YAXPEBEHPEAG@Z 0000000180029a20 f   entropy_encode.obj
 0001:00028b60       ??$_Stable_sort_unchecked1@PEAUHuffmanTree@?A0x1969e686@brotli@@_JU123@P6A_NAEBU123@0@Z@std@@YAXPEAUHuffmanTree@?A0x1969e686@brotli@@0_JAEAV?$_Temp_iterator@UHuffmanTree@?A0x1969e686@brotli@@@0@AEAP6A_NAEBU123@3@Z@Z 0000000180029b60 f i entropy_encode.obj
 0001:00028c60       ?_Maxlen@?$_Temp_iterator@UHuffmanTree@?A0x1969e686@brotli@@@std@@QEAA_JXZ 0000000180029c60 f i entropy_encode.obj
 0001:00028d10       ??$_Insertion_sort_unchecked@PEAUHuffmanTree@?A0x1969e686@brotli@@P6A_NAEBU123@0@Z@std@@YAXPEAUHuffmanTree@?A0x1969e686@brotli@@0AEAP6A_NAEBU123@1@Z@Z 0000000180029d10 f i entropy_encode.obj
 0001:00028df0       ??$_Buffered_merge_sort_unchecked@PEAUHuffmanTree@?A0x1969e686@brotli@@_JU123@P6A_NAEBU123@0@Z@std@@YAXPEAUHuffmanTree@?A0x1969e686@brotli@@0_JAEAV?$_Temp_iterator@UHuffmanTree@?A0x1969e686@brotli@@@0@AEAP6A_NAEBU123@3@Z@Z 0000000180029df0 f i entropy_encode.obj
 0001:00028f00       ??$_Buffered_merge_unchecked@PEAUHuffmanTree@?A0x1969e686@brotli@@_JU123@P6A_NAEBU123@0@Z@std@@YAXPEAUHuffmanTree@?A0x1969e686@brotli@@00_J1AEAV?$_Temp_iterator@UHuffmanTree@?A0x1969e686@brotli@@@0@AEAP6A_NAEBU123@3@Z@Z 0000000180029f00 f i entropy_encode.obj
 0001:00029270       ??$_Chunked_merge_unchecked@PEAUHuffmanTree@?A0x1969e686@brotli@@V?$_Temp_iterator@UHuffmanTree@?A0x1969e686@brotli@@@std@@_JP6A_NAEBU123@0@Z@std@@YAXPEAUHuffmanTree@?A0x1969e686@brotli@@0V?$_Temp_iterator@UHuffmanTree@?A0x1969e686@brotli@@@0@_J2AEAP6A_NAEBU123@3@Z@Z 000000018002a270 f i entropy_encode.obj
 0001:00029440       ??$_Chunked_merge_unchecked@PEAUHuffmanTree@?A0x1969e686@brotli@@PEAU123@_JP6A_NAEBU123@0@Z@std@@YAXPEAUHuffmanTree@?A0x1969e686@brotli@@00_J1AEAP6A_NAEBU123@2@Z@Z 000000018002a440 f i entropy_encode.obj
 0001:000295c0       ??$_Buffered_merge_unchecked@PEAUHuffmanTree@?A0x1969e686@brotli@@PEAU123@PEAU123@P6A_NAEBU123@0@Z@std@@YAPEAUHuffmanTree@?A0x1969e686@brotli@@PEAU123@0000AEAP6A_NAEBU123@1@Z_N@Z 000000018002a5c0 f i entropy_encode.obj
 0001:00029690       ??$_Buffered_merge_backward_unchecked@PEAUHuffmanTree@?A0x1969e686@brotli@@PEAU123@PEAU123@P6A_NAEBU123@0@Z@std@@YAPEAUHuffmanTree@?A0x1969e686@brotli@@PEAU123@0000AEAP6A_NAEBU123@1@Z_N@Z 000000018002a690 f i entropy_encode.obj
 0001:00029750       ??$_Lower_bound_unchecked@PEAUHuffmanTree@?A0x1969e686@brotli@@U123@P6A_NAEBU123@0@Z@std@@YAPEAUHuffmanTree@?A0x1969e686@brotli@@PEAU123@0AEBU123@AEAP6A_N11@Z@Z 000000018002a750 f i entropy_encode.obj
 0001:000297e0       ??$_Upper_bound_unchecked@PEAUHuffmanTree@?A0x1969e686@brotli@@U123@P6A_NAEBU123@0@Z@std@@YAPEAUHuffmanTree@?A0x1969e686@brotli@@PEAU123@0AEBU123@AEAP6A_N11@Z@Z 000000018002a7e0 f i entropy_encode.obj
 0001:00029870       ??$_Buffered_rotate_unchecked@PEAUHuffmanTree@?A0x1969e686@brotli@@_JU123@@std@@YAPEAUHuffmanTree@?A0x1969e686@brotli@@PEAU123@00_J1AEAV?$_Temp_iterator@UHuffmanTree@?A0x1969e686@brotli@@@0@@Z 000000018002a870 f i entropy_encode.obj
 0001:00029a70       ??$_Buffered_merge_unchecked@PEAUHuffmanTree@?A0x1969e686@brotli@@PEAU123@V?$_Temp_iterator@UHuffmanTree@?A0x1969e686@brotli@@@std@@P6A_NAEBU123@0@Z@std@@YA?AV?$_Temp_iterator@UHuffmanTree@?A0x1969e686@brotli@@@0@PEAUHuffmanTree@?A0x1969e686@brotli@@000V10@AEAP6A_NAEBU234@2@Z_N@Z 000000018002aa70 f i entropy_encode.obj
 0001:00029c70       ??$_Rotate_unchecked1@PEAUHuffmanTree@?A0x1969e686@brotli@@@std@@YAPEAUHuffmanTree@?A0x1969e686@brotli@@PEAU123@00Urandom_access_iterator_tag@0@@Z 000000018002ac70 f i entropy_encode.obj
 0001:00029d30       ?BuildHistograms@brotli@@YAXPEBUCommand@1@_KAEBVBlockSplit@1@22PEBE_K4EEAEBV?$vector@HV?$allocator@H@std@@@std@@PEAV?$vector@U?$Histogram@$0BAA@@brotli@@V?$allocator@U?$Histogram@$0BAA@@brotli@@@std@@@5@PEAV?$vector@U?$Histogram@$0CMA@@brotli@@V?$allocator@U?$Histogram@$0CMA@@brotli@@@std@@@5@PEAV?$vector@U?$Histogram@$0CAI@@brotli@@V?$allocator@U?$Histogram@$0CAI@@brotli@@@std@@@5@@Z 000000018002ad30 f   histogram.obj
 0001:0002a130       ?EstimateBitCostsForLiteralsUTF8@brotli@@YAX_K000PEBEPEAM@Z 000000018002b130 f   literal_cost.obj
 0001:0002a630       ?EstimateBitCostsForLiterals@brotli@@YAX_K000PEBEPEAM@Z 000000018002b630 f   literal_cost.obj
 0001:0002a9c0       ?BuildMetaBlock@brotli@@YAXPEBE_K1EEPEBUCommand@1@_KH_NPEAUMetaBlockSplit@1@@Z 000000018002b9c0 f   metablock.obj
 0001:0002ad40       ?BuildMetaBlockGreedy@brotli@@YAXPEBE_K1PEBUCommand@1@1PEAUMetaBlockSplit@1@@Z 000000018002bd40 f   metablock.obj
 0001:0002b1b0       ?OptimizeHistograms@brotli@@YAXHHPEAUMetaBlockSplit@1@@Z 000000018002c1b0 f   metablock.obj
 0001:0002b370       ?FinishBlock@?$BlockSplitter@U?$Histogram@$0CAI@@brotli@@@brotli@@QEAAX_N@Z 000000018002c370 f i metablock.obj
 0001:0002b8b0       ?FinishBlock@?$BlockSplitter@U?$Histogram@$0CMA@@brotli@@@brotli@@QEAAX_N@Z 000000018002c8b0 f i metablock.obj
 0001:0002bdd0       ?FinishBlock@?$BlockSplitter@U?$Histogram@$0BAA@@brotli@@@brotli@@QEAAX_N@Z 000000018002cdd0 f i metablock.obj
 0001:0002c2e0       ??4?$vector@U?$Histogram@$0CAI@@brotli@@V?$allocator@U?$Histogram@$0CAI@@brotli@@@std@@@std@@QEAAAEAV01@AEBV01@@Z 000000018002d2e0 f i metablock.obj
 0001:0002c450       ??4?$vector@U?$Histogram@$0BAA@@brotli@@V?$allocator@U?$Histogram@$0BAA@@brotli@@@std@@@std@@QEAAAEAV01@AEBV01@@Z 000000018002d450 f i metablock.obj
 0001:0002c5c0       ??$ClusterHistogramsTrivial@U?$Histogram@$0BAA@@brotli@@@brotli@@YAXAEBV?$vector@U?$Histogram@$0BAA@@brotli@@V?$allocator@U?$Histogram@$0BAA@@brotli@@@std@@@std@@HHHPEAV12@PEAV?$vector@HV?$allocator@H@std@@@2@@Z 000000018002d5c0 f i metablock.obj
 0001:0002c880       ??$ClusterHistogramsTrivial@U?$Histogram@$0CAI@@brotli@@@brotli@@YAXAEBV?$vector@U?$Histogram@$0CAI@@brotli@@V?$allocator@U?$Histogram@$0CAI@@brotli@@@std@@@std@@HHHPEAV12@PEAV?$vector@HV?$allocator@H@std@@@2@@Z 000000018002d880 f i metablock.obj
 0001:0002cb40       ??_GBrotliMemOut@brotli@@UEAAPEAXI@Z 000000018002db40 f i streams.obj
 0001:0002cb40       ??_GBrotliMemIn@brotli@@UEAAPEAXI@Z 000000018002db40 f i streams.obj
 0001:0002cb40       ??_EBrotliMemOut@brotli@@UEAAPEAXI@Z 000000018002db40 f i * CIL library *:* CIL module *
 0001:0002cb40       ??_EBrotliMemIn@brotli@@UEAAPEAXI@Z 000000018002db40 f i * CIL library *:* CIL module *
 0001:0002cb70       ?Write@BrotliMemOut@brotli@@UEAA_NPEBX_K@Z 000000018002db70 f   streams.obj
 0001:0002cbc0       ?Read@BrotliMemIn@brotli@@UEAAPEBX_KPEA_K@Z 000000018002dbc0 f   streams.obj
 0001:0002cc3c       __imp_load_?Value@External@v8@@QEBAPEAXXZ 000000018002dc3c f   node:node.exe
 0001:0002cc48       __tailMerge_node_exe       000000018002dc48 f i node:node.exe
 0001:0002ccc1       __imp_load_?New@External@v8@@SA?AV?$Local@VExternal@v8@@@2@PEAVIsolate@2@PEAX@Z 000000018002dcc1 f   node:node.exe
 0001:0002cccd       __imp_load_?ThrowException@Isolate@v8@@QEAA?AV?$Local@VValue@v8@@@2@V32@@Z 000000018002dccd f   node:node.exe
 0001:0002ccd9       __imp_load_?GetCurrentContext@Isolate@v8@@QEAA?AV?$Local@VContext@v8@@@2@XZ 000000018002dcd9 f   node:node.exe
 0001:0002cce5       __imp_load_?GetCurrent@Isolate@v8@@SAPEAV12@XZ 000000018002dce5 f   node:node.exe
 0001:0002ccf1       __imp_load_?CreateHandle@HandleScope@v8@@KAPEAPEAVObject@internal@2@PEAVIsolate@42@PEAV342@@Z 000000018002dcf1 f   node:node.exe
 0001:0002ccfd       __imp_load_?CreateHandle@HandleScope@v8@@CAPEAPEAVObject@internal@2@PEAVHeapObject@42@PEAV342@@Z 000000018002dcfd f   node:node.exe
 0001:0002cd09       __imp_load_??1HandleScope@v8@@QEAA@XZ 000000018002dd09 f   node:node.exe
 0001:0002cd15       __imp_load_??0HandleScope@v8@@QEAA@PEAVIsolate@1@@Z 000000018002dd15 f   node:node.exe
 0001:0002cd21       __imp_load_?Error@Exception@v8@@SA?AV?$Local@VValue@v8@@@2@V?$Local@VString@v8@@@2@@Z 000000018002dd21 f   node:node.exe
 0001:0002cd2d       __imp_load_?TypeError@Exception@v8@@SA?AV?$Local@VValue@v8@@@2@V?$Local@VString@v8@@@2@@Z 000000018002dd2d f   node:node.exe
 0001:0002cd39       __imp_load_?GetFunction@FunctionTemplate@v8@@QEAA?AV?$MaybeLocal@VFunction@v8@@@2@V?$Local@VContext@v8@@@2@@Z 000000018002dd39 f   node:node.exe
 0001:0002cd45       __imp_load_?New@FunctionTemplate@v8@@SA?AV?$Local@VFunctionTemplate@v8@@@2@PEAVIsolate@2@P6AXAEBV?$FunctionCallbackInfo@VValue@v8@@@2@@ZV?$Local@VValue@v8@@@2@V?$Local@VSignature@v8@@@2@H@Z 000000018002dd45 f   node:node.exe
 0001:0002cd51       __imp_load_?ToLocalEmpty@V8@v8@@CAXXZ 000000018002dd51 f   node:node.exe
 0001:0002cd5d       __imp_load_?Escape@EscapableHandleScope@v8@@AEAAPEAPEAVObject@internal@2@PEAPEAV342@@Z 000000018002dd5d f   node:node.exe
 0001:0002cd69       __imp_load_??0EscapableHandleScope@v8@@QEAA@PEAVIsolate@1@@Z 000000018002dd69 f   node:node.exe
 0001:0002cd75       __imp_load_?NewFromUtf8@String@v8@@SA?AV?$MaybeLocal@VString@v8@@@2@PEAVIsolate@2@PEBDW4NewStringType@2@H@Z 000000018002dd75 f   node:node.exe
 0001:0002cd81       __imp_load_?SlowGetInternalField@Object@v8@@AEAA?AV?$Local@VValue@v8@@@2@H@Z 000000018002dd81 f   node:node.exe
 0001:0002cd8d       __imp_load_?SetInternalField@Object@v8@@QEAAXHV?$Local@VValue@v8@@@2@@Z 000000018002dd8d f   node:node.exe
 0001:0002cd99       __imp_load_?Set@Object@v8@@QEAA?AV?$Maybe@_N@2@V?$Local@VContext@v8@@@2@V?$Local@VValue@v8@@@2@1@Z 000000018002dd99 f   node:node.exe
 0001:0002cda5       __imp_load_?SetInternalFieldCount@ObjectTemplate@v8@@QEAAXH@Z 000000018002dda5 f   node:node.exe
 0001:0002cdb1       __imp_load_?NewInstance@ObjectTemplate@v8@@QEAA?AV?$MaybeLocal@VObject@v8@@@2@V?$Local@VContext@v8@@@2@@Z 000000018002ddb1 f   node:node.exe
 0001:0002cdbd       __imp_load_?New@ObjectTemplate@v8@@SA?AV?$Local@VObjectTemplate@v8@@@2@PEAVIsolate@2@V?$Local@VFunctionTemplate@v8@@@2@@Z 000000018002ddbd f   node:node.exe
 0001:0002cdc9       __imp_load_node_module_register 000000018002ddc9 f   node:node.exe
 0001:0002cdd5       __imp_load_?HasInstance@Buffer@node@@YA_NV?$Local@VObject@v8@@@v8@@@Z 000000018002ddd5 f   node:node.exe
 0001:0002cde1       __imp_load_?New@Buffer@node@@YA?AV?$MaybeLocal@VObject@v8@@@v8@@PEAVIsolate@4@PEAD_K@Z 000000018002dde1 f   node:node.exe
 0001:0002cded       __imp_load_?Data@Buffer@node@@YAPEADV?$Local@VObject@v8@@@v8@@@Z 000000018002dded f   node:node.exe
 0001:0002cdf9       __imp_load_?Length@Buffer@node@@YA_KV?$Local@VObject@v8@@@v8@@@Z 000000018002ddf9 f   node:node.exe
 0001:0002ce05       __imp_load_?ToObject@Value@v8@@QEBA?AV?$Local@VObject@v8@@@2@XZ 000000018002de05 f   node:node.exe
 0001:0002ce14       ??0bad_alloc@std@@QEAA@AEBV01@@Z 000000018002de14 f i libcpmt:xthrow.obj
 0001:0002ce54       ??0bad_alloc@std@@QEAA@XZ  000000018002de54 f i libcpmt:xthrow.obj
 0001:0002ce74       ??0exception@std@@QEAA@AEBV01@@Z 000000018002de74 f i libcpmt:xthrow.obj
 0001:0002ceac       ??0length_error@std@@QEAA@AEBV01@@Z 000000018002deac f i libcpmt:xthrow.obj
 0001:0002ceec       ??0length_error@std@@QEAA@PEBD@Z 000000018002deec f i libcpmt:xthrow.obj
 0001:0002cf38       ??0logic_error@std@@QEAA@AEBV01@@Z 000000018002df38 f i libcpmt:xthrow.obj
 0001:0002cf78       ??0out_of_range@std@@QEAA@AEBV01@@Z 000000018002df78 f i libcpmt:xthrow.obj
 0001:0002cfb8       ??0out_of_range@std@@QEAA@PEBD@Z 000000018002dfb8 f i libcpmt:xthrow.obj
 0001:0002d004       ??_Elength_error@std@@UEAAPEAXI@Z 000000018002e004 f i libcpmt:xthrow.obj
 0001:0002d004       ??_Gout_of_range@std@@UEAAPEAXI@Z 000000018002e004 f i libcpmt:xthrow.obj
 0001:0002d004       ??_Glogic_error@std@@UEAAPEAXI@Z 000000018002e004 f i libcpmt:xthrow.obj
 0001:0002d004       ??_Ebad_exception@std@@UEAAPEAXI@Z 000000018002e004 f i libvcruntime:frame.obj
 0001:0002d004       ??_Gbad_exception@std@@UEAAPEAXI@Z 000000018002e004 f i libvcruntime:frame.obj
 0001:0002d004       ??_Gbad_alloc@std@@UEAAPEAXI@Z 000000018002e004 f i libcpmt:xthrow.obj
 0001:0002d004       ??_Ebad_array_new_length@std@@UEAAPEAXI@Z 000000018002e004 f i LIBCMT:throw_bad_alloc.obj
 0001:0002d004       ??_Eout_of_range@std@@UEAAPEAXI@Z 000000018002e004 f i libcpmt:xthrow.obj
 0001:0002d004       ??_Gexception@std@@UEAAPEAXI@Z 000000018002e004 f i libcpmt:xthrow.obj
 0001:0002d004       ??_Elogic_error@std@@UEAAPEAXI@Z 000000018002e004 f i libcpmt:xthrow.obj
 0001:0002d004       ??_Ebad_alloc@std@@UEAAPEAXI@Z 000000018002e004 f i libcpmt:xthrow.obj
 0001:0002d004       ??_Eexception@std@@UEAAPEAXI@Z 000000018002e004 f i libcpmt:xthrow.obj
 0001:0002d004       ??_Glength_error@std@@UEAAPEAXI@Z 000000018002e004 f i libcpmt:xthrow.obj
 0001:0002d004       ??_Gbad_array_new_length@std@@UEAAPEAXI@Z 000000018002e004 f i LIBCMT:throw_bad_alloc.obj
 0001:0002d048       ?__scrt_throw_std_bad_alloc@@YAXXZ 000000018002e048 f   LIBCMT:throw_bad_alloc.obj
 0001:0002d048       ?_Xbad_alloc@std@@YAXXZ    000000018002e048 f   libcpmt:xthrow.obj
 0001:0002d068       ?_Xlength_error@std@@YAXPEBD@Z 000000018002e068 f   libcpmt:xthrow.obj
 0001:0002d08c       ?_Xout_of_range@std@@YAXPEBD@Z 000000018002e08c f   libcpmt:xthrow.obj
 0001:0002d0b0       ?what@exception@std@@UEBAPEBDXZ 000000018002e0b0 f i libcpmt:xthrow.obj
 0001:0002d0e0       __security_check_cookie    000000018002e0e0 f   LIBCMT:_amdsecgs_.obj
 0001:0002d104       ??2@YAPEAX_K@Z             000000018002e104 f   LIBCMT:new_scalar.obj
 0001:0002d140       ??3@YAXPEAX@Z              000000018002e140 f   LIBCMT:delete_scalar.obj
 0001:0002d148       ??3@YAXPEAX_K@Z            000000018002e148 f   LIBCMT:delete_scalar_size.obj
 0001:0002d148       ??_V@YAXPEAX@Z             000000018002e148 f   LIBCMT:delete_array.obj
 0001:0002d150       ??_U@YAPEAX_K@Z            000000018002e150 f   LIBCMT:new_array.obj
 0001:0002d158       __raise_securityfailure    000000018002e158 f   LIBCMT:gs_report.obj
 0001:0002d18c       __report_gsfailure         000000018002e18c f   LIBCMT:gs_report.obj
 0001:0002d260       __report_rangecheckfailure 000000018002e260 f   LIBCMT:gs_report.obj
 0001:0002d274       __report_securityfailure   000000018002e274 f   LIBCMT:gs_report.obj
 0001:0002d53c       _Init_thread_footer        000000018002e53c f   LIBCMT:thread_safe_statics.obj
 0001:0002d59c       _Init_thread_header        000000018002e59c f   LIBCMT:thread_safe_statics.obj
 0001:0002d604       _Init_thread_notify        000000018002e604 f   LIBCMT:thread_safe_statics.obj
 0001:0002d660       _Init_thread_wait          000000018002e660 f   LIBCMT:thread_safe_statics.obj
 0001:0002d6f8       ??2@YAPEAX_KAEBUnothrow_t@std@@@Z 000000018002e6f8 f   LIBCMT:new_scalar_nothrow.obj
 0001:0002da64       _DllMainCRTStartup         000000018002ea64 f   LIBCMT:dll_dllmain.obj
 0001:0002daa4       ??_Etype_info@@UEAAPEAXI@Z 000000018002eaa4 f i LIBCMT:std_type_info_static.obj
 0001:0002daa4       ??_Gtype_info@@UEAAPEAXI@Z 000000018002eaa4 f i LIBCMT:std_type_info_static.obj
 0001:0002dad0       ??0bad_array_new_length@std@@QEAA@AEBV01@@Z 000000018002ead0 f i LIBCMT:throw_bad_alloc.obj
 0001:0002db10       ??0bad_array_new_length@std@@QEAA@XZ 000000018002eb10 f i LIBCMT:throw_bad_alloc.obj
 0001:0002db30       ?__scrt_throw_std_bad_array_new_length@@YAXXZ 000000018002eb30 f   LIBCMT:throw_bad_alloc.obj
 0001:0002db50       __scrt_acquire_startup_lock 000000018002eb50 f   LIBCMT:utility.obj
 0001:0002db8c       __scrt_dllmain_after_initialize_c 000000018002eb8c f   LIBCMT:utility.obj
 0001:0002dbc0       __scrt_dllmain_before_initialize_c 000000018002ebc0 f   LIBCMT:utility.obj
 0001:0002dbd8       __scrt_dllmain_crt_thread_attach 000000018002ebd8 f   LIBCMT:utility.obj
 0001:0002dc00       __scrt_dllmain_crt_thread_detach 000000018002ec00 f   LIBCMT:utility.obj
 0001:0002dc18       __scrt_dllmain_exception_filter 000000018002ec18 f   LIBCMT:utility.obj
 0001:0002dc7c       __scrt_dllmain_uninitialize_c 000000018002ec7c f   LIBCMT:utility.obj
 0001:0002dcac       __scrt_dllmain_uninitialize_critical 000000018002ecac f   LIBCMT:utility.obj
 0001:0002dcc0       __scrt_initialize_crt      000000018002ecc0 f   LIBCMT:utility.obj
 0001:0002dd0c       __scrt_initialize_onexit_tables 000000018002ed0c f   LIBCMT:utility.obj
 0001:0002ddd8       __scrt_is_nonwritable_in_current_image 000000018002edd8 f   LIBCMT:utility.obj
 0001:0002de74       __scrt_release_startup_lock 000000018002ee74 f   LIBCMT:utility.obj
 0001:0002de98       __scrt_uninitialize_crt    000000018002ee98 f   LIBCMT:utility.obj
 0001:0002dec4       _onexit                    000000018002eec4 f   LIBCMT:utility.obj
 0001:0002df14       atexit                     000000018002ef14 f   LIBCMT:utility.obj
 0001:0002df2c       __crt_debugger_hook        000000018002ef2c f   LIBCMT:utility_desktop.obj
 0001:0002df34       __scrt_fastfail            000000018002ef34 f   LIBCMT:utility_desktop.obj
 0001:0002e07c       _guard_check_icall         000000018002f07c f i LIBCMT:checkcfg.obj
 0001:0002e084       __security_init_cookie     000000018002f084 f   LIBCMT:gs_support.obj
 0001:0002e130       ?__scrt_initialize_type_info@@YAXXZ 000000018002f130 f   LIBCMT:tncleanup.obj
 0001:0002e140       ?__scrt_uninitialize_type_info@@YAXXZ 000000018002f140 f   LIBCMT:tncleanup.obj
 0001:0002e14c       __local_stdio_scanf_options 000000018002f14c f i LIBCMT:default_local_stdio_options.obj
 0001:0002e154       __scrt_initialize_default_local_stdio_options 000000018002f154 f   LIBCMT:default_local_stdio_options.obj
 0001:0002e170       __scrt_get_dyn_tls_init_callback 000000018002f170 f   LIBCMT:dyn_tls_init.obj
 0001:0002e178       _RTC_Initialize            000000018002f178 f   LIBCMT:_initsect_.obj
 0001:0002e1c4       _RTC_Terminate             000000018002f1c4 f   LIBCMT:_initsect_.obj
 0001:0002e210       __isa_available_init       000000018002f210 f   LIBCMT:_cpu_disp_.obj
 0001:0002e3d8       DllMain                    000000018002f3d8 f   LIBCMT:dll_dllmain_stub.obj
 0001:0002e3d8       _get_startup_argv_mode     000000018002f3d8 f   LIBCMT:argv_mode.obj
 0001:0002e3e0       __scrt_is_ucrt_dll_in_use  000000018002f3e0 f   LIBCMT:ucrt_detection.obj
 0001:0002e3ec       _guard_check_icall_nop     000000018002f3ec f i LIBCMT:guard_support.obj
 0001:0002e3ec       __except_validate_context_record 000000018002f3ec f i libvcruntime:jbcxrval.obj
 0001:0002e400       memcpy                     000000018002f400 f   libvcruntime:memcpy.obj
 0001:0002e400       memmove                    000000018002f400 f   libvcruntime:memcpy.obj
 0001:0002e838       _purecall                  000000018002f838 f   libvcruntime:purevirt.obj
 0001:0002e874       __std_exception_copy       000000018002f874 f   libvcruntime:std_exception.obj
 0001:0002e904       __std_exception_destroy    000000018002f904 f   libvcruntime:std_exception.obj
 0001:0002e92c       _CxxThrowException         000000018002f92c f   libvcruntime:throw.obj
 0001:0002ebcc       __vcrt_FlsAlloc            000000018002fbcc f   libvcruntime:winapi_downlevel.obj
 0001:0002ec20       __vcrt_FlsFree             000000018002fc20 f   libvcruntime:winapi_downlevel.obj
 0001:0002ec74       __vcrt_FlsGetValue         000000018002fc74 f   libvcruntime:winapi_downlevel.obj
 0001:0002ecc8       __vcrt_FlsSetValue         000000018002fcc8 f   libvcruntime:winapi_downlevel.obj
 0001:0002ed30       __vcrt_InitializeCriticalSectionEx 000000018002fd30 f   libvcruntime:winapi_downlevel.obj
 0001:0002eda8       __vcrt_initialize_winapi_thunks 000000018002fda8 f   libvcruntime:winapi_downlevel.obj
 0001:0002edf4       __vcrt_uninitialize_winapi_thunks 000000018002fdf4 f   libvcruntime:winapi_downlevel.obj
 0001:0002ee34       ?_ExecutionInCatch@@YAHPEAU_xDISPATCHER_CONTEXT@@PEBU_s_FuncInfo@@@Z 000000018002fe34 f   libvcruntime:trnsctrl.obj
 0001:0002eea8       ?_GetEstablisherFrame@@YAPEA_KPEA_KPEAU_xDISPATCHER_CONTEXT@@PEBU_s_FuncInfo@@0@Z 000000018002fea8 f   libvcruntime:trnsctrl.obj
 0001:0002ef74       ?_GetRangeOfTrysToCheck@@YAPEBU_s_TryBlockMapEntry@@PEA_KPEBU_s_FuncInfo@@HHPEAI2PEAU_xDISPATCHER_CONTEXT@@@Z 000000018002ff74 f   libvcruntime:trnsctrl.obj
 0001:0002f0a0       ?__FrameUnwindToEmptyState@@YAXPEA_KPEAU_xDISPATCHER_CONTEXT@@PEBU_s_FuncInfo@@@Z 00000001800300a0 f   libvcruntime:trnsctrl.obj
 0001:0002f134       ?__SehTransFilter@@YAHPEAU_EXCEPTION_POINTERS@@PEAUEHExceptionRecord@@PEA_KPEAU_CONTEXT@@PEAU_xDISPATCHER_CONTEXT@@PEBU_s_FuncInfo@@PEAH@Z 0000000180030134 f   libvcruntime:trnsctrl.obj
 0001:0002f1cc       _CallSETranslator          00000001800301cc f   libvcruntime:trnsctrl.obj
 0001:0002f224       _CreateFrameInfo           0000000180030224 f   libvcruntime:trnsctrl.obj
 0001:0002f260       _FindAndUnlinkFrame        0000000180030260 f   libvcruntime:trnsctrl.obj
 0001:0002f2b8       _GetImageBase              00000001800302b8 f   libvcruntime:trnsctrl.obj
 0001:0002f2cc       _GetThrowImageBase         00000001800302cc f   libvcruntime:trnsctrl.obj
 0001:0002f2e0       _IsExceptionObjectToBeDestroyed 00000001800302e0 f   libvcruntime:trnsctrl.obj
 0001:0002f310       _SetImageBase              0000000180030310 f   libvcruntime:trnsctrl.obj
 0001:0002f328       _SetThrowImageBase         0000000180030328 f   libvcruntime:trnsctrl.obj
 0001:0002f340       _UnwindNestedFrames        0000000180030340 f   libvcruntime:trnsctrl.obj
 0001:0002f464       __CxxFrameHandler3         0000000180030464 f   libvcruntime:trnsctrl.obj
 0001:0002f4e4       __C_specific_handler       00000001800304e4 f   libvcruntime:_chandler_.obj
 0001:0002f6e0       __vcrt_initialize          00000001800306e0 f   libvcruntime:initialization.obj
 0001:0002f714       __vcrt_thread_attach       0000000180030714 f   libvcruntime:initialization.obj
 0001:0002f728       __vcrt_thread_detach       0000000180030728 f   libvcruntime:initialization.obj
 0001:0002f73c       __vcrt_uninitialize        000000018003073c f   libvcruntime:initialization.obj
 0001:0002f75c       __vcrt_uninitialize_critical 000000018003075c f   libvcruntime:initialization.obj
 0001:0002f780       memset                     0000000180030780 f   libvcruntime:memset.obj
 0001:0002f920       __std_type_info_compare    0000000180030920 f   libvcruntime:std_type_info.obj
 0001:0002f948       __std_type_info_destroy_list 0000000180030948 f   libvcruntime:std_type_info.obj
 0001:0002f974       __vcrt_initialize_pure_virtual_call_handler 0000000180030974 f   libvcruntime:purevirt_data.obj
 0001:0002f998       __vcrt_freefls             0000000180030998 f   libvcruntime:per_thread_data.obj
 0001:0002f9b8       __vcrt_freeptd             00000001800309b8 f   libvcruntime:per_thread_data.obj
 0001:0002fa08       __vcrt_getptd              0000000180030a08 f   libvcruntime:per_thread_data.obj
 0001:0002fa24       __vcrt_getptd_noexit       0000000180030a24 f   libvcruntime:per_thread_data.obj
 0001:0002fadc       __vcrt_initialize_ptd      0000000180030adc f   libvcruntime:per_thread_data.obj
 0001:0002fb1c       __vcrt_uninitialize_ptd    0000000180030b1c f   libvcruntime:per_thread_data.obj
 0001:0002fb40       ?__GetCurrentState@@YAHPEA_KPEAU_xDISPATCHER_CONTEXT@@PEBU_s_FuncInfo@@@Z 0000000180030b40 f   libvcruntime:ehstate.obj
 0001:0002fb68       ?__GetUnwindTryBlock@@YAHPEA_KPEAU_xDISPATCHER_CONTEXT@@PEBU_s_FuncInfo@@@Z 0000000180030b68 f   libvcruntime:ehstate.obj
 0001:0002fb94       ?__SetState@@YAXPEA_KPEAU_xDISPATCHER_CONTEXT@@PEBU_s_FuncInfo@@H@Z 0000000180030b94 f   libvcruntime:ehstate.obj
 0001:0002fba0       ?__SetUnwindTryBlock@@YAXPEA_KPEAU_xDISPATCHER_CONTEXT@@PEBU_s_FuncInfo@@H@Z 0000000180030ba0 f   libvcruntime:ehstate.obj
 0001:0002fbdc       ?__StateFromControlPc@@YAHPEBU_s_FuncInfo@@PEAU_xDISPATCHER_CONTEXT@@@Z 0000000180030bdc f   libvcruntime:ehstate.obj
 0001:0002fbe4       ?__StateFromIp@@YAHPEBU_s_FuncInfo@@PEAU_xDISPATCHER_CONTEXT@@_J@Z 0000000180030be4 f   libvcruntime:ehstate.obj
 0001:0002fc50       __DestructExceptionObject  0000000180030c50 f   libvcruntime:frame.obj
 0001:0002fcd8       ??0bad_exception@std@@QEAA@AEBV01@@Z 0000000180030cd8 f i libvcruntime:frame.obj
 0001:0002fd18       ??0bad_exception@std@@QEAA@XZ 0000000180030d18 f i libvcruntime:frame.obj
 0001:0002fd38       ??1length_error@std@@UEAA@XZ 0000000180030d38 f i libcpmt:xthrow.obj
 0001:0002fd38       ??1out_of_range@std@@UEAA@XZ 0000000180030d38 f i libcpmt:xthrow.obj
 0001:0002fd38       ??1bad_exception@std@@UEAA@XZ 0000000180030d38 f i libvcruntime:frame.obj
 0001:0002fd38       ??1bad_array_new_length@std@@UEAA@XZ 0000000180030d38 f i LIBCMT:throw_bad_alloc.obj
 0001:0002fd38       ??1bad_alloc@std@@UEAA@XZ  0000000180030d38 f i libcpmt:xthrow.obj
 0001:000306a8       ?_CallMemberFunction0@@YAXPEAXP6AX0@Z@Z 00000001800316a8 f i libvcruntime:frame.obj
 0001:000306ac       ?_CallMemberFunction1@@YAXPEAXP6AX0@Z0@Z 00000001800316ac f i libvcruntime:frame.obj
 0001:000306b8       ?_CallMemberFunction2@@YAXPEAXP6AX0@Z0H@Z 00000001800316b8 f i libvcruntime:frame.obj
 0001:000306c8       __AdjustPointer            00000001800316c8 f   libvcruntime:frame.obj
 0001:000306ec       __BuildCatchObject         00000001800316ec f   libvcruntime:frame.obj
 0001:000307b0       __BuildCatchObjectHelper   00000001800317b0 f   libvcruntime:frame.obj
 0001:00030990       __CxxCallCatchBlock        0000000180031990 f   libvcruntime:frame.obj
 0001:00030b7c       __FrameUnwindFilter        0000000180031b7c f   libvcruntime:frame.obj
 0001:00030bc8       __FrameUnwindToState       0000000180031bc8 f   libvcruntime:frame.obj
 0001:00030d5c       __InternalCxxFrameHandler  0000000180031d5c f   libvcruntime:frame.obj
 0001:00030fb4       __TypeMatch                0000000180031fb4 f   libvcruntime:frame.obj
 0001:00031110       _local_unwind              0000000180032110 f   libvcruntime:_jmpuwind_.obj
 0001:00031140       _NLG_Notify                0000000180032140 f   libvcruntime:_jmpuwind_.obj
 0001:00031160       __NLG_Dispatch2            0000000180032160 f   libvcruntime:_jmpuwind_.obj
 0001:00031170       __NLG_Return2              0000000180032170 f   libvcruntime:_jmpuwind_.obj
 0001:00031174       __vcrt_initialize_locks    0000000180032174 f   libvcruntime:locks.obj
 0001:000311bc       __vcrt_uninitialize_locks  00000001800321bc f   libvcruntime:locks.obj
 0001:00031210       _CallSettingFrame          0000000180032210 f   libvcruntime:handlers.obj
 0001:00031250       calloc                     0000000180032250 f   libucrt:calloc.obj
 0001:00031258       realloc                    0000000180032258 f   libucrt:realloc.obj
 0001:00031c48       ??$ftprintf@PEAU_iobuf@@PEB_WAEBQEB_WAEBQEB_WAEBI@?$__crt_char_traits@_W@@SAH$$QEAPEAU_iobuf@@$$QEAPEB_WAEBQEB_W2AEBI@Z 0000000180032c48 f i libucrt:assert.obj
 0001:00031c70       _wassert                   0000000180032c70 f   libucrt:assert.obj
 0001:00031cf4       fwprintf                   0000000180032cf4 f i libucrt:assert.obj
 0001:00031d38       swprintf                   0000000180032d38 f i libucrt:assert.obj
 0001:00031d8c       __acrt_call_reportfault    0000000180032d8c f   libucrt:invalid_parameter.obj
 0001:00031ee8       __acrt_initialize_invalid_parameter_handler 0000000180032ee8 f   libucrt:invalid_parameter.obj
 0001:00031ef0       _invalid_parameter         0000000180032ef0 f   libucrt:invalid_parameter.obj
 0001:00031f98       _invalid_parameter_noinfo  0000000180032f98 f   libucrt:invalid_parameter.obj
 0001:00031fb8       _invalid_parameter_noinfo_noreturn 0000000180032fb8 f   libucrt:invalid_parameter.obj
 0001:00031fe8       _invoke_watson             0000000180032fe8 f   libucrt:invalid_parameter.obj
 0001:00032030       __acrt_initialize_stdio    0000000180033030 f   libucrt:_file.obj
 0001:00032150       __acrt_iob_func            0000000180033150 f   libucrt:_file.obj
 0001:00032164       __acrt_uninitialize_stdio  0000000180033164 f   libucrt:_file.obj
 0001:000321c0       _lock_file                 00000001800331c0 f   libucrt:_file.obj
 0001:000321cc       _unlock_file               00000001800331cc f   libucrt:_file.obj
 0001:000321d8       ??$?RV<lambda_7b91131dde12e1c3dfc74ff76b3f2eac>@@AEAV<lambda_dd75445284c072d0bd3768540cc698fa>@@V<lambda_16bc4ecb55b4718497c16bceaea2ceaf>@@@?$__crt_seh_guarded_call@H@@QEAAH$$QEAV<lambda_7b91131dde12e1c3dfc74ff76b3f2eac>@@AEAV<lambda_dd75445284c072d0bd3768540cc698fa>@@$$QEAV<lambda_16bc4ecb55b4718497c16bceaea2ceaf>@@@Z 00000001800331d8 f i libucrt:output.obj
 0001:00032218       ??$?RV<lambda_aa279a7bcb127014629d5b1d62c7325d>@@AEAV<lambda_0a64b6a4deda75c01876f29c44fc5eb3>@@V<lambda_3323e69fbefe9d1a11713e670d47cdfa>@@@?$__crt_seh_guarded_call@H@@QEAAH$$QEAV<lambda_aa279a7bcb127014629d5b1d62c7325d>@@AEAV<lambda_0a64b6a4deda75c01876f29c44fc5eb3>@@$$QEAV<lambda_3323e69fbefe9d1a11713e670d47cdfa>@@@Z 0000000180033218 f i libucrt:output.obj
 0001:00032258       ??$ensure_buffer_is_big_enough@D@formatting_buffer@__crt_stdio_output@@QEAA_N_K@Z 0000000180033258 f i libucrt:output.obj
 0001:00032304       ??$is_wide_character_specifier@D@__crt_stdio_output@@YA_N_KDW4length_modifier@0@@Z 0000000180033304 f i libucrt:output.obj
 0001:00032334       ??$is_wide_character_specifier@_W@__crt_stdio_output@@YA_N_K_WW4length_modifier@0@@Z 0000000180033334 f i libucrt:output.obj
 0001:00032378       ??$type_case_integer_parse_into_buffer@I@?$output_processor@_WV?$string_output_adapter@_W@__crt_stdio_output@@V?$standard_base@_WV?$string_output_adapter@_W@__crt_stdio_output@@@2@@__crt_stdio_output@@AEAAXII_N@Z 0000000180033378 f i libucrt:output.obj
 0001:00032378       ??$type_case_integer_parse_into_buffer@I@?$output_processor@_WV?$stream_output_adapter@_W@__crt_stdio_output@@V?$standard_base@_WV?$stream_output_adapter@_W@__crt_stdio_output@@@2@@__crt_stdio_output@@AEAAXII_N@Z 0000000180033378 f i libucrt:output.obj
 0001:00032378       ??$type_case_integer_parse_into_buffer@I@?$output_processor@DV?$stream_output_adapter@D@__crt_stdio_output@@V?$standard_base@DV?$stream_output_adapter@D@__crt_stdio_output@@@2@@__crt_stdio_output@@AEAAXII_N@Z 0000000180033378 f i libucrt:output.obj
 0001:00032414       ??$type_case_integer_parse_into_buffer@_K@?$output_processor@_WV?$string_output_adapter@_W@__crt_stdio_output@@V?$standard_base@_WV?$string_output_adapter@_W@__crt_stdio_output@@@2@@__crt_stdio_output@@AEAAX_KI_N@Z 0000000180033414 f i libucrt:output.obj
 0001:00032414       ??$type_case_integer_parse_into_buffer@_K@?$output_processor@_WV?$stream_output_adapter@_W@__crt_stdio_output@@V?$standard_base@_WV?$stream_output_adapter@_W@__crt_stdio_output@@@2@@__crt_stdio_output@@AEAAX_KI_N@Z 0000000180033414 f i libucrt:output.obj
 0001:00032414       ??$type_case_integer_parse_into_buffer@_K@?$output_processor@DV?$stream_output_adapter@D@__crt_stdio_output@@V?$standard_base@DV?$stream_output_adapter@D@__crt_stdio_output@@@2@@__crt_stdio_output@@AEAAX_KI_N@Z 0000000180033414 f i libucrt:output.obj
 0001:000324b0       ??$write_multiple_characters@V?$stream_output_adapter@D@__crt_stdio_output@@D@__crt_stdio_output@@YAXAEBV?$stream_output_adapter@D@0@DHQEAH@Z 00000001800334b0 f i libucrt:output.obj
 0001:00032534       ??$write_multiple_characters@V?$stream_output_adapter@_W@__crt_stdio_output@@D@__crt_stdio_output@@YAXAEBV?$stream_output_adapter@_W@0@DHQEAH@Z 0000000180033534 f i libucrt:output.obj
 0001:000325c4       ??$write_multiple_characters@V?$string_output_adapter@_W@__crt_stdio_output@@D@__crt_stdio_output@@YAXAEBV?$string_output_adapter@_W@0@DHQEAH@Z 00000001800335c4 f i libucrt:output.obj
 0001:00032634       ??0?$output_processor@DV?$stream_output_adapter@D@__crt_stdio_output@@V?$standard_base@DV?$stream_output_adapter@D@__crt_stdio_output@@@2@@__crt_stdio_output@@QEAA@AEBV?$stream_output_adapter@D@1@_KQEBDQEAU__crt_locale_pointers@@QEAD@Z 0000000180033634 f i libucrt:output.obj
 0001:000326b0       ??0?$output_processor@_WV?$string_output_adapter@_W@__crt_stdio_output@@V?$standard_base@_WV?$string_output_adapter@_W@__crt_stdio_output@@@2@@__crt_stdio_output@@QEAA@AEBV?$string_output_adapter@_W@1@_KQEB_WQEAU__crt_locale_pointers@@QEAD@Z 00000001800336b0 f i libucrt:output.obj
 0001:000326b0       ??0?$output_processor@_WV?$stream_output_adapter@_W@__crt_stdio_output@@V?$standard_base@_WV?$stream_output_adapter@_W@__crt_stdio_output@@@2@@__crt_stdio_output@@QEAA@AEBV?$stream_output_adapter@_W@1@_KQEB_WQEAU__crt_locale_pointers@@QEAD@Z 00000001800336b0 f i libucrt:output.obj
 0001:00032730       ??0_LocaleUpdate@@QEAA@QEAU__crt_locale_pointers@@@Z 0000000180033730 f i libucrt:output.obj
 0001:000329a0       ?force_decimal_point@__crt_stdio_output@@YAXPEADQEAU__crt_locale_pointers@@@Z 00000001800339a0 f i libucrt:output.obj
 0001:00032a10       ?parse_int_from_format_string@?$output_processor@DV?$stream_output_adapter@D@__crt_stdio_output@@V?$standard_base@DV?$stream_output_adapter@D@__crt_stdio_output@@@2@@__crt_stdio_output@@AEAA_NQEAH@Z 0000000180033a10 f i libucrt:output.obj
 0001:00032a94       ?parse_int_from_format_string@?$output_processor@_WV?$string_output_adapter@_W@__crt_stdio_output@@V?$standard_base@_WV?$string_output_adapter@_W@__crt_stdio_output@@@2@@__crt_stdio_output@@AEAA_NQEAH@Z 0000000180033a94 f i libucrt:output.obj
 0001:00032a94       ?parse_int_from_format_string@?$output_processor@_WV?$stream_output_adapter@_W@__crt_stdio_output@@V?$standard_base@_WV?$stream_output_adapter@_W@__crt_stdio_output@@@2@@__crt_stdio_output@@AEAA_NQEAH@Z 0000000180033a94 f i libucrt:output.obj
 0001:00032b14       ?process@?$output_processor@DV?$stream_output_adapter@D@__crt_stdio_output@@V?$standard_base@DV?$stream_output_adapter@D@__crt_stdio_output@@@2@@__crt_stdio_output@@QEAAHXZ 0000000180033b14 f i libucrt:output.obj
 0001:00032d24       ?process@?$output_processor@_WV?$stream_output_adapter@_W@__crt_stdio_output@@V?$standard_base@_WV?$stream_output_adapter@_W@__crt_stdio_output@@@2@@__crt_stdio_output@@QEAAHXZ 0000000180033d24 f i libucrt:output.obj
 0001:00032f9c       ?process@?$output_processor@_WV?$string_output_adapter@_W@__crt_stdio_output@@V?$standard_base@_WV?$string_output_adapter@_W@__crt_stdio_output@@@2@@__crt_stdio_output@@QEAAHXZ 0000000180033f9c f i libucrt:output.obj
 0001:00033218       ?state_case_normal@?$output_processor@DV?$stream_output_adapter@D@__crt_stdio_output@@V?$standard_base@DV?$stream_output_adapter@D@__crt_stdio_output@@@2@@__crt_stdio_output@@AEAA_NXZ 0000000180034218 f i libucrt:output.obj
 0001:00033288       ?state_case_normal_tchar@?$output_processor@DV?$stream_output_adapter@D@__crt_stdio_output@@V?$standard_base@DV?$stream_output_adapter@D@__crt_stdio_output@@@2@@__crt_stdio_output@@AEAA_ND@Z 0000000180034288 f i libucrt:output.obj
 0001:0003331c       ?state_case_size@?$output_processor@DV?$stream_output_adapter@D@__crt_stdio_output@@V?$standard_base@DV?$stream_output_adapter@D@__crt_stdio_output@@@2@@__crt_stdio_output@@AEAA_NXZ 000000018003431c f i libucrt:output.obj
 0001:00033498       ?state_case_size@?$output_processor@_WV?$stream_output_adapter@_W@__crt_stdio_output@@V?$standard_base@_WV?$stream_output_adapter@_W@__crt_stdio_output@@@2@@__crt_stdio_output@@AEAA_NXZ 0000000180034498 f i libucrt:output.obj
 0001:0003363c       ?state_case_size@?$output_processor@_WV?$string_output_adapter@_W@__crt_stdio_output@@V?$standard_base@_WV?$string_output_adapter@_W@__crt_stdio_output@@@2@@__crt_stdio_output@@AEAA_NXZ 000000018003463c f i libucrt:output.obj
 0001:000337e0       ?state_case_type@?$output_processor@DV?$stream_output_adapter@D@__crt_stdio_output@@V?$standard_base@DV?$stream_output_adapter@D@__crt_stdio_output@@@2@@__crt_stdio_output@@AEAA_NXZ 00000001800347e0 f i libucrt:output.obj
 0001:00033a5c       ?state_case_type@?$output_processor@_WV?$stream_output_adapter@_W@__crt_stdio_output@@V?$standard_base@_WV?$stream_output_adapter@_W@__crt_stdio_output@@@2@@__crt_stdio_output@@AEAA_NXZ 0000000180034a5c f i libucrt:output.obj
 0001:00033d28       ?state_case_type@?$output_processor@_WV?$string_output_adapter@_W@__crt_stdio_output@@V?$standard_base@_WV?$string_output_adapter@_W@__crt_stdio_output@@@2@@__crt_stdio_output@@AEAA_NXZ 0000000180034d28 f i libucrt:output.obj
 0001:00033ff4       ?type_case_Z@?$output_processor@DV?$stream_output_adapter@D@__crt_stdio_output@@V?$standard_base@DV?$stream_output_adapter@D@__crt_stdio_output@@@2@@__crt_stdio_output@@AEAA_NXZ 0000000180034ff4 f i libucrt:output.obj
 0001:00034074       ?type_case_Z@?$output_processor@_WV?$stream_output_adapter@_W@__crt_stdio_output@@V?$standard_base@_WV?$stream_output_adapter@_W@__crt_stdio_output@@@2@@__crt_stdio_output@@AEAA_NXZ 0000000180035074 f i libucrt:output.obj
 0001:00034074       ?type_case_Z@?$output_processor@_WV?$string_output_adapter@_W@__crt_stdio_output@@V?$standard_base@_WV?$string_output_adapter@_W@__crt_stdio_output@@@2@@__crt_stdio_output@@AEAA_NXZ 0000000180035074 f i libucrt:output.obj
 0001:000340f4       ?type_case_a@?$output_processor@DV?$stream_output_adapter@D@__crt_stdio_output@@V?$standard_base@DV?$stream_output_adapter@D@__crt_stdio_output@@@2@@__crt_stdio_output@@AEAA_NXZ 00000001800350f4 f i libucrt:output.obj
 0001:00034310       ?type_case_a@?$output_processor@_WV?$string_output_adapter@_W@__crt_stdio_output@@V?$standard_base@_WV?$string_output_adapter@_W@__crt_stdio_output@@@2@@__crt_stdio_output@@AEAA_NXZ 0000000180035310 f i libucrt:output.obj
 0001:00034310       ?type_case_a@?$output_processor@_WV?$stream_output_adapter@_W@__crt_stdio_output@@V?$standard_base@_WV?$stream_output_adapter@_W@__crt_stdio_output@@@2@@__crt_stdio_output@@AEAA_NXZ 0000000180035310 f i libucrt:output.obj
 0001:00034554       ?type_case_c_tchar@?$output_processor@DV?$stream_output_adapter@D@__crt_stdio_output@@V?$standard_base@DV?$stream_output_adapter@D@__crt_stdio_output@@@2@@__crt_stdio_output@@AEAA_ND@Z 0000000180035554 f i libucrt:output.obj
 0001:00034608       ?type_case_c_tchar@?$output_processor@_WV?$string_output_adapter@_W@__crt_stdio_output@@V?$standard_base@_WV?$string_output_adapter@_W@__crt_stdio_output@@@2@@__crt_stdio_output@@AEAA_N_W@Z 0000000180035608 f i libucrt:output.obj
 0001:00034608       ?type_case_c_tchar@?$output_processor@_WV?$stream_output_adapter@_W@__crt_stdio_output@@V?$standard_base@_WV?$stream_output_adapter@_W@__crt_stdio_output@@@2@@__crt_stdio_output@@AEAA_N_W@Z 0000000180035608 f i libucrt:output.obj
 0001:000346b0       ?type_case_integer@?$output_processor@DV?$stream_output_adapter@D@__crt_stdio_output@@V?$standard_base@DV?$stream_output_adapter@D@__crt_stdio_output@@@2@@__crt_stdio_output@@AEAA_NI_N@Z 00000001800356b0 f i libucrt:output.obj
 0001:000346b0       ?type_case_integer@?$output_processor@_WV?$string_output_adapter@_W@__crt_stdio_output@@V?$standard_base@_WV?$string_output_adapter@_W@__crt_stdio_output@@@2@@__crt_stdio_output@@AEAA_NI_N@Z 00000001800356b0 f i libucrt:output.obj
 0001:000346b0       ?type_case_integer@?$output_processor@_WV?$stream_output_adapter@_W@__crt_stdio_output@@V?$standard_base@_WV?$stream_output_adapter@_W@__crt_stdio_output@@@2@@__crt_stdio_output@@AEAA_NI_N@Z 00000001800356b0 f i libucrt:output.obj
 0001:00034850       ?type_case_n@?$output_processor@_WV?$string_output_adapter@_W@__crt_stdio_output@@V?$standard_base@_WV?$string_output_adapter@_W@__crt_stdio_output@@@2@@__crt_stdio_output@@AEAA_NXZ 0000000180035850 f i libucrt:output.obj
 0001:00034850       ?type_case_n@?$output_processor@DV?$stream_output_adapter@D@__crt_stdio_output@@V?$standard_base@DV?$stream_output_adapter@D@__crt_stdio_output@@@2@@__crt_stdio_output@@AEAA_NXZ 0000000180035850 f i libucrt:output.obj
 0001:00034850       ?type_case_n@?$output_processor@_WV?$stream_output_adapter@_W@__crt_stdio_output@@V?$standard_base@_WV?$stream_output_adapter@_W@__crt_stdio_output@@@2@@__crt_stdio_output@@AEAA_NXZ 0000000180035850 f i libucrt:output.obj
 0001:0003492c       ?type_case_s@?$output_processor@DV?$stream_output_adapter@D@__crt_stdio_output@@V?$standard_base@DV?$stream_output_adapter@D@__crt_stdio_output@@@2@@__crt_stdio_output@@AEAA_NXZ 000000018003592c f i libucrt:output.obj
 0001:000349bc       ?type_case_s@?$output_processor@_WV?$string_output_adapter@_W@__crt_stdio_output@@V?$standard_base@_WV?$string_output_adapter@_W@__crt_stdio_output@@@2@@__crt_stdio_output@@AEAA_NXZ 00000001800359bc f i libucrt:output.obj
 0001:000349bc       ?type_case_s@?$output_processor@_WV?$stream_output_adapter@_W@__crt_stdio_output@@V?$standard_base@_WV?$stream_output_adapter@_W@__crt_stdio_output@@@2@@__crt_stdio_output@@AEAA_NXZ 00000001800359bc f i libucrt:output.obj
 0001:00034a84       ?validate_stream_is_ansi_if_required@?$__acrt_stdio_char_traits@D@@SA_NQEAU_iobuf@@@Z 0000000180035a84 f i libucrt:output.obj
 0001:00034b10       ?write_stored_string_tchar@?$output_processor@DV?$stream_output_adapter@D@__crt_stdio_output@@V?$standard_base@DV?$stream_output_adapter@D@__crt_stdio_output@@@2@@__crt_stdio_output@@AEAA_ND@Z 0000000180035b10 f i libucrt:output.obj
 0001:00034be8       ?write_stored_string_tchar@?$output_processor@_WV?$stream_output_adapter@_W@__crt_stdio_output@@V?$standard_base@_WV?$stream_output_adapter@_W@__crt_stdio_output@@@2@@__crt_stdio_output@@AEAA_N_W@Z 0000000180035be8 f i libucrt:output.obj
 0001:00034cd4       ?write_stored_string_tchar@?$output_processor@_WV?$string_output_adapter@_W@__crt_stdio_output@@V?$standard_base@_WV?$string_output_adapter@_W@__crt_stdio_output@@@2@@__crt_stdio_output@@AEAA_N_W@Z 0000000180035cd4 f i libucrt:output.obj
 0001:00034dc4       ?write_string@?$stream_output_adapter@D@__crt_stdio_output@@QEBAXQEBDHQEAH1@Z 0000000180035dc4 f i libucrt:output.obj
 0001:00034ebc       ?write_string@?$stream_output_adapter@_W@__crt_stdio_output@@QEBAXQEB_WHQEAH1@Z 0000000180035ebc f i libucrt:output.obj
 0001:00034fc8       ?write_string@?$string_output_adapter@_W@__crt_stdio_output@@QEBAXQEB_WHQEAH1@Z 0000000180035fc8 f i libucrt:output.obj
 0001:00035088       __stdio_common_vfprintf    0000000180036088 f   libucrt:output.obj
 0001:00035114       __stdio_common_vfwprintf   0000000180036114 f   libucrt:output.obj
 0001:000351a0       __stdio_common_vswprintf   00000001800361a0 f   libucrt:output.obj
 0001:000353d8       log2                       00000001800363d8 f   libucrt:log2.obj
 0001:0003571c       free                       000000018003671c f   libucrt:free.obj
 0001:00035724       malloc                     0000000180036724 f   libucrt:malloc.obj
 0001:0003572c       __ascii_stricmp            000000018003672c f   libucrt:stricmp.obj
 0001:00035768       _stricmp                   0000000180036768 f   libucrt:stricmp.obj
 0001:000357b0       _stricmp_l                 00000001800367b0 f   libucrt:stricmp.obj
 0001:00035864       __acrt_initialize_new_handler 0000000180036864 f   libucrt:new_handler.obj
 0001:0003586c       _callnewh                  000000018003686c f   libucrt:new_handler.obj
 0001:000358ac       _query_new_handler         00000001800368ac f   libucrt:new_handler.obj
 0001:000358e0       _initterm                  00000001800368e0 f   libucrt:initterm.obj
 0001:00035958       _initterm_e                0000000180036958 f   libucrt:initterm.obj
 0001:000359a4       _seh_filter_dll            00000001800369a4 f   libucrt:exception_filter.obj
 0001:000359b8       _seh_filter_exe            00000001800369b8 f   libucrt:exception_filter.obj
 0001:00035d78       __acrt_initialize_thread_local_exit_callback 0000000180036d78 f   libucrt:exit.obj
 0001:00035d80       _cexit                     0000000180036d80 f   libucrt:exit.obj
 0001:00035d90       _exit                      0000000180036d90 f   libucrt:exit.obj
 0001:00035d9c       _is_c_termination_complete 0000000180036d9c f   libucrt:exit.obj
 0001:00035f60       __acrt_allocate_buffer_for_argv 0000000180036f60 f   libucrt:argv_parsing.obj
 0001:00035fc4       _configure_narrow_argv     0000000180036fc4 f   libucrt:argv_parsing.obj
 0001:00036320       __dcrt_uninitialize_environments_nolock 0000000180037320 f   libucrt:environment_initialization.obj
 0001:00036358       _initialize_narrow_environment 0000000180037358 f   libucrt:environment_initialization.obj
 0001:00036360       ??$?RV<lambda_b8c45f8f788dd370798f47cfe8ac3a86>@@AEAV<lambda_4e60a939b0d047cfe11ddc22648dfba9>@@V<lambda_332c3edc96d0294ec56c57d38c1cdfd5>@@@?$__crt_seh_guarded_call@H@@QEAAH$$QEAV<lambda_b8c45f8f788dd370798f47cfe8ac3a86>@@AEAV<lambda_4e60a939b0d047cfe11ddc22648dfba9>@@$$QEAV<lambda_332c3edc96d0294ec56c57d38c1cdfd5>@@@Z 0000000180037360 f i libucrt:onexit.obj
 0001:0003639c       ??$?RV<lambda_e24bbb7b643b32fcea6fa61b31d4c984>@@AEAV<lambda_275893d493268fdec8709772e3fcec0e>@@V<lambda_9d71df4d7cf3f480f8d633942495c3b0>@@@?$__crt_seh_guarded_call@H@@QEAAH$$QEAV<lambda_e24bbb7b643b32fcea6fa61b31d4c984>@@AEAV<lambda_275893d493268fdec8709772e3fcec0e>@@$$QEAV<lambda_9d71df4d7cf3f480f8d633942495c3b0>@@@Z 000000018003739c f i libucrt:onexit.obj
 0001:00036718       _crt_atexit                0000000180037718 f   libucrt:onexit.obj
 0001:00036728       _execute_onexit_table      0000000180037728 f   libucrt:onexit.obj
 0001:00036764       _initialize_onexit_table   0000000180037764 f   libucrt:onexit.obj
 0001:000367a4       _register_onexit_function  00000001800377a4 f   libucrt:onexit.obj
 0001:00036920       __acrt_initialize          0000000180037920 f   libucrt:initialization.obj
 0001:00036934       __acrt_thread_attach       0000000180037934 f   libucrt:initialization.obj
 0001:00036948       __acrt_thread_detach       0000000180037948 f   libucrt:initialization.obj
 0001:00036958       __acrt_uninitialize        0000000180037958 f   libucrt:initialization.obj
 0001:0003696c       __acrt_uninitialize_critical 000000018003796c f   libucrt:initialization.obj
 0001:0003697c       terminate                  000000018003797c f   libucrt:terminate.obj
 0001:000369a4       abort                      00000001800379a4 f   libucrt:abort.obj
 0001:000369fc       strcpy_s                   00000001800379fc f   libucrt:strcpy_s.obj
 0001:00036a5c       _free_base                 0000000180037a5c f   libucrt:free_base.obj
 0001:00036a9c       _malloc_base               0000000180037a9c f   libucrt:malloc_base.obj
 0001:00036afc       _calloc_base               0000000180037afc f   libucrt:calloc_base.obj
 0001:00036b74       ??$is_overflow_condition@K@__crt_strtox@@YA_NIK@Z 0000000180037b74 f i libucrt:atox.obj
 0001:00036ba0       ??$parse_integer@KV?$c_string_character_source@D@__crt_strtox@@@__crt_strtox@@YAKQEAU__crt_locale_pointers@@V?$c_string_character_source@D@0@H_N@Z 0000000180037ba0 f i libucrt:atox.obj
 0001:00036eb4       ??$parse_integer@KV?$c_string_character_source@_W@__crt_strtox@@@__crt_strtox@@YAKQEAU__crt_locale_pointers@@V?$c_string_character_source@_W@0@H_N@Z 0000000180037eb4 f i libucrt:atox.obj
 0001:00037588       _realloc_base              0000000180038588 f   libucrt:realloc_base.obj
 0001:0003760c       _query_app_type            000000018003860c f   libucrt:report_runtime_error.obj
 0001:00037614       __acrt_errno_from_os_error 0000000180038614 f   libucrt:errno.obj
 0001:0003765c       __acrt_errno_map_os_error  000000018003865c f   libucrt:errno.obj
 0001:000376ac       __doserrno                 00000001800386ac f   libucrt:errno.obj
 0001:000376cc       _errno                     00000001800386cc f   libucrt:errno.obj
 0001:00037814       _itow_s                    0000000180038814 f   libucrt:xtoa.obj
 0001:00037834       _set_error_mode            0000000180038834 f   libucrt:set_error_mode.obj
 0001:00037874       wcscat_s                   0000000180038874 f   libucrt:wcscat_s.obj
 0001:000378f4       wcscpy_s                   00000001800388f4 f   libucrt:wcscpy_s.obj
 0001:0003795c       wcsncat_s                  000000018003895c f   libucrt:wcsncat_s.obj
 0001:00037a84       __acrt_show_wide_message_box 0000000180038a84 f   libucrt:crtmbox.obj
 0001:00037ba0       __acrt_stdio_flush_nolock  0000000180038ba0 f   libucrt:fflush.obj
 0001:00037c18       _fflush_nolock             0000000180038c18 f   libucrt:fflush.obj
 0001:00037c64       _flushall                  0000000180038c64 f   libucrt:fflush.obj
 0001:00037d54       fflush                     0000000180038d54 f   libucrt:fflush.obj
 0001:00037d98       ??$?RV<lambda_7a5ef57ff966f610505f1d28a3d40618>@@AEAV<lambda_b721fa326cdb32351d23dfa67958c160>@@V<lambda_5e0fb27672408a07956fe59e48ccb2aa>@@@?$__crt_seh_guarded_call@H@@QEAAH$$QEAV<lambda_7a5ef57ff966f610505f1d28a3d40618>@@AEAV<lambda_b721fa326cdb32351d23dfa67958c160>@@$$QEAV<lambda_5e0fb27672408a07956fe59e48ccb2aa>@@@Z 0000000180038d98 f i libucrt:setvbuf.obj
 0001:00037ec8       setvbuf                    0000000180038ec8 f   libucrt:setvbuf.obj
 0001:00037f68       ??$?RV<lambda_c36588078e9f5dfd39652860aa6b3aaf>@@AEAV<lambda_ec61778202f4f5fc7e7711acc23c3bca>@@V<lambda_dc9d2797ccde5d239b4a0efae8ebd7db>@@@?$__crt_seh_guarded_call@P6AXH@Z@@QEAAP6AXH@Z$$QEAV<lambda_c36588078e9f5dfd39652860aa6b3aaf>@@AEAV<lambda_ec61778202f4f5fc7e7711acc23c3bca>@@$$QEAV<lambda_dc9d2797ccde5d239b4a0efae8ebd7db>@@@Z 0000000180038f68 f i libucrt:signal.obj
 0001:00037fb0       __acrt_get_sigabrt_handler 0000000180038fb0 f   libucrt:signal.obj
 0001:00037fe0       __acrt_initialize_signal_handlers 0000000180038fe0 f   libucrt:signal.obj
 0001:00038000       raise                      0000000180039000 f   libucrt:signal.obj
 0001:0003829c       ??$?RV<lambda_46352004c1216016012b18bd6f87e700>@@AEAV<lambda_3bd07e1a1191394380780325891bf33f>@@V<lambda_334532d3f185bcaa59b5be82d7d22bff>@@@?$__crt_seh_guarded_call@X@@QEAAX$$QEAV<lambda_46352004c1216016012b18bd6f87e700>@@AEAV<lambda_3bd07e1a1191394380780325891bf33f>@@$$QEAV<lambda_334532d3f185bcaa59b5be82d7d22bff>@@@Z 000000018003929c f i libucrt:per_thread_data.obj
 0001:000382fc       ??$?RV<lambda_5e887d1dcbef67a5eb4283622ba103bf>@@AEAV<lambda_4466841279450cc726390878d4a41900>@@V<lambda_341c25c0346d94847f1f3c463c57e077>@@@?$__crt_seh_guarded_call@X@@QEAAX$$QEAV<lambda_5e887d1dcbef67a5eb4283622ba103bf>@@AEAV<lambda_4466841279450cc726390878d4a41900>@@$$QEAV<lambda_341c25c0346d94847f1f3c463c57e077>@@@Z 00000001800392fc f i libucrt:per_thread_data.obj
 0001:00038344       ??$?RV<lambda_72d1df2b273a38828b1ce30cbf4cdab5>@@AEAV<lambda_876a65b173b8412d3a47c70a915b0cf4>@@V<lambda_41932305e351933ebe8f8be3ed8bb5dc>@@@?$__crt_seh_guarded_call@X@@QEAAX$$QEAV<lambda_72d1df2b273a38828b1ce30cbf4cdab5>@@AEAV<lambda_876a65b173b8412d3a47c70a915b0cf4>@@$$QEAV<lambda_41932305e351933ebe8f8be3ed8bb5dc>@@@Z 0000000180039344 f i libucrt:per_thread_data.obj
 0001:00038384       ??$?RV<lambda_fb3a7dec4e47f37f22dae91bb15c9095>@@AEAV<lambda_698284760c8add0bfb0756c19673e34b>@@V<lambda_dfb8eca1e75fef3034a8fb18dd509707>@@@?$__crt_seh_guarded_call@X@@QEAAX$$QEAV<lambda_fb3a7dec4e47f37f22dae91bb15c9095>@@AEAV<lambda_698284760c8add0bfb0756c19673e34b>@@$$QEAV<lambda_dfb8eca1e75fef3034a8fb18dd509707>@@@Z 0000000180039384 f i libucrt:per_thread_data.obj
 0001:00038614       __acrt_freeptd             0000000180039614 f   libucrt:per_thread_data.obj
 0001:00038658       __acrt_getptd              0000000180039658 f   libucrt:per_thread_data.obj
 0001:000386ec       __acrt_getptd_noexit       00000001800396ec f   libucrt:per_thread_data.obj
 0001:0003878c       __acrt_initialize_ptd      000000018003978c f   libucrt:per_thread_data.obj
 0001:000387c8       __acrt_uninitialize_ptd    00000001800397c8 f   libucrt:per_thread_data.obj
 0001:0003898c       __acrt_FlsAlloc            000000018003998c f   libucrt:winapi_thunks.obj
 0001:000389e4       __acrt_FlsFree             00000001800399e4 f   libucrt:winapi_thunks.obj
 0001:00038a3c       __acrt_FlsGetValue         0000000180039a3c f   libucrt:winapi_thunks.obj
 0001:00038a94       __acrt_FlsSetValue         0000000180039a94 f   libucrt:winapi_thunks.obj
 0001:00038afc       __acrt_InitializeCriticalSectionEx 0000000180039afc f   libucrt:winapi_thunks.obj
 0001:00038b74       __acrt_LCMapStringEx       0000000180039b74 f   libucrt:winapi_thunks.obj
 0001:00038c64       __acrt_LocaleNameToLCID    0000000180039c64 f   libucrt:winapi_thunks.obj
 0001:00038ccc       __acrt_MessageBoxW         0000000180039ccc f   libucrt:winapi_thunks.obj
 0001:00038d54       __acrt_can_show_message_box 0000000180039d54 f   libucrt:winapi_thunks.obj
 0001:00038db0       __acrt_get_parent_window   0000000180039db0 f   libucrt:winapi_thunks.obj
 0001:00038e40       __acrt_initialize_winapi_thunks 0000000180039e40 f   libucrt:winapi_thunks.obj
 0001:00038e78       __acrt_is_interactive      0000000180039e78 f   libucrt:winapi_thunks.obj
 0001:00038f4c       __acrt_is_packaged_app     0000000180039f4c f   libucrt:winapi_thunks.obj
 0001:00038fd4       __acrt_uninitialize_winapi_thunks 0000000180039fd4 f   libucrt:winapi_thunks.obj
 0001:00039018       _fcloseall                 000000018003a018 f   libucrt:closeall.obj
 0001:000390cc       __acrt_stdio_free_buffer_nolock 000000018003a0cc f   libucrt:_freebuf.obj
 0001:000392f4       __acrt_initialize_lowio    000000018003a2f4 f   libucrt:ioinit.obj
 0001:00039330       __acrt_uninitialize_lowio  000000018003a330 f   libucrt:ioinit.obj
 0001:00039370       isdigit                    000000018003a370 f i libucrt:_ctype.obj
 0001:00039434       _tolower_l                 000000018003a434 f   libucrt:tolower_toupper.obj
 0001:00039574       tolower                    000000018003a574 f   libucrt:tolower_toupper.obj
 0001:000395a0       ??$make_c_string_character_source@_WPEAPEA_W@__crt_strtox@@YA?AV?$c_string_character_source@_W@0@QEB_WQEAPEA_W@Z 000000018003a5a0 f i libucrt:strtox.obj
 0001:000395a0       ??$make_c_string_character_source@DPEAPEAD@__crt_strtox@@YA?AV?$c_string_character_source@D@0@QEBDQEAPEAD@Z 000000018003a5a0 f i libucrt:strtox.obj
 0001:000395b4       strtol                     000000018003a5b4 f   libucrt:strtox.obj
 0001:000395e4       wcstol                     000000018003a5e4 f   libucrt:strtox.obj
 0001:00039614       _mbtowc_l                  000000018003a614 f   libucrt:mbtowc.obj
 0001:0003975c       mbtowc                     000000018003a75c f   libucrt:mbtowc.obj
 0001:00039764       _wctomb_s_l                000000018003a764 f   libucrt:wctomb.obj
 0001:000398e8       wctomb_s                   000000018003a8e8 f   libucrt:wctomb.obj
 0001:000398fc       strnlen                    000000018003a8fc f   libucrt:strnlen.obj
 0001:00039a58       wcsnlen                    000000018003aa58 f   libucrt:strnlen.obj
 0001:00039c48       __acrt_update_locale_info  000000018003ac48 f   libucrt:locale_update.obj
 0001:00039c7c       __acrt_update_multibyte_info 000000018003ac7c f   libucrt:locale_update.obj
 0001:00039cb0       ?__acrt_fp_classify@@YA?AW4__acrt_fp_class@@AEBN@Z 000000018003acb0 f i libucrt:cvt.obj
 0001:0003a6e8       __acrt_fp_format           000000018003b6e8 f   libucrt:cvt.obj
 0001:0003a92c       _fputwc_nolock             000000018003b92c f   libucrt:fputwc.obj
 0001:0003aaa8       _fileno                    000000018003baa8 f   libucrt:fileno.obj
 0001:0003aad0       _fputc_nolock              000000018003bad0 f   libucrt:fputc.obj
 0001:0003aae8       _get_printf_count_output   000000018003bae8 f   libucrt:printf_count_output.obj
 0001:0003ab00       __acrt_stdio_begin_temporary_buffering_nolock 000000018003bb00 f   libucrt:_sftbuf.obj
 0001:0003abd0       __acrt_stdio_end_temporary_buffering_nolock 000000018003bbd0 f   libucrt:_sftbuf.obj
 0001:0003ac0c       __acrt_set_locale_changed  000000018003bc0c f   libucrt:wsetlocale.obj
 0001:0003ac18       __acrt_uninitialize_locale 000000018003bc18 f   libucrt:wsetlocale.obj
 0001:0003ad84       _handle_error              000000018003bd84 f   libucrt:libm_error.obj
 0001:0003aeac       _handle_nan                000000018003beac f   libucrt:libm_error.obj
 0001:0003b468       _write                     000000018003c468 f   libucrt:write.obj
 0001:0003b554       _write_nolock              000000018003c554 f   libucrt:write.obj
 0001:0003ba48       __acrt_stdio_flush_and_write_narrow_nolock 000000018003ca48 f   libucrt:_flsbuf.obj
 0001:0003bb30       __acrt_stdio_flush_and_write_wide_nolock 000000018003cb30 f   libucrt:_flsbuf.obj
 0001:0003bc1c       __acrt_initialize_locks    000000018003cc1c f   libucrt:locks.obj
 0001:0003bc64       __acrt_lock                000000018003cc64 f   libucrt:locks.obj
 0001:0003bc80       __acrt_uninitialize_locks  000000018003cc80 f   libucrt:locks.obj
 0001:0003bcb8       __acrt_unlock              000000018003ccb8 f   libucrt:locks.obj
 0001:0003c1b0       ?expand_if_necessary@?$argument_list@D@?A0xca0879c4@@AEAAHXZ 000000018003d1b0 f i libucrt:argv_wildcards.obj
 0001:0003c278       __acrt_expand_narrow_argv_wildcards 000000018003d278 f   libucrt:argv_wildcards.obj
 0001:0003c280       ??$?RV<lambda_99476a1ad63dd22509b5d3e65b0ffc95>@@AEAV<lambda_ad1ced32f4ac17aa236e5ef05d6b3b7c>@@V<lambda_f7424dd8d45958661754dc4f2697e9c3>@@@?$__crt_seh_guarded_call@X@@QEAAX$$QEAV<lambda_99476a1ad63dd22509b5d3e65b0ffc95>@@AEAV<lambda_ad1ced32f4ac17aa236e5ef05d6b3b7c>@@$$QEAV<lambda_f7424dd8d45958661754dc4f2697e9c3>@@@Z 000000018003d280 f i libucrt:mbctype.obj
 0001:0003c97c       __acrt_initialize_multibyte 000000018003d97c f   libucrt:mbctype.obj
 0001:0003c9a4       __acrt_update_thread_multibyte_data 000000018003d9a4 f   libucrt:mbctype.obj
 0001:0003ca64       _setmbcp_nolock            000000018003da64 f   libucrt:mbctype.obj
 0001:0003cd84       _ismbblead                 000000018003dd84 f   libucrt:ismbbyte.obj
 0001:0003cd98       __acrt_initialize_command_line 000000018003dd98 f   libucrt:argv_data.obj
 0001:0003cdc0       __acrt_uninitialize_command_line 000000018003ddc0 f   libucrt:argv_data.obj
 0001:0003cdc4       __dcrt_get_narrow_environment_from_os 000000018003ddc4 f   libucrt:get_environment_from_os.obj
 0001:0003cec8       _recalloc                  000000018003dec8 f   libucrt:recalloc.obj
 0001:0003ced0       _recalloc_base             000000018003ded0 f   libucrt:recalloc.obj
 0001:0003cf68       __acrt_initialize_heap     000000018003df68 f   libucrt:heap_handle.obj
 0001:0003cf84       __acrt_uninitialize_heap   000000018003df84 f   libucrt:heap_handle.obj
 0001:0003cf90       __acrt_execute_initializers 000000018003df90 f   libucrt:shared_initialization.obj
 0001:0003d024       __acrt_execute_uninitializers 000000018003e024 f   libucrt:shared_initialization.obj
 0001:0003d074       __acrt_has_user_matherr    000000018003e074 f   libucrt:matherr.obj
 0001:0003d094       __acrt_initialize_user_matherr 000000018003e094 f   libucrt:matherr.obj
 0001:0003d09c       __acrt_invoke_user_matherr 000000018003e09c f   libucrt:matherr.obj
 0001:0003d0e4       _query_new_mode            000000018003e0e4 f   libucrt:new_mode.obj
 0001:0003d0ec       __pctype_func              000000018003e0ec f   libucrt:ctype.obj
 0001:0003d11c       iswctype                   000000018003e11c f   libucrt:iswctype.obj
 0001:0003d18c       _isctype_l                 000000018003e18c f   libucrt:isctype.obj
 0001:0003d29c       ??$?RV<lambda_b521505b218e5242e90febf6bfebc422>@@AEAV<lambda_6978c1fb23f02e42e1d9e99668cc68aa>@@V<lambda_314360699dd331753a4119843814e9a7>@@@?$__crt_seh_guarded_call@H@@QEAAH$$QEAV<lambda_b521505b218e5242e90febf6bfebc422>@@AEAV<lambda_6978c1fb23f02e42e1d9e99668cc68aa>@@$$QEAV<lambda_314360699dd331753a4119843814e9a7>@@@Z 000000018003e29c f i libucrt:commit.obj
 0001:0003d328       _commit                    000000018003e328 f   libucrt:commit.obj
 0001:0003d3bc       __acrt_add_locale_ref      000000018003e3bc f   libucrt:locale_refcounting.obj
 0001:0003d448       __acrt_free_locale         000000018003e448 f   libucrt:locale_refcounting.obj
 0001:0003d5c0       __acrt_locale_add_lc_time_reference 000000018003e5c0 f   libucrt:locale_refcounting.obj
 0001:0003d5e8       __acrt_locale_free_lc_time_if_unreferenced 000000018003e5e8 f   libucrt:locale_refcounting.obj
 0001:0003d620       __acrt_locale_release_lc_time_reference 000000018003e620 f   libucrt:locale_refcounting.obj
 0001:0003d648       __acrt_release_locale_ref  000000018003e648 f   libucrt:locale_refcounting.obj
 0001:0003d6f0       __acrt_update_thread_locale_data 000000018003e6f0 f   libucrt:locale_refcounting.obj
 0001:0003d760       _updatetlocinfoEx_nolock   000000018003e760 f   libucrt:locale_refcounting.obj
 0001:0003d890       __acrt_DownlevelLocaleNameToLCID 000000018003e890 f   libucrt:lcidtoname_downlevel.obj
 0001:0003d8c4       _fclose_nolock             000000018003e8c4 f   libucrt:fclose.obj
 0001:0003d948       fclose                     000000018003e948 f   libucrt:fclose.obj
 0001:0003d9b4       __acrt_lowio_create_handle_array 000000018003e9b4 f   libucrt:osfinfo.obj
 0001:0003da4c       __acrt_lowio_destroy_handle_array 000000018003ea4c f   libucrt:osfinfo.obj
 0001:0003da9c       __acrt_lowio_ensure_fh_exists 000000018003ea9c f   libucrt:osfinfo.obj
 0001:0003db54       __acrt_lowio_lock_fh       000000018003eb54 f   libucrt:osfinfo.obj
 0001:0003db78       __acrt_lowio_unlock_fh     000000018003eb78 f   libucrt:osfinfo.obj
 0001:0003db9c       _free_osfhnd               000000018003eb9c f   libucrt:osfinfo.obj
 0001:0003dc58       _get_osfhandle             000000018003ec58 f   libucrt:osfinfo.obj
 0001:0003dcd0       _isleadbyte_l              000000018003ecd0 f i libucrt:_wctype.obj
 0001:0003e06c       __acrt_LCMapStringA        000000018003f06c f   libucrt:lcmapstringa.obj
 0001:0003e104       __acrt_fp_strflt_to_string 000000018003f104 f   libucrt:_fptostr.obj
 0001:0003e1d0       ?divide@__crt_strtox@@YA_KAEAUbig_integer@1@AEBU21@@Z 000000018003f1d0 f i libucrt:cfout.obj
 0001:0003e6a0       __acrt_fltout              000000018003f6a0 f   libucrt:cfout.obj
 0001:0003fa94       _isatty                    0000000180040a94 f   libucrt:isatty.obj
 0001:0003faf4       __acrt_locale_free_monetary 0000000180040af4 f   libucrt:initmon.obj
 0001:0003fc00       __acrt_locale_free_numeric 0000000180040c00 f   libucrt:initnum.obj
 0001:0003fcc4       __acrt_locale_free_time    0000000180040cc4 f   libucrt:inittime.obj
 0001:0003fdcc       __acrt_GetStringTypeA      0000000180040dcc f   libucrt:getstringtypea.obj
 0001:0003ff80       _raise_exc                 0000000180040f80 f   libucrt:fpexcept.obj
 0001:0003ffa8       _raise_exc_ex              0000000180040fa8 f   libucrt:fpexcept.obj
 0001:000402b0       _set_errno_from_matherr    00000001800412b0 f   libucrt:fpexcept.obj
 0001:000402e0       _clrfp                     00000001800412e0 f   libucrt:fpctrl.obj
 0001:00040300       _ctrlfp                    0000000180041300 f   libucrt:fpctrl.obj
 0001:0004037c       _set_statfp                000000018004137c f   libucrt:fpctrl.obj
 0001:0004039c       _statfp                    000000018004139c f   libucrt:fpctrl.obj
 0001:0004053c       _lseeki64                  000000018004153c f   libucrt:lseek.obj
 0001:00040544       _lseeki64_nolock           0000000180041544 f   libucrt:lseek.obj
 0001:0004054c       _putwch_nolock             000000018004154c f   libucrt:putwch.obj
 0001:000405a8       __acrt_stdio_allocate_buffer_nolock 00000001800415a8 f   libucrt:_getbuf.obj
 0001:000406e0       qsort                      00000001800416e0 f   libucrt:qsort.obj
 0001:00040a14       strncpy_s                  0000000180041a14 f   libucrt:strncpy_s.obj
 0001:00040ae8       strpbrk                    0000000180041ae8 f   libucrt:strpbrk.obj
 0001:00040b88       _mbsdec                    0000000180041b88 f   libucrt:mbsdec.obj
 0001:00040b90       _mbsdec_l                  0000000180041b90 f   libucrt:mbsdec.obj
 0001:00040c40       _msize                     0000000180041c40 f   libucrt:msize.obj
 0001:00040c7c       ??$?RV<lambda_bfedae4ebbf01fab1bb6dcc6a9e276e0>@@AEAV<lambda_2fe9b910cf3cbf4a0ab98a02ba45b3ec>@@V<lambda_237c231691f317818eb88cc1d5d642d6>@@@?$__crt_seh_guarded_call@H@@QEAAH$$QEAV<lambda_bfedae4ebbf01fab1bb6dcc6a9e276e0>@@AEAV<lambda_2fe9b910cf3cbf4a0ab98a02ba45b3ec>@@$$QEAV<lambda_237c231691f317818eb88cc1d5d642d6>@@@Z 0000000180041c7c f i libucrt:close.obj
 0001:00040cf0       _close                     0000000180041cf0 f   libucrt:close.obj
 0001:00040d94       _close_nolock              0000000180041d94 f   libucrt:close.obj
 0001:00040e50       ?__acrt_stdio_free_stream@@YAXV__crt_stdio_stream@@@Z 0000000180041e50 f   libucrt:stream.obj
 0001:00040e94       __strncnt                  0000000180041e94 f   libucrt:strncnt.obj
 0001:00040eac       fegetenv                   0000000180041eac f   libucrt:fegetenv.obj
 0001:00040ecc       fesetenv                   0000000180041ecc f   libucrt:fesetenv.obj
 0001:00040f18       feholdexcept               0000000180041f18 f   libucrt:feholdexcept.obj
 0001:00040f68       ceil                       0000000180041f68 f   libucrt:ceil.obj
 0001:00041030       log10                      0000000180042030 f   libucrt:log10.obj
 0001:000415f0       _get_fpsr                  00000001800425f0 f   libucrt:fpsr.obj
 0001:00041600       _set_fpsr                  0000000180042600 f   libucrt:fpsr.obj
 0001:0004160a       _fclrf                     000000018004260a f   libucrt:fpsr.obj
 0001:0004161e       _frnd                      000000018004261e f   libucrt:fpsr.obj
 0001:00041640       __dcrt_lowio_initialize_console_output 0000000180042640 f   libucrt:initcon.obj
 0001:0004167c       __dcrt_terminate_console_output 000000018004267c f   libucrt:initcon.obj
 0001:0004169c       _getfpcontrolword          000000018004269c f   libucrt:_fenvutils.obj
 0001:000416b4       _getfpstatusword           00000001800426b4 f   libucrt:_fenvutils.obj
 0001:000416c8       _setfpcontrolword          00000001800426c8 f   libucrt:_fenvutils.obj
 0001:000416d4       _setfpstatusword           00000001800426d4 f   libucrt:_fenvutils.obj
 0001:00041724       _clearfp                   0000000180042724 f   libucrt:ieee.obj
 0001:00041778       _controlfp                 0000000180042778 f   libucrt:ieee.obj
 0001:00041784       _statusfp                  0000000180042784 f   libucrt:ieee.obj
 0001:00041a70       __acrt_initialize_fma3     0000000180042a70 f   libucrt:fma3_available.obj
 0001:00041ae0       _log10_special             0000000180042ae0 f   libucrt:log_special.obj
 0001:00041b96       IsProcessorFeaturePresent  0000000180042b96 f   kernel32:KERNEL32.dll
 0001:00041b9c       RtlUnwindEx                0000000180042b9c f   kernel32:KERNEL32.dll
 0001:00041ba4       ?DloadAcquireSectionWriteAccess@@YAXXZ 0000000180042ba4 f i DelayImp:delayhlp.obj
 0001:00041c60       ?DloadGetSRWLockFunctionPointers@@YAEXZ 0000000180042c60 f i DelayImp:delayhlp.obj
 0001:00041cfc       ?DloadMakePermanentImageCommit@@YAXPEAX_K@Z 0000000180042cfc f i DelayImp:delayhlp.obj
 0001:00041d94       ?DloadObtainSection@@YAPEAXPEAK0@Z 0000000180042d94 f i DelayImp:delayhlp.obj
 0001:00041e2c       ?DloadProtectSection@@YAXKPEAK@Z 0000000180042e2c f i DelayImp:delayhlp.obj
 0001:00041ebc       ?DloadReleaseSectionWriteAccess@@YAXXZ 0000000180042ebc f i DelayImp:delayhlp.obj
 0001:00041f60       __delayLoadHelper2         0000000180042f60 f   DelayImp:delayhlp.obj
 0001:0004225c       __GSHandlerCheck           000000018004325c f   LIBCMT:_gshandler_.obj
 0001:0004227c       __GSHandlerCheckCommon     000000018004327c f   LIBCMT:_gshandler_.obj
 0001:000422e0       _FindPESection             00000001800432e0 f   LIBCMT:pesect.obj
 0001:00042330       _IsNonwritableInCurrentImage 0000000180043330 f   LIBCMT:pesect.obj
 0001:00042380       _ValidateImageBase         0000000180043380 f   LIBCMT:pesect.obj
 0001:000423c0       _alloca_probe              00000001800433c0 f   LIBCMT:_chkstk_.obj
 0001:000423c0       __chkstk                   00000001800433c0 f   LIBCMT:_chkstk_.obj
 0001:00042414       strrchr                    0000000180043414 f   libvcruntime:strrchr.obj
 0001:00042570       memcmp                     0000000180043570 f   libvcruntime:memcmp.obj
 0001:00042650       _guard_dispatch_icall_nop  0000000180043650 f   LIBCMT:_guard_dispatch_.obj
 0002:00000000       __imp_GetModuleHandleA     0000000180044000     kernel32:KERNEL32.dll
 0002:00000008       __imp_RtlCaptureContext    0000000180044008     kernel32:KERNEL32.dll
 0002:00000010       __imp_RtlLookupFunctionEntry 0000000180044010     kernel32:KERNEL32.dll
 0002:00000018       __imp_RtlVirtualUnwind     0000000180044018     kernel32:KERNEL32.dll
 0002:00000020       __imp_UnhandledExceptionFilter 0000000180044020     kernel32:KERNEL32.dll
 0002:00000028       __imp_SetUnhandledExceptionFilter 0000000180044028     kernel32:KERNEL32.dll
 0002:00000030       __imp_GetCurrentProcess    0000000180044030     kernel32:KERNEL32.dll
 0002:00000038       __imp_TerminateProcess     0000000180044038     kernel32:KERNEL32.dll
 0002:00000040       __imp_IsProcessorFeaturePresent 0000000180044040     kernel32:KERNEL32.dll
 0002:00000048       __imp_CloseHandle          0000000180044048     kernel32:KERNEL32.dll
 0002:00000050       __imp_EnterCriticalSection 0000000180044050     kernel32:KERNEL32.dll
 0002:00000058       __imp_LeaveCriticalSection 0000000180044058     kernel32:KERNEL32.dll
 0002:00000060       __imp_DeleteCriticalSection 0000000180044060     kernel32:KERNEL32.dll
 0002:00000068       __imp_SetEvent             0000000180044068     kernel32:KERNEL32.dll
 0002:00000070       __imp_ResetEvent           0000000180044070     kernel32:KERNEL32.dll
 0002:00000078       __imp_WaitForSingleObjectEx 0000000180044078     kernel32:KERNEL32.dll
 0002:00000080       __imp_CreateEventW         0000000180044080     kernel32:KERNEL32.dll
 0002:00000088       __imp_GetModuleHandleW     0000000180044088     kernel32:KERNEL32.dll
 0002:00000090       __imp_GetProcAddress       0000000180044090     kernel32:KERNEL32.dll
 0002:00000098       __imp_IsDebuggerPresent    0000000180044098     kernel32:KERNEL32.dll
 0002:000000a0       __imp_GetStartupInfoW      00000001800440a0     kernel32:KERNEL32.dll
 0002:000000a8       __imp_QueryPerformanceCounter 00000001800440a8     kernel32:KERNEL32.dll
 0002:000000b0       __imp_GetCurrentProcessId  00000001800440b0     kernel32:KERNEL32.dll
 0002:000000b8       __imp_GetCurrentThreadId   00000001800440b8     kernel32:KERNEL32.dll
 0002:000000c0       __imp_GetSystemTimeAsFileTime 00000001800440c0     kernel32:KERNEL32.dll
 0002:000000c8       __imp_InitializeSListHead  00000001800440c8     kernel32:KERNEL32.dll
 0002:000000d0       __imp_RtlPcToFileHeader    00000001800440d0     kernel32:KERNEL32.dll
 0002:000000d8       __imp_RaiseException       00000001800440d8     kernel32:KERNEL32.dll
 0002:000000e0       __imp_GetLastError         00000001800440e0     kernel32:KERNEL32.dll
 0002:000000e8       __imp_InitializeCriticalSectionAndSpinCount 00000001800440e8     kernel32:KERNEL32.dll
 0002:000000f0       __imp_TlsAlloc             00000001800440f0     kernel32:KERNEL32.dll
 0002:000000f8       __imp_TlsGetValue          00000001800440f8     kernel32:KERNEL32.dll
 0002:00000100       __imp_TlsSetValue          0000000180044100     kernel32:KERNEL32.dll
 0002:00000108       __imp_TlsFree              0000000180044108     kernel32:KERNEL32.dll
 0002:00000110       __imp_FreeLibrary          0000000180044110     kernel32:KERNEL32.dll
 0002:00000118       __imp_LoadLibraryExW       0000000180044118     kernel32:KERNEL32.dll
 0002:00000120       __imp_RtlUnwindEx          0000000180044120     kernel32:KERNEL32.dll
 0002:00000128       __imp_InterlockedFlushSList 0000000180044128     kernel32:KERNEL32.dll
 0002:00000130       __imp_SetLastError         0000000180044130     kernel32:KERNEL32.dll
 0002:00000138       __imp_EncodePointer        0000000180044138     kernel32:KERNEL32.dll
 0002:00000140       __imp_GetStdHandle         0000000180044140     kernel32:KERNEL32.dll
 0002:00000148       __imp_GetFileType          0000000180044148     kernel32:KERNEL32.dll
 0002:00000150       __imp_GetModuleFileNameA   0000000180044150     kernel32:KERNEL32.dll
 0002:00000158       __imp_GetModuleFileNameW   0000000180044158     kernel32:KERNEL32.dll
 0002:00000160       __imp_GetModuleHandleExW   0000000180044160     kernel32:KERNEL32.dll
 0002:00000168       __imp_WriteConsoleW        0000000180044168     kernel32:KERNEL32.dll
 0002:00000170       __imp_ExitProcess          0000000180044170     kernel32:KERNEL32.dll
 0002:00000178       __imp_MultiByteToWideChar  0000000180044178     kernel32:KERNEL32.dll
 0002:00000180       __imp_WideCharToMultiByte  0000000180044180     kernel32:KERNEL32.dll
 0002:00000188       __imp_HeapFree             0000000180044188     kernel32:KERNEL32.dll
 0002:00000190       __imp_HeapAlloc            0000000180044190     kernel32:KERNEL32.dll
 0002:00000198       __imp_HeapReAlloc          0000000180044198     kernel32:KERNEL32.dll
 0002:000001a0       __imp_WriteFile            00000001800441a0     kernel32:KERNEL32.dll
 0002:000001a8       __imp_OutputDebugStringW   00000001800441a8     kernel32:KERNEL32.dll
 0002:000001b0       __imp_CreateThread         00000001800441b0     kernel32:KERNEL32.dll
 0002:000001b8       __imp_LCMapStringW         00000001800441b8     kernel32:KERNEL32.dll
 0002:000001c0       __imp_GetACP               00000001800441c0     kernel32:KERNEL32.dll
 0002:000001c8       __imp_GetConsoleCP         00000001800441c8     kernel32:KERNEL32.dll
 0002:000001d0       __imp_GetConsoleMode       00000001800441d0     kernel32:KERNEL32.dll
 0002:000001d8       __imp_FindClose            00000001800441d8     kernel32:KERNEL32.dll
 0002:000001e0       __imp_FindFirstFileExA     00000001800441e0     kernel32:KERNEL32.dll
 0002:000001e8       __imp_FindNextFileA        00000001800441e8     kernel32:KERNEL32.dll
 0002:000001f0       __imp_IsValidCodePage      00000001800441f0     kernel32:KERNEL32.dll
 0002:000001f8       __imp_GetOEMCP             00000001800441f8     kernel32:KERNEL32.dll
 0002:00000200       __imp_GetCPInfo            0000000180044200     kernel32:KERNEL32.dll
 0002:00000208       __imp_GetCommandLineA      0000000180044208     kernel32:KERNEL32.dll
 0002:00000210       __imp_GetCommandLineW      0000000180044210     kernel32:KERNEL32.dll
 0002:00000218       __imp_GetEnvironmentStringsW 0000000180044218     kernel32:KERNEL32.dll
 0002:00000220       __imp_FreeEnvironmentStringsW 0000000180044220     kernel32:KERNEL32.dll
 0002:00000228       __imp_GetProcessHeap       0000000180044228     kernel32:KERNEL32.dll
 0002:00000230       __imp_GetStringTypeW       0000000180044230     kernel32:KERNEL32.dll
 0002:00000238       __imp_FlushFileBuffers     0000000180044238     kernel32:KERNEL32.dll
 0002:00000240       __imp_SetStdHandle         0000000180044240     kernel32:KERNEL32.dll
 0002:00000248       __imp_SetFilePointerEx     0000000180044248     kernel32:KERNEL32.dll
 0002:00000250       __imp_HeapSize             0000000180044250     kernel32:KERNEL32.dll
 0002:00000258       __imp_CreateFileW          0000000180044258     kernel32:KERNEL32.dll
 0002:00000260       __imp_GetSystemInfo        0000000180044260     kernel32:KERNEL32.dll
 0002:00000268       __imp_VirtualProtect       0000000180044268     kernel32:KERNEL32.dll
 0002:00000270       __imp_VirtualQuery         0000000180044270     kernel32:KERNEL32.dll
 0002:00000278       __imp_LoadLibraryExA       0000000180044278     kernel32:KERNEL32.dll
 0002:00000280       \177KERNEL32_NULL_THUNK_DATA 0000000180044280     kernel32:KERNEL32.dll
 0002:00000288       __guard_check_icall_fptr   0000000180044288     LIBCMT:guard_support.obj
 0002:00000290       __guard_dispatch_icall_fptr 0000000180044290     LIBCMT:guard_support.obj
 0002:00000298       __xc_a                     0000000180044298     LIBCMT:initializers.obj
 0002:000002a0       _register_addon_           00000001800442a0     addon.obj
 0002:000002a8       __xc_z                     00000001800442a8     LIBCMT:initializers.obj
 0002:000002b0       __xi_a                     00000001800442b0     LIBCMT:initializers.obj
 0002:000002c0       __acrt_stdio_initializer   00000001800442c0     libucrt:stdio_initializer.obj
 0002:000002c8       __acrt_multibyte_initializer 00000001800442c8     libucrt:multibyte_initializer.obj
 0002:000002d0       __acrt_tran_fma3_initializer 00000001800442d0     libucrt:fma3_initializer.obj
 0002:000002d8       __xi_z                     00000001800442d8     LIBCMT:initializers.obj
 0002:000002e0       __xl_a                     00000001800442e0     LIBCMT:tlssup.obj
 0002:000002e8       __xl_z                     00000001800442e8     LIBCMT:tlssup.obj
 0002:000002f0       __xp_a                     00000001800442f0     LIBCMT:initializers.obj
 0002:000002f8       __acrt_locale_terminator   00000001800442f8     libucrt:locale_initializer.obj
 0002:00000300       __dcrt_console_output_terminator 0000000180044300     libucrt:console_output_initializer.obj
 0002:00000308       __acrt_stdio_terminator    0000000180044308     libucrt:stdio_initializer.obj
 0002:00000310       __xp_z                     0000000180044310     LIBCMT:initializers.obj
 0002:00000318       __xt_a                     0000000180044318     LIBCMT:initializers.obj
 0002:00000320       __xt_z                     0000000180044320     LIBCMT:initializers.obj
 0002:00000330       __sz_node_exe              0000000180044330     node:node.exe
 0002:00000348       ??_7exception@std@@6B@     0000000180044348     libcpmt:xthrow.obj
 0002:00000358       ??_C@_0BC@EOODALEL@Unknown?5exception?$AA@ 0000000180044358     libcpmt:xthrow.obj
 0002:00000378       ??_7bad_alloc@std@@6B@     0000000180044378     libcpmt:xthrow.obj
 0002:00000388       ??_C@_0P@GHFPNOJB@bad?5allocation?$AA@ 0000000180044388     libcpmt:xthrow.obj
 0002:000003a0       ??_7logic_error@std@@6B@   00000001800443a0     libcpmt:xthrow.obj
 0002:000003b8       ??_7length_error@std@@6B@  00000001800443b8     libcpmt:xthrow.obj
 0002:000003d0       ??_7out_of_range@std@@6B@  00000001800443d0     libcpmt:xthrow.obj
 0002:000003f0       ??_C@_1BK@MGMFAEKH@?$AAk?$AAe?$AAr?$AAn?$AAe?$AAl?$AA3?$AA2?$AA?4?$AAd?$AAl?$AAl?$AA?$AA@ 00000001800443f0     LIBCMT:thread_safe_statics.obj
 0002:00000410       ??_C@_0BM@HLJJNPAH@InitializeConditionVariable?$AA@ 0000000180044410     LIBCMT:thread_safe_statics.obj
 0002:00000430       ??_C@_0BJ@JEBJOJFJ@SleepConditionVariableCS?$AA@ 0000000180044430     LIBCMT:thread_safe_statics.obj
 0002:00000450       ??_C@_0BJ@PGPPEPCC@WakeAllConditionVariable?$AA@ 0000000180044450     LIBCMT:thread_safe_statics.obj
 0002:00000498       _pDefaultRawDllMain        0000000180044498     LIBCMT:dll_dllmain.obj
 0002:00000498       _pRawDllMain               0000000180044498     LIBCMT:dll_dllmain.obj
 0002:000004a8       ??_7type_info@@6B@         00000001800444a8     LIBCMT:std_type_info_static.obj
 0002:000004b8       ??_7bad_array_new_length@std@@6B@ 00000001800444b8     LIBCMT:throw_bad_alloc.obj
 0002:000004c8       ??_C@_0BF@KINCDENJ@bad?5array?5new?5length?$AA@ 00000001800444c8     LIBCMT:throw_bad_alloc.obj
 0002:00000540       ??_C@_1BC@DNHGCMLG@?$AAa?$AAd?$AAv?$AAa?$AAp?$AAi?$AA3?$AA2?$AA?$AA@ 0000000180044540     libvcruntime:winapi_downlevel.obj
 0002:00000558       ??_C@_1DM@KHCHBNEB@?$AAa?$AAp?$AAi?$AA?9?$AAm?$AAs?$AA?9?$AAw?$AAi?$AAn?$AA?9?$AAc?$AAo?$AAr?$AAe?$AA?9?$AAf?$AAi?$AAb?$AAe?$AAr?$AAs?$AA?9?$AAl?$AA1?$AA?9?$AA1?$AA?9?$AA1?$AA?$AA@ 0000000180044558     libvcruntime:winapi_downlevel.obj
 0002:00000598       ??_C@_1DK@LPPGFMPP@?$AAa?$AAp?$AAi?$AA?9?$AAm?$AAs?$AA?9?$AAw?$AAi?$AAn?$AA?9?$AAc?$AAo?$AAr?$AAe?$AA?9?$AAs?$AAy?$AAn?$AAc?$AAh?$AA?9?$AAl?$AA1?$AA?9?$AA2?$AA?9?$AA0?$AA?$AA@ 0000000180044598     libvcruntime:winapi_downlevel.obj
 0002:000005d8       ??_C@_1BC@GDMECMAK@?$AAk?$AAe?$AAr?$AAn?$AAe?$AAl?$AA3?$AA2?$AA?$AA@ 00000001800445d8     libvcruntime:winapi_downlevel.obj
 0002:000005f8       ??_C@_08KNHFBNJ@FlsAlloc?$AA@ 00000001800445f8     libvcruntime:winapi_downlevel.obj
 0002:00000610       ??_C@_07PEJMOBNF@FlsFree?$AA@ 0000000180044610     libvcruntime:winapi_downlevel.obj
 0002:00000620       ??_C@_0M@GDNOONDI@FlsGetValue?$AA@ 0000000180044620     libvcruntime:winapi_downlevel.obj
 0002:00000638       ??_C@_0M@JCPCPOEF@FlsSetValue?$AA@ 0000000180044638     libvcruntime:winapi_downlevel.obj
 0002:00000650       ??_C@_0BM@HCFOFFN@InitializeCriticalSectionEx?$AA@ 0000000180044650     libvcruntime:winapi_downlevel.obj
 0002:00000708       _pDestructExceptionObject  0000000180044708     libvcruntime:frame.obj
 0002:00000718       ??_7bad_exception@std@@6B@ 0000000180044718     libvcruntime:frame.obj
 0002:00000728       ??_C@_0O@DPKOEFFH@bad?5exception?$AA@ 0000000180044728     libvcruntime:frame.obj
 0002:00000a60       ??_C@_08EHJDFFNH@__based?$CI?$AA@ 0000000180044a60     libvcruntime:undname.obj
 0002:00000a70       ??_C@_07KOLFKCDI@__cdecl?$AA@ 0000000180044a70     libvcruntime:undname.obj
 0002:00000a78       ??_C@_08GHMPAG@__pascal?$AA@ 0000000180044a78     libvcruntime:undname.obj
 0002:00000a88       ??_C@_09IFJBGAPI@__stdcall?$AA@ 0000000180044a88     libvcruntime:undname.obj
 0002:00000a98       ??_C@_0L@NPHFGOKO@__thiscall?$AA@ 0000000180044a98     libvcruntime:undname.obj
 0002:00000aa8       ??_C@_0L@JMKHOMEK@__fastcall?$AA@ 0000000180044aa8     libvcruntime:undname.obj
 0002:00000ab8       ??_C@_0N@BCKKPABJ@__vectorcall?$AA@ 0000000180044ab8     libvcruntime:undname.obj
 0002:00000ac8       ??_C@_09HIJEGCPM@__clrcall?$AA@ 0000000180044ac8     libvcruntime:undname.obj
 0002:00000ad4       ??_C@_06GHPCKEAG@__eabi?$AA@ 0000000180044ad4     libvcruntime:undname.obj
 0002:00000ae0       ??_C@_07JOMMBBKO@__ptr64?$AA@ 0000000180044ae0     libvcruntime:undname.obj
 0002:00000ae8       ??_C@_0L@PILCLIHE@__restrict?$AA@ 0000000180044ae8     libvcruntime:undname.obj
 0002:00000af8       ??_C@_0M@GFIIJFMG@__unaligned?$AA@ 0000000180044af8     libvcruntime:undname.obj
 0002:00000b08       ??_C@_09DHDLOLLB@restrict?$CI?$AA@ 0000000180044b08     libvcruntime:undname.obj
 0002:00000b14       ??_C@_04NIHEBCM@?5new?$AA@ 0000000180044b14     libvcruntime:undname.obj
 0002:00000b20       ??_C@_07FPCDHGMM@?5delete?$AA@ 0000000180044b20     libvcruntime:undname.obj
 0002:00000b28       ??_C@_01NEMOKFLO@?$DN?$AA@ 0000000180044b28     libvcruntime:undname.obj
 0002:00000b2c       ??_C@_02GPIOPFAK@?$DO?$DO?$AA@ 0000000180044b2c     libvcruntime:undname.obj
 0002:00000b30       ??_C@_02FODMEDOG@?$DM?$DM?$AA@ 0000000180044b30     libvcruntime:undname.obj
 0002:00000b34       ??_C@_01DCLJPIOD@?$CB?$AA@ 0000000180044b34     libvcruntime:undname.obj
 0002:00000b38       ??_C@_02EGOFBIJA@?$DN?$DN?$AA@ 0000000180044b38     libvcruntime:undname.obj
 0002:00000b3c       ??_C@_02FDNJECIE@?$CB?$DN?$AA@ 0000000180044b3c     libvcruntime:undname.obj
 0002:00000b40       ??_C@_02GPECMEKF@?$FL?$FN?$AA@ 0000000180044b40     libvcruntime:undname.obj
 0002:00000b48       ??_C@_08LHJFAFGD@operator?$AA@ 0000000180044b48     libvcruntime:undname.obj
 0002:00000b54       ??_C@_02HBOOOICD@?9?$DO?$AA@ 0000000180044b54     libvcruntime:undname.obj
 0002:00000b58       ??_C@_01NBENCBCI@?$CK?$AA@ 0000000180044b58     libvcruntime:undname.obj
 0002:00000b5c       ??_C@_02ECNGHCIF@?$CL?$CL?$AA@ 0000000180044b5c     libvcruntime:undname.obj
 0002:00000b60       ??_C@_02BAABKJLB@?9?9?$AA@ 0000000180044b60     libvcruntime:undname.obj
 0002:00000b64       ??_C@_01JOAMLHOP@?9?$AA@   0000000180044b64     libvcruntime:undname.obj
 0002:00000b68       ??_C@_01MIFGBAGJ@?$CL?$AA@ 0000000180044b68     libvcruntime:undname.obj
 0002:00000b6c       ??_C@_01HNPIGOCE@?$CG?$AA@ 0000000180044b6c     libvcruntime:undname.obj
 0002:00000b70       ??_C@_03MNHNFDLC@?9?$DO?$CK?$AA@ 0000000180044b70     libvcruntime:undname.obj
 0002:00000b74       ??_C@_01KMDKNFGN@?1?$AA@   0000000180044b74     libvcruntime:undname.obj
 0002:00000b78       ??_C@_01FGNFDNOH@?$CF?$AA@ 0000000180044b78     libvcruntime:undname.obj
 0002:00000b7c       ??_C@_01MNNFJEPP@?$DM?$AA@ 0000000180044b7c     libvcruntime:undname.obj
 0002:00000b80       ??_C@_02EHCHHCKH@?$DM?$DN?$AA@ 0000000180044b80     libvcruntime:undname.obj
 0002:00000b84       ??_C@_01PPODPGHN@?$DO?$AA@ 0000000180044b84     libvcruntime:undname.obj
 0002:00000b88       ??_C@_02EEKDKGMJ@?$DO?$DN?$AA@ 0000000180044b88     libvcruntime:undname.obj
 0002:00000b8c       ??_C@_02HCKGKOFO@?$CI?$CJ?$AA@ 0000000180044b8c     libvcruntime:undname.obj
 0002:00000b90       ??_C@_01PJKLJHI@?$HO?$AA@  0000000180044b90     libvcruntime:undname.obj
 0002:00000b94       ??_C@_01JKBOJNNK@?$FO?$AA@ 0000000180044b94     libvcruntime:undname.obj
 0002:00000b98       ??_C@_01DNKMNLPK@?$HM?$AA@ 0000000180044b98     libvcruntime:undname.obj
 0002:00000b9c       ??_C@_02PPKAJPJL@?$CG?$CG?$AA@ 0000000180044b9c     libvcruntime:undname.obj
 0002:00000ba0       ??_C@_02NONPIBCD@?$HM?$HM?$AA@ 0000000180044ba0     libvcruntime:undname.obj
 0002:00000ba4       ??_C@_02FPIMKNGF@?$CK?$DN?$AA@ 0000000180044ba4     libvcruntime:undname.obj
 0002:00000ba8       ??_C@_02FOEOMHFC@?$CL?$DN?$AA@ 0000000180044ba8     libvcruntime:undname.obj
 0002:00000bac       ??_C@_02FKMDLLOA@?9?$DN?$AA@ 0000000180044bac     libvcruntime:undname.obj
 0002:00000bb0       ??_C@_02FJEHGPIO@?1?$DN?$AA@ 0000000180044bb0     libvcruntime:undname.obj
 0002:00000bb4       ??_C@_02FENAOKFI@?$CF?$DN?$AA@ 0000000180044bb4     libvcruntime:undname.obj
 0002:00000bb8       ??_C@_03IKFCCPFF@?$DO?$DO?$DN?$AA@ 0000000180044bb8     libvcruntime:undname.obj
 0002:00000bbc       ??_C@_03CDNPDDLA@?$DM?$DM?$DN?$AA@ 0000000180044bbc     libvcruntime:undname.obj
 0002:00000bc0       ??_C@_02FGJGFEAB@?$CG?$DN?$AA@ 0000000180044bc0     libvcruntime:undname.obj
 0002:00000bc4       ??_C@_02DHLNPPGH@?$HM?$DN?$AA@ 0000000180044bc4     libvcruntime:undname.obj
 0002:00000bc8       ??_C@_02MHEGNOJ@?$FO?$DN?$AA@ 0000000180044bc8     libvcruntime:undname.obj
 0002:00000bd0       ??_C@_09IFPLHPGF@?$GAvftable?8?$AA@ 0000000180044bd0     libvcruntime:undname.obj
 0002:00000be0       ??_C@_09BLBHBJP@?$GAvbtable?8?$AA@ 0000000180044be0     libvcruntime:undname.obj
 0002:00000bf0       ??_C@_07FEEIOKP@?$GAvcall?8?$AA@ 0000000180044bf0     libvcruntime:undname.obj
 0002:00000bf8       ??_C@_08LLFFHHDJ@?$GAtypeof?8?$AA@ 0000000180044bf8     libvcruntime:undname.obj
 0002:00000c08       ??_C@_0BF@KDPPACIK@?$GAlocal?5static?5guard?8?$AA@ 0000000180044c08     libvcruntime:undname.obj
 0002:00000c20       ??_C@_08OBABFOLI@?$GAstring?8?$AA@ 0000000180044c20     libvcruntime:undname.obj
 0002:00000c30       ??_C@_0BD@JDLKDPAB@?$GAvbase?5destructor?8?$AA@ 0000000180044c30     libvcruntime:undname.obj
 0002:00000c48       ??_C@_0BN@DEGPLNFK@?$GAvector?5deleting?5destructor?8?$AA@ 0000000180044c48     libvcruntime:undname.obj
 0002:00000c68       ??_C@_0BO@OBMKPJIG@?$GAdefault?5constructor?5closure?8?$AA@ 0000000180044c68     libvcruntime:undname.obj
 0002:00000c88       ??_C@_0BN@IMDCHIKM@?$GAscalar?5deleting?5destructor?8?$AA@ 0000000180044c88     libvcruntime:undname.obj
 0002:00000ca8       ??_C@_0BO@PFGOCPJJ@?$GAvector?5constructor?5iterator?8?$AA@ 0000000180044ca8     libvcruntime:undname.obj
 0002:00000cc8       ??_C@_0BN@LFPFMEDL@?$GAvector?5destructor?5iterator?8?$AA@ 0000000180044cc8     libvcruntime:undname.obj
 0002:00000ce8       ??_C@_0CE@IKBNEHA@?$GAvector?5vbase?5constructor?5iterat@ 0000000180044ce8     libvcruntime:undname.obj
 0002:00000d10       ??_C@_0BL@NILFHHPC@?$GAvirtual?5displacement?5map?8?$AA@ 0000000180044d10     libvcruntime:undname.obj
 0002:00000d30       ??_C@_0CB@JONCMFFK@?$GAeh?5vector?5constructor?5iterator?8@ 0000000180044d30     libvcruntime:undname.obj
 0002:00000d58       ??_C@_0CA@GCEOPDGL@?$GAeh?5vector?5destructor?5iterator?8?$AA@ 0000000180044d58     libvcruntime:undname.obj
 0002:00000d78       ??_C@_0CH@OOJPLCPH@?$GAeh?5vector?5vbase?5constructor?5ite@ 0000000180044d78     libvcruntime:undname.obj
 0002:00000da0       ??_C@_0BL@LLKPOHJI@?$GAcopy?5constructor?5closure?8?$AA@ 0000000180044da0     libvcruntime:undname.obj
 0002:00000dc0       ??_C@_0BA@KBCDOMBN@?$GAudt?5returning?8?$AA@ 0000000180044dc0     libvcruntime:undname.obj
 0002:00000dd0       ??_C@_03KLGMFNMG@?$GAEH?$AA@ 0000000180044dd0     libvcruntime:undname.obj
 0002:00000dd4       ??_C@_05KHLCHHI@?$GARTTI?$AA@ 0000000180044dd4     libvcruntime:undname.obj
 0002:00000de0       ??_C@_0BA@KKLDJDLB@?$GAlocal?5vftable?8?$AA@ 0000000180044de0     libvcruntime:undname.obj
 0002:00000df0       ??_C@_0CE@IIHCMGGL@?$GAlocal?5vftable?5constructor?5closu@ 0000000180044df0     libvcruntime:undname.obj
 0002:00000e14       ??_C@_06FHBGPFGH@?5new?$FL?$FN?$AA@ 0000000180044e14     libvcruntime:undname.obj
 0002:00000e20       ??_C@_09LBNFPBCA@?5delete?$FL?$FN?$AA@ 0000000180044e20     libvcruntime:undname.obj
 0002:00000e30       ??_C@_0P@HJKNJFNN@?$GAomni?5callsig?8?$AA@ 0000000180044e30     libvcruntime:undname.obj
 0002:00000e40       ??_C@_0BL@CNOONJFP@?$GAplacement?5delete?5closure?8?$AA@ 0000000180044e40     libvcruntime:undname.obj
 0002:00000e60       ??_C@_0BN@CKNJLHMB@?$GAplacement?5delete?$FL?$FN?5closure?8?$AA@ 0000000180044e60     libvcruntime:undname.obj
 0002:00000e80       ??_C@_0CG@CFDHKGGD@?$GAmanaged?5vector?5constructor?5iter@ 0000000180044e80     libvcruntime:undname.obj
 0002:00000ea8       ??_C@_0CF@IMGKMJNO@?$GAmanaged?5vector?5destructor?5itera@ 0000000180044ea8     libvcruntime:undname.obj
 0002:00000ed0       ??_C@_0CG@HLDDJMAG@?$GAeh?5vector?5copy?5constructor?5iter@ 0000000180044ed0     libvcruntime:undname.obj
 0002:00000ef8       ??_C@_0CM@FCBBDIGB@?$GAeh?5vector?5vbase?5copy?5constructo@ 0000000180044ef8     libvcruntime:undname.obj
 0002:00000f28       ??_C@_0BL@CLIPGLGB@?$GAdynamic?5initializer?5for?5?8?$AA@ 0000000180044f28     libvcruntime:undname.obj
 0002:00000f48       ??_C@_0CB@PDBIFEP@?$GAdynamic?5atexit?5destructor?5for?5?8@ 0000000180044f48     libvcruntime:undname.obj
 0002:00000f70       ??_C@_0CD@CGAJBKEJ@?$GAvector?5copy?5constructor?5iterato@ 0000000180044f70     libvcruntime:undname.obj
 0002:00000f98       ??_C@_0CJ@GJELGAMM@?$GAvector?5vbase?5copy?5constructor?5i@ 0000000180044f98     libvcruntime:undname.obj
 0002:00000fc8       ??_C@_0CL@FGIJHLCE@?$GAmanaged?5vector?5copy?5constructor@ 0000000180044fc8     libvcruntime:undname.obj
 0002:00000ff8       ??_C@_0BM@PMGGMLDN@?$GAlocal?5static?5thread?5guard?8?$AA@ 0000000180044ff8     libvcruntime:undname.obj
 0002:00001018       ??_C@_0N@BDNMDMOL@operator?5?$CC?$CC?5?$AA@ 0000000180045018     libvcruntime:undname.obj
 0002:00001028       ??_C@_0BC@DAFEJGAK@?5Type?5Descriptor?8?$AA@ 0000000180045028     libvcruntime:undname.obj
 0002:00001040       ??_C@_0BM@LDKODKLH@?5Base?5Class?5Descriptor?5at?5?$CI?$AA@ 0000000180045040     libvcruntime:undname.obj
 0002:00001060       ??_C@_0BD@LGICGFMM@?5Base?5Class?5Array?8?$AA@ 0000000180045060     libvcruntime:undname.obj
 0002:00001078       ??_C@_0BN@MECKDCOJ@?5Class?5Hierarchy?5Descriptor?8?$AA@ 0000000180045078     libvcruntime:undname.obj
 0002:00001098       ??_C@_0BK@CFCOFLF@?5Complete?5Object?5Locator?8?$AA@ 0000000180045098     libvcruntime:undname.obj
 0002:000010c0       ??_C@_1EK@MBDPDCGA@?$AAM?$AAi?$AAc?$AAr?$AAo?$AAs?$AAo?$AAf?$AAt?$AA?5?$AAV?$AAi?$AAs?$AAu?$AAa?$AAl?$AA?5?$AAC?$AA?$CL?$AA?$CL?$AA?5?$AAR?$AAu?$AAn?$AAt?$AAi?$AAm?$AAe?$AA?5?$AAL?$AAi?$AAb@ 00000001800450c0     libucrt:assert.obj
 0002:00001110       ??_C@_1FE@LHBLIKM@?$AAA?$AAs?$AAs?$AAe?$AAr?$AAt?$AAi?$AAo?$AAn?$AA?5?$AAf?$AAa?$AAi?$AAl?$AAe?$AAd?$AA?3?$AA?5?$AA?$CF?$AAT?$AAs?$AA?0?$AA?5?$AAf?$AAi?$AAl?$AAe?$AA?5?$AA?$CF?$AAT?$AAs?$AA?0@ 0000000180045110     libucrt:assert.obj
 0002:00001168       ??_C@_1CE@OJBNHDMO@?$AAA?$AAs?$AAs?$AAe?$AAr?$AAt?$AAi?$AAo?$AAn?$AA?5?$AAf?$AAa?$AAi?$AAl?$AAe?$AAd?$AA?$CB?$AA?$AA@ 0000000180045168     libucrt:assert.obj
 0002:00001190       ??_C@_1BE@PHKBBGE@?$AAP?$AAr?$AAo?$AAg?$AAr?$AAa?$AAm?$AA?3?$AA?5?$AA?$AA@ 0000000180045190     libucrt:assert.obj
 0002:000011a8       ??_C@_1O@HEMHKNDC@?$AAF?$AAi?$AAl?$AAe?$AA?3?$AA?5?$AA?$AA@ 00000001800451a8     libucrt:assert.obj
 0002:000011b8       ??_C@_1O@KCAFKHJE@?$AAL?$AAi?$AAn?$AAe?$AA?3?$AA?5?$AA?$AA@ 00000001800451b8     libucrt:assert.obj
 0002:000011c8       ??_C@_1BK@PEDCIPMA@?$AAE?$AAx?$AAp?$AAr?$AAe?$AAs?$AAs?$AAi?$AAo?$AAn?$AA?3?$AA?5?$AA?$AA@ 00000001800451c8     libucrt:assert.obj
 0002:000011f0       ??_C@_1OA@EGMLFBHJ@?$AAF?$AAo?$AAr?$AA?5?$AAi?$AAn?$AAf?$AAo?$AAr?$AAm?$AAa?$AAt?$AAi?$AAo?$AAn?$AA?5?$AAo?$AAn?$AA?5?$AAh?$AAo?$AAw?$AA?5?$AAy?$AAo?$AAu?$AAr?$AA?5?$AAp?$AAr?$AAo?$AAg@ 00000001800451f0     libucrt:assert.obj
 0002:000012d0       ??_C@_1HK@POCJMFGK@?$AA?$CI?$AAP?$AAr?$AAe?$AAs?$AAs?$AA?5?$AAR?$AAe?$AAt?$AAr?$AAy?$AA?5?$AAt?$AAo?$AA?5?$AAd?$AAe?$AAb?$AAu?$AAg?$AA?5?$AAt?$AAh?$AAe?$AA?5?$AAa?$AAp?$AAp?$AAl?$AAi?$AAc@ 00000001800452d0     libucrt:assert.obj
 0002:00001350       ??_C@_17LGKOMLJ@?$AA?4?$AA?4?$AA?4?$AA?$AA@ 0000000180045350     libucrt:assert.obj
 0002:00001358       ??_C@_13LBAGMAIH@?$AA?6?$AA?$AA@ 0000000180045358     libucrt:assert.obj
 0002:0000135c       ??_C@_15IABLJNFO@?$AA?6?$AA?6?$AA?$AA@ 000000018004535c     libucrt:assert.obj
 0002:00001368       ??_C@_1CO@EAEJAADC@?$AA?$DM?$AAp?$AAr?$AAo?$AAg?$AAr?$AAa?$AAm?$AA?5?$AAn?$AAa?$AAm?$AAe?$AA?5?$AAu?$AAn?$AAk?$AAn?$AAo?$AAw?$AAn?$AA?$DO?$AA?$AA@ 0000000180045368     libucrt:assert.obj
 0002:000013a0       standard_lookup_table      00000001800453a0     libucrt:output.obj
 0002:000013fc       ??_C@_06OJHGLDPL@?$CInull?$CJ?$AA@ 00000001800453fc     libucrt:output.obj
 0002:00001408       ??_C@_1O@CEDCILHN@?$AA?$CI?$AAn?$AAu?$AAl?$AAl?$AA?$CJ?$AA?$AA@ 0000000180045408     libucrt:output.obj
 0002:00001838       ??_C@_04KGLCPMCP@log2?$AA@ 0000000180045838     libucrt:log2.obj
 0002:00001840       __real@03d0000000000000    0000000180045840     libucrt:log2.obj
 0002:00001848       __real@3ecb295c17f0bbbe    0000000180045848     libucrt:log2.obj
 0002:00001850       __real@3f3c8034c85dfff0    0000000180045850     libucrt:log2.obj
 0002:00001858       __real@3f62492307f1519f    0000000180045858     libucrt:log2.obj
 0002:00001860       __real@3f6249423bd94741    0000000180045860     libucrt:log2.obj
 0002:00001868       __real@3f80000000000000    0000000180045868     libucrt:log2.obj
 0002:00001870       __real@3f89999999865ede    0000000180045870     libucrt:log2.obj
 0002:00001878       __real@3f89999999bac6d4    0000000180045878     libucrt:log2.obj
 0002:00001880       __real@3fb55555555554e6    0000000180045880     libucrt:log2.obj
 0002:00001888       __real@3fb5555555555557    0000000180045888     libucrt:log2.obj
 0002:00001890       __real@3ff0000000000000    0000000180045890     libucrt:log2.obj
 0002:00001898       __real@3ff7154400000000    0000000180045898     libucrt:log2.obj
 0002:000018a0       __acrt_exception_action_table 00000001800458a0     libucrt:exception_filter.obj
 0002:00001960       __acrt_signal_action_table_count 0000000180045960     libucrt:exception_filter.obj
 0002:00001968       __acrt_signal_action_first_fpe_index 0000000180045968     libucrt:exception_filter.obj
 0002:00001970       __acrt_signal_action_fpe_count 0000000180045970     libucrt:exception_filter.obj
 0002:00001978       ??_C@_1BI@BGOHAHKC@?$AAm?$AAs?$AAc?$AAo?$AAr?$AAe?$AAe?$AA?4?$AAd?$AAl?$AAl?$AA?$AA@ 0000000180045978     libucrt:exit.obj
 0002:00001990       ??_C@_0P@MIGLKIOC@CorExitProcess?$AA@ 0000000180045990     libucrt:exit.obj
 0002:00001ca0       ??_C@_1EG@CNNIPFIM@?$AAa?$AAp?$AAi?$AA?9?$AAm?$AAs?$AA?9?$AAw?$AAi?$AAn?$AA?9?$AAa?$AAp?$AAp?$AAm?$AAo?$AAd?$AAe?$AAl?$AA?9?$AAr?$AAu?$AAn?$AAt?$AAi?$AAm?$AAe?$AA?9?$AAl?$AA1?$AA?9?$AA1@ 0000000180045ca0     libucrt:winapi_thunks.obj
 0002:00001cf0       ??_C@_1EA@JGEFHKEI@?$AAa?$AAp?$AAi?$AA?9?$AAm?$AAs?$AA?9?$AAw?$AAi?$AAn?$AA?9?$AAc?$AAo?$AAr?$AAe?$AA?9?$AAd?$AAa?$AAt?$AAe?$AAt?$AAi?$AAm?$AAe?$AA?9?$AAl?$AA1?$AA?9?$AA1?$AA?9?$AA1?$AA?$AA@ 0000000180045cf0     libucrt:winapi_thunks.obj
 0002:00001d30       ??_C@_1DI@GCIAAENM@?$AAa?$AAp?$AAi?$AA?9?$AAm?$AAs?$AA?9?$AAw?$AAi?$AAn?$AA?9?$AAc?$AAo?$AAr?$AAe?$AA?9?$AAf?$AAi?$AAl?$AAe?$AA?9?$AAl?$AA2?$AA?9?$AA1?$AA?9?$AA1?$AA?$AA@ 0000000180045d30     libucrt:winapi_thunks.obj
 0002:00001d70       ??_C@_1EI@MPIAOHOC@?$AAa?$AAp?$AAi?$AA?9?$AAm?$AAs?$AA?9?$AAw?$AAi?$AAn?$AA?9?$AAc?$AAo?$AAr?$AAe?$AA?9?$AAl?$AAo?$AAc?$AAa?$AAl?$AAi?$AAz?$AAa?$AAt?$AAi?$AAo?$AAn?$AA?9?$AAl?$AA1?$AA?9@ 0000000180045d70     libucrt:winapi_thunks.obj
 0002:00001dc0       ??_C@_1FK@FPHCKFIE@?$AAa?$AAp?$AAi?$AA?9?$AAm?$AAs?$AA?9?$AAw?$AAi?$AAn?$AA?9?$AAc?$AAo?$AAr?$AAe?$AA?9?$AAl?$AAo?$AAc?$AAa?$AAl?$AAi?$AAz?$AAa?$AAt?$AAi?$AAo?$AAn?$AA?9?$AAo?$AAb?$AAs@ 0000000180045dc0     libucrt:winapi_thunks.obj
 0002:00001e20       ??_C@_1EM@DILCGIIO@?$AAa?$AAp?$AAi?$AA?9?$AAm?$AAs?$AA?9?$AAw?$AAi?$AAn?$AA?9?$AAc?$AAo?$AAr?$AAe?$AA?9?$AAp?$AAr?$AAo?$AAc?$AAe?$AAs?$AAs?$AAt?$AAh?$AAr?$AAe?$AAa?$AAd?$AAs?$AA?9?$AAl@ 0000000180045e20     libucrt:winapi_thunks.obj
 0002:00001e70       ??_C@_1DM@LNCGDDPN@?$AAa?$AAp?$AAi?$AA?9?$AAm?$AAs?$AA?9?$AAw?$AAi?$AAn?$AA?9?$AAc?$AAo?$AAr?$AAe?$AA?9?$AAs?$AAt?$AAr?$AAi?$AAn?$AAg?$AA?9?$AAl?$AA1?$AA?9?$AA1?$AA?9?$AA0?$AA?$AA@ 0000000180045e70     libucrt:winapi_thunks.obj
 0002:00001eb0       ??_C@_1DO@FPAPJEMD@?$AAa?$AAp?$AAi?$AA?9?$AAm?$AAs?$AA?9?$AAw?$AAi?$AAn?$AA?9?$AAc?$AAo?$AAr?$AAe?$AA?9?$AAs?$AAy?$AAs?$AAi?$AAn?$AAf?$AAo?$AA?9?$AAl?$AA1?$AA?9?$AA2?$AA?9?$AA1?$AA?$AA@ 0000000180045eb0     libucrt:winapi_thunks.obj
 0002:00001ef0       ??_C@_1DK@NDHNAHIO@?$AAa?$AAp?$AAi?$AA?9?$AAm?$AAs?$AA?9?$AAw?$AAi?$AAn?$AA?9?$AAc?$AAo?$AAr?$AAe?$AA?9?$AAw?$AAi?$AAn?$AAr?$AAt?$AA?9?$AAl?$AA1?$AA?9?$AA1?$AA?9?$AA0?$AA?$AA@ 0000000180045ef0     libucrt:winapi_thunks.obj
 0002:00001f30       ??_C@_1DM@KGHDGBCM@?$AAa?$AAp?$AAi?$AA?9?$AAm?$AAs?$AA?9?$AAw?$AAi?$AAn?$AA?9?$AAc?$AAo?$AAr?$AAe?$AA?9?$AAx?$AAs?$AAt?$AAa?$AAt?$AAe?$AA?9?$AAl?$AA2?$AA?9?$AA1?$AA?9?$AA0?$AA?$AA@ 0000000180045f30     libucrt:winapi_thunks.obj
 0002:00001f70       ??_C@_1EO@IJIOEFOH@?$AAa?$AAp?$AAi?$AA?9?$AAm?$AAs?$AA?9?$AAw?$AAi?$AAn?$AA?9?$AAr?$AAt?$AAc?$AAo?$AAr?$AAe?$AA?9?$AAn?$AAt?$AAu?$AAs?$AAe?$AAr?$AA?9?$AAw?$AAi?$AAn?$AAd?$AAo?$AAw?$AA?9@ 0000000180045f70     libucrt:winapi_thunks.obj
 0002:00001fc0       ??_C@_1FG@HHGEKANL@?$AAa?$AAp?$AAi?$AA?9?$AAm?$AAs?$AA?9?$AAw?$AAi?$AAn?$AA?9?$AAs?$AAe?$AAc?$AAu?$AAr?$AAi?$AAt?$AAy?$AA?9?$AAs?$AAy?$AAs?$AAt?$AAe?$AAm?$AAf?$AAu?$AAn?$AAc?$AAt?$AAi@ 0000000180045fc0     libucrt:winapi_thunks.obj
 0002:00002020       ??_C@_1FG@NCKKOLKO@?$AAe?$AAx?$AAt?$AA?9?$AAm?$AAs?$AA?9?$AAw?$AAi?$AAn?$AA?9?$AAk?$AAe?$AAr?$AAn?$AAe?$AAl?$AA3?$AA2?$AA?9?$AAp?$AAa?$AAc?$AAk?$AAa?$AAg?$AAe?$AA?9?$AAc?$AAu?$AAr?$AAr@ 0000000180046020     libucrt:winapi_thunks.obj
 0002:00002080       ??_C@_1EG@DBIOJECG@?$AAe?$AAx?$AAt?$AA?9?$AAm?$AAs?$AA?9?$AAw?$AAi?$AAn?$AA?9?$AAn?$AAt?$AAu?$AAs?$AAe?$AAr?$AA?9?$AAd?$AAi?$AAa?$AAl?$AAo?$AAg?$AAb?$AAo?$AAx?$AA?9?$AAl?$AA1?$AA?9?$AA1@ 0000000180046080     libucrt:winapi_thunks.obj
 0002:000020d0       ??_C@_1EO@FIHMJCLF@?$AAe?$AAx?$AAt?$AA?9?$AAm?$AAs?$AA?9?$AAw?$AAi?$AAn?$AA?9?$AAn?$AAt?$AAu?$AAs?$AAe?$AAr?$AA?9?$AAw?$AAi?$AAn?$AAd?$AAo?$AAw?$AAs?$AAt?$AAa?$AAt?$AAi?$AAo?$AAn?$AA?9@ 00000001800460d0     libucrt:winapi_thunks.obj
 0002:00002120       ??_C@_1O@BCCLBEOE@?$AAu?$AAs?$AAe?$AAr?$AA3?$AA2?$AA?$AA@ 0000000180046120     libucrt:winapi_thunks.obj
 0002:00002158       ??_C@_0BA@HNOPNCHB@GetActiveWindow?$AA@ 0000000180046158     libucrt:winapi_thunks.obj
 0002:00002170       ??_C@_0BE@JOGNEJCI@GetCurrentPackageId?$AA@ 0000000180046170     libucrt:winapi_thunks.obj
 0002:00002190       ??_C@_0BD@HHGDFDBJ@GetLastActivePopup?$AA@ 0000000180046190     libucrt:winapi_thunks.obj
 0002:000021b0       ??_C@_0BI@DFKBFLJE@GetProcessWindowStation?$AA@ 00000001800461b0     libucrt:winapi_thunks.obj
 0002:000021d0       ??_C@_0BK@DEKFELLI@GetUserObjectInformationW?$AA@ 00000001800461d0     libucrt:winapi_thunks.obj
 0002:00002200       ??_C@_0O@KKBNKAPF@LCMapStringEx?$AA@ 0000000180046200     libucrt:winapi_thunks.obj
 0002:00002218       ??_C@_0BB@HBDEELFH@LocaleNameToLCID?$AA@ 0000000180046218     libucrt:winapi_thunks.obj
 0002:00002238       ??_C@_0M@CHKKJDAI@MessageBoxA?$AA@ 0000000180046238     libucrt:winapi_thunks.obj
 0002:00002250       ??_C@_0M@DLDCCGNP@MessageBoxW?$AA@ 0000000180046250     libucrt:winapi_thunks.obj
 0002:0000225c       ??_C@_03OEIAHPBN@INF?$AA@  000000018004625c     libucrt:cvt.obj
 0002:00002260       ??_C@_03OJHLLCGB@inf?$AA@  0000000180046260     libucrt:cvt.obj
 0002:00002264       ??_C@_03LKNCIKJB@NAN?$AA@  0000000180046264     libucrt:cvt.obj
 0002:00002268       ??_C@_03LHCJEHON@nan?$AA@  0000000180046268     libucrt:cvt.obj
 0002:00002270       ??_C@_09OFJJIMPC@NAN?$CISNAN?$CJ?$AA@ 0000000180046270     libucrt:cvt.obj
 0002:00002280       ??_C@_09IPFBKMDL@nan?$CIsnan?$CJ?$AA@ 0000000180046280     libucrt:cvt.obj
 0002:00002290       ??_C@_08IKHNHAJ@NAN?$CIIND?$CJ?$AA@ 0000000180046290     libucrt:cvt.obj
 0002:000022a0       ??_C@_08OFCDMILK@nan?$CIind?$CJ?$AA@ 00000001800462a0     libucrt:cvt.obj
 0002:000022ac       ??_C@_05KLBDPFGC@e?$CL000?$AA@ 00000001800462ac     libucrt:cvt.obj
 0002:000022c0       __lc_time_c                00000001800462c0     libucrt:nlsdata.obj
 0002:00002580       ??_C@_03KOEHGMDN@Sun?$AA@  0000000180046580     libucrt:nlsdata.obj
 0002:00002584       ??_C@_03PDAGKDH@Mon?$AA@   0000000180046584     libucrt:nlsdata.obj
 0002:00002588       ??_C@_03NAGEINEP@Tue?$AA@  0000000180046588     libucrt:nlsdata.obj
 0002:0000258c       ??_C@_03MHOMLAJA@Wed?$AA@  000000018004658c     libucrt:nlsdata.obj
 0002:00002590       ??_C@_03IOFIKPDN@Thu?$AA@  0000000180046590     libucrt:nlsdata.obj
 0002:00002594       ??_C@_03IDIOELNC@Fri?$AA@  0000000180046594     libucrt:nlsdata.obj
 0002:00002598       ??_C@_03FEFJNEK@Sat?$AA@   0000000180046598     libucrt:nlsdata.obj
 0002:0000259c       ??_C@_06OOPIFAJ@Sunday?$AA@ 000000018004659c     libucrt:nlsdata.obj
 0002:000025a4       ??_C@_06JLEDEDGH@Monday?$AA@ 00000001800465a4     libucrt:nlsdata.obj
 0002:000025b0       ??_C@_07BAAGCFCM@Tuesday?$AA@ 00000001800465b0     libucrt:nlsdata.obj
 0002:000025b8       ??_C@_09DLIGFAKA@Wednesday?$AA@ 00000001800465b8     libucrt:nlsdata.obj
 0002:000025c8       ??_C@_08HACCIKIA@Thursday?$AA@ 00000001800465c8     libucrt:nlsdata.obj
 0002:000025d4       ??_C@_06JECMNKMI@Friday?$AA@ 00000001800465d4     libucrt:nlsdata.obj
 0002:000025e0       ??_C@_08INBOOONO@Saturday?$AA@ 00000001800465e0     libucrt:nlsdata.obj
 0002:000025ec       ??_C@_03JIHJHPIE@Jan?$AA@  00000001800465ec     libucrt:nlsdata.obj
 0002:000025f0       ??_C@_03HJBDCHOM@Feb?$AA@  00000001800465f0     libucrt:nlsdata.obj
 0002:000025f4       ??_C@_03ODNJBKGA@Mar?$AA@  00000001800465f4     libucrt:nlsdata.obj
 0002:000025f8       ??_C@_03LEOLGMJP@Apr?$AA@  00000001800465f8     libucrt:nlsdata.obj
 0002:000025fc       ??_C@_03CNMDKL@May?$AA@    00000001800465fc     libucrt:nlsdata.obj
 0002:00002600       ??_C@_03IDFGHECI@Jun?$AA@  0000000180046600     libucrt:nlsdata.obj
 0002:00002604       ??_C@_03LBGABGKK@Jul?$AA@  0000000180046604     libucrt:nlsdata.obj
 0002:00002608       ??_C@_03IFJFEIGA@Aug?$AA@  0000000180046608     libucrt:nlsdata.obj
 0002:0000260c       ??_C@_03GGCAPAJC@Sep?$AA@  000000018004660c     libucrt:nlsdata.obj
 0002:00002610       ??_C@_03BMAOKBAD@Oct?$AA@  0000000180046610     libucrt:nlsdata.obj
 0002:00002614       ??_C@_03JPJOFNIA@Nov?$AA@  0000000180046614     libucrt:nlsdata.obj
 0002:00002618       ??_C@_03MKABNOCG@Dec?$AA@  0000000180046618     libucrt:nlsdata.obj
 0002:00002620       ??_C@_07CGJPFGJA@January?$AA@ 0000000180046620     libucrt:nlsdata.obj
 0002:00002628       ??_C@_08GNJGEPFN@February?$AA@ 0000000180046628     libucrt:nlsdata.obj
 0002:00002634       ??_C@_05HPCKOFNC@March?$AA@ 0000000180046634     libucrt:nlsdata.obj
 0002:0000263c       ??_C@_05DMJDNLEJ@April?$AA@ 000000018004663c     libucrt:nlsdata.obj
 0002:00002644       ??_C@_04CNLMGBGM@June?$AA@ 0000000180046644     libucrt:nlsdata.obj
 0002:0000264c       ??_C@_04MIEPOIFP@July?$AA@ 000000018004664c     libucrt:nlsdata.obj
 0002:00002654       ??_C@_06LBBHFDDG@August?$AA@ 0000000180046654     libucrt:nlsdata.obj
 0002:00002660       ??_C@_09BHHEALKD@September?$AA@ 0000000180046660     libucrt:nlsdata.obj
 0002:00002670       ??_C@_07JJNFCEND@October?$AA@ 0000000180046670     libucrt:nlsdata.obj
 0002:00002678       ??_C@_08HCHEGEOA@November?$AA@ 0000000180046678     libucrt:nlsdata.obj
 0002:00002688       ??_C@_08EDHMEBNP@December?$AA@ 0000000180046688     libucrt:nlsdata.obj
 0002:00002694       ??_C@_02DEDBPAFC@AM?$AA@   0000000180046694     libucrt:nlsdata.obj
 0002:00002698       ??_C@_02CJNFDJBF@PM?$AA@   0000000180046698     libucrt:nlsdata.obj
 0002:000026a0       ??_C@_08BPBNCDIB@MM?1dd?1yy?$AA@ 00000001800466a0     libucrt:nlsdata.obj
 0002:000026b0       ??_C@_0BE@CKGJFCPC@dddd?0?5MMMM?5dd?0?5yyyy?$AA@ 00000001800466b0     libucrt:nlsdata.obj
 0002:000026c8       ??_C@_08JCCMCCIL@HH?3mm?3ss?$AA@ 00000001800466c8     libucrt:nlsdata.obj
 0002:000026d8       ??_C@_17MBGCMIPB@?$AAS?$AAu?$AAn?$AA?$AA@ 00000001800466d8     libucrt:nlsdata.obj
 0002:000026e0       ??_C@_17KBOMKBF@?$AAM?$AAo?$AAn?$AA?$AA@ 00000001800466e0     libucrt:nlsdata.obj
 0002:000026e8       ??_C@_17BMKGEGOJ@?$AAT?$AAu?$AAe?$AA?$AA@ 00000001800466e8     libucrt:nlsdata.obj
 0002:000026f0       ??_C@_17CJEDCEPE@?$AAW?$AAe?$AAd?$AA?$AA@ 00000001800466f0     libucrt:nlsdata.obj
 0002:000026f8       ??_C@_17PDPHAADD@?$AAT?$AAh?$AAu?$AA?$AA@ 00000001800466f8     libucrt:nlsdata.obj
 0002:00002700       ??_C@_17HFOLPPLP@?$AAF?$AAr?$AAi?$AA?$AA@ 0000000180046700     libucrt:nlsdata.obj
 0002:00002708       ??_C@_17GGIBDPIH@?$AAS?$AAa?$AAt?$AA?$AA@ 0000000180046708     libucrt:nlsdata.obj
 0002:00002710       ??_C@_1O@IHNHDHPB@?$AAS?$AAu?$AAn?$AAd?$AAa?$AAy?$AA?$AA@ 0000000180046710     libucrt:nlsdata.obj
 0002:00002720       ??_C@_1O@MMNBFLIA@?$AAM?$AAo?$AAn?$AAd?$AAa?$AAy?$AA?$AA@ 0000000180046720     libucrt:nlsdata.obj
 0002:00002730       ??_C@_1BA@ENFBFFEK@?$AAT?$AAu?$AAe?$AAs?$AAd?$AAa?$AAy?$AA?$AA@ 0000000180046730     libucrt:nlsdata.obj
 0002:00002740       ??_C@_1BE@EBOGMDOH@?$AAW?$AAe?$AAd?$AAn?$AAe?$AAs?$AAd?$AAa?$AAy?$AA?$AA@ 0000000180046740     libucrt:nlsdata.obj
 0002:00002758       ??_C@_1BC@HHMNLIHE@?$AAT?$AAh?$AAu?$AAr?$AAs?$AAd?$AAa?$AAy?$AA?$AA@ 0000000180046758     libucrt:nlsdata.obj
 0002:00002770       ??_C@_1O@PDICJHAG@?$AAF?$AAr?$AAi?$AAd?$AAa?$AAy?$AA?$AA@ 0000000180046770     libucrt:nlsdata.obj
 0002:00002780       ??_C@_1BC@ENMNNPAJ@?$AAS?$AAa?$AAt?$AAu?$AAr?$AAd?$AAa?$AAy?$AA?$AA@ 0000000180046780     libucrt:nlsdata.obj
 0002:00002798       ??_C@_17DKNBKCHM@?$AAJ?$AAa?$AAn?$AA?$AA@ 0000000180046798     libucrt:nlsdata.obj
 0002:000027a0       ??_C@_17LMDJEKJN@?$AAF?$AAe?$AAb?$AA?$AA@ 00000001800467a0     libucrt:nlsdata.obj
 0002:000027a8       ??_C@_17CKNLEDEC@?$AAM?$AAa?$AAr?$AA?$AA@ 00000001800467a8     libucrt:nlsdata.obj
 0002:000027b0       ??_C@_17LFPOIHDD@?$AAA?$AAp?$AAr?$AA?$AA@ 00000001800467b0     libucrt:nlsdata.obj
 0002:000027b8       ??_C@_17PNNKMEED@?$AAM?$AAa?$AAy?$AA?$AA@ 00000001800467b8     libucrt:nlsdata.obj
 0002:000027c0       ??_C@_17KCJGOCPB@?$AAJ?$AAu?$AAn?$AA?$AA@ 00000001800467c0     libucrt:nlsdata.obj
 0002:000027c8       ??_C@_17IJPCKHK@?$AAJ?$AAu?$AAl?$AA?$AA@ 00000001800467c8     libucrt:nlsdata.obj
 0002:000027d0       ??_C@_17ICPELBCN@?$AAA?$AAu?$AAg?$AA?$AA@ 00000001800467d0     libucrt:nlsdata.obj
 0002:000027d8       ??_C@_17HCHCOKMG@?$AAS?$AAe?$AAp?$AA?$AA@ 00000001800467d8     libucrt:nlsdata.obj
 0002:000027e0       ??_C@_17FNLKOI@?$AAO?$AAc?$AAt?$AA?$AA@ 00000001800467e0     libucrt:nlsdata.obj
 0002:000027e8       ??_C@_17BBDMLCIG@?$AAN?$AAo?$AAv?$AA?$AA@ 00000001800467e8     libucrt:nlsdata.obj
 0002:000027f0       ??_C@_17EGKACKIF@?$AAD?$AAe?$AAc?$AA?$AA@ 00000001800467f0     libucrt:nlsdata.obj
 0002:000027f8       ??_C@_1BA@EFMEIEBA@?$AAJ?$AAa?$AAn?$AAu?$AAa?$AAr?$AAy?$AA?$AA@ 00000001800467f8     libucrt:nlsdata.obj
 0002:00002808       ??_C@_1BC@JGDDFFAM@?$AAF?$AAe?$AAb?$AAr?$AAu?$AAa?$AAr?$AAy?$AA?$AA@ 0000000180046808     libucrt:nlsdata.obj
 0002:00002820       ??_C@_1M@IKEENEDF@?$AAM?$AAa?$AAr?$AAc?$AAh?$AA?$AA@ 0000000180046820     libucrt:nlsdata.obj
 0002:00002830       ??_C@_1M@GJNLMHFD@?$AAA?$AAp?$AAr?$AAi?$AAl?$AA?$AA@ 0000000180046830     libucrt:nlsdata.obj
 0002:00002840       ??_C@_19EPFLPGAP@?$AAJ?$AAu?$AAn?$AAe?$AA?$AA@ 0000000180046840     libucrt:nlsdata.obj
 0002:00002850       ??_C@_19BIFMLPCD@?$AAJ?$AAu?$AAl?$AAy?$AA?$AA@ 0000000180046850     libucrt:nlsdata.obj
 0002:00002860       ??_C@_1O@PAHLKOAC@?$AAA?$AAu?$AAg?$AAu?$AAs?$AAt?$AA?$AA@ 0000000180046860     libucrt:nlsdata.obj
 0002:00002870       ??_C@_1BE@DKAAMBJL@?$AAS?$AAe?$AAp?$AAt?$AAe?$AAm?$AAb?$AAe?$AAr?$AA?$AA@ 0000000180046870     libucrt:nlsdata.obj
 0002:00002888       ??_C@_1BA@EPANDLNG@?$AAO?$AAc?$AAt?$AAo?$AAb?$AAe?$AAr?$AA?$AA@ 0000000180046888     libucrt:nlsdata.obj
 0002:00002898       ??_C@_1BC@BGLIFPF@?$AAN?$AAo?$AAv?$AAe?$AAm?$AAb?$AAe?$AAr?$AA?$AA@ 0000000180046898     libucrt:nlsdata.obj
 0002:000028b0       ??_C@_1BC@FEMKIFH@?$AAD?$AAe?$AAc?$AAe?$AAm?$AAb?$AAe?$AAr?$AA?$AA@ 00000001800468b0     libucrt:nlsdata.obj
 0002:000028c4       ??_C@_15ODEHAHHF@?$AAA?$AAM?$AA?$AA@ 00000001800468c4     libucrt:nlsdata.obj
 0002:000028cc       ??_C@_15CLMNNGEL@?$AAP?$AAM?$AA?$AA@ 00000001800468cc     libucrt:nlsdata.obj
 0002:000028d8       ??_C@_1BC@IEBCMHCM@?$AAM?$AAM?$AA?1?$AAd?$AAd?$AA?1?$AAy?$AAy?$AA?$AA@ 00000001800468d8     libucrt:nlsdata.obj
 0002:000028f0       ??_C@_1CI@KNAKOEBC@?$AAd?$AAd?$AAd?$AAd?$AA?0?$AA?5?$AAM?$AAM?$AAM?$AAM?$AA?5?$AAd?$AAd?$AA?0?$AA?5?$AAy?$AAy?$AAy?$AAy?$AA?$AA@ 00000001800468f0     libucrt:nlsdata.obj
 0002:00002918       ??_C@_1BC@GDGBMEMK@?$AAH?$AAH?$AA?3?$AAm?$AAm?$AA?3?$AAs?$AAs?$AA?$AA@ 0000000180046918     libucrt:nlsdata.obj
 0002:00002930       ??_C@_1M@BMHNFIME@?$AAe?$AAn?$AA?9?$AAU?$AAS?$AA?$AA@ 0000000180046930     libucrt:nlsdata.obj
 0002:00002960       ??_C@_1M@HPNHIDJI@?$AAj?$AAa?$AA?9?$AAJ?$AAP?$AA?$AA@ 0000000180046960     libucrt:mbctype.obj
 0002:00002970       ??_C@_1M@BIBDDEMK@?$AAz?$AAh?$AA?9?$AAC?$AAN?$AA?$AA@ 0000000180046970     libucrt:mbctype.obj
 0002:00002980       ??_C@_1M@JLOOOEGK@?$AAk?$AAo?$AA?9?$AAK?$AAR?$AA?$AA@ 0000000180046980     libucrt:mbctype.obj
 0002:00002990       ??_C@_1M@CLNBBOPM@?$AAz?$AAh?$AA?9?$AAT?$AAW?$AA?$AA@ 0000000180046990     libucrt:mbctype.obj
 0002:000029a0       __newctype                 00000001800469a0     libucrt:ctype.obj
 0002:00002ca0       __newclmap                 0000000180046ca0     libucrt:ctype.obj
 0002:00002e20       __newcumap                 0000000180046e20     libucrt:ctype.obj
 0002:00002fa0       _wctype                    0000000180046fa0     libucrt:ctype.obj
 0002:00003ff0       ??_C@_15EMKDOKLE@?$AAa?$AAr?$AA?$AA@ 0000000180047ff0     libucrt:lcidtoname_downlevel.obj
 0002:00003ff8       ??_C@_15KNPADPLH@?$AAb?$AAg?$AA?$AA@ 0000000180047ff8     libucrt:lcidtoname_downlevel.obj
 0002:00004000       ??_C@_15EDMHLDMO@?$AAc?$AAa?$AA?$AA@ 0000000180048000     libucrt:lcidtoname_downlevel.obj
 0002:00004008       ??_C@_1O@BPEAJADD@?$AAz?$AAh?$AA?9?$AAC?$AAH?$AAS?$AA?$AA@ 0000000180048008     libucrt:lcidtoname_downlevel.obj
 0002:00004018       ??_C@_15LJNHCMNK@?$AAc?$AAs?$AA?$AA@ 0000000180048018     libucrt:lcidtoname_downlevel.obj
 0002:00004020       ??_C@_15FOMCIDHG@?$AAd?$AAa?$AA?$AA@ 0000000180048020     libucrt:lcidtoname_downlevel.obj
 0002:00004028       ??_C@_15NBKABECB@?$AAd?$AAe?$AA?$AA@ 0000000180048028     libucrt:lcidtoname_downlevel.obj
 0002:00004030       ??_C@_15GHPEIIAO@?$AAe?$AAl?$AA?$AA@ 0000000180048030     libucrt:lcidtoname_downlevel.obj
 0002:00004038       ??_C@_15MNPNEAIF@?$AAe?$AAn?$AA?$AA@ 0000000180048038     libucrt:lcidtoname_downlevel.obj
 0002:00004040       ??_C@_15GPIOMPMH@?$AAe?$AAs?$AA?$AA@ 0000000180048040     libucrt:lcidtoname_downlevel.obj
 0002:00004048       ??_C@_15NGLOAKJC@?$AAf?$AAi?$AA?$AA@ 0000000180048048     libucrt:lcidtoname_downlevel.obj
 0002:00004050       ??_C@_15FBKGNKAM@?$AAf?$AAr?$AA?$AA@ 0000000180048050     libucrt:lcidtoname_downlevel.obj
 0002:00004058       ??_C@_15KGGCNEFK@?$AAh?$AAe?$AA?$AA@ 0000000180048058     libucrt:lcidtoname_downlevel.obj
 0002:00004060       ??_C@_15PGHLIDMF@?$AAh?$AAu?$AA?$AA@ 0000000180048060     libucrt:lcidtoname_downlevel.obj
 0002:00004068       ??_C@_15BIEMAPLM@?$AAi?$AAs?$AA?$AA@ 0000000180048068     libucrt:lcidtoname_downlevel.obj
 0002:00004070       ??_C@_15IFJLDHAF@?$AAi?$AAt?$AA?$AA@ 0000000180048070     libucrt:lcidtoname_downlevel.obj
 0002:00004078       ??_C@_15GEMIOCAG@?$AAj?$AAa?$AA?$AA@ 0000000180048078     libucrt:lcidtoname_downlevel.obj
 0002:00004080       ??_C@_15EPELEGJA@?$AAk?$AAo?$AA?$AA@ 0000000180048080     libucrt:lcidtoname_downlevel.obj
 0002:00004088       ??_C@_15NDDHIMN@?$AAn?$AAl?$AA?$AA@ 0000000180048088     libucrt:lcidtoname_downlevel.obj
 0002:00004090       ??_C@_15BPIGNHCD@?$AAn?$AAo?$AA?$AA@ 0000000180048090     libucrt:lcidtoname_downlevel.obj
 0002:00004098       ??_C@_15DEOPBLCG@?$AAp?$AAl?$AA?$AA@ 0000000180048098     libucrt:lcidtoname_downlevel.obj
 0002:000040a0       ??_C@_15KBECGEFG@?$AAp?$AAt?$AA?$AA@ 00000001800480a0     libucrt:lcidtoname_downlevel.obj
 0002:000040a8       ??_C@_15GLJCBFMD@?$AAr?$AAo?$AA?$AA@ 00000001800480a8     libucrt:lcidtoname_downlevel.obj
 0002:000040b0       ??_C@_15FEDGKCDI@?$AAr?$AAu?$AA?$AA@ 00000001800480b0     libucrt:lcidtoname_downlevel.obj
 0002:000040b8       ??_C@_15GLKMLLHM@?$AAh?$AAr?$AA?$AA@ 00000001800480b8     libucrt:lcidtoname_downlevel.obj
 0002:000040c0       ??_C@_15CPKMFBDB@?$AAs?$AAk?$AA?$AA@ 00000001800480c0     libucrt:lcidtoname_downlevel.obj
 0002:000040c8       ??_C@_15BAAIOGMK@?$AAs?$AAq?$AA?$AA@ 00000001800480c8     libucrt:lcidtoname_downlevel.obj
 0002:000040d0       ??_C@_15INNPNOHD@?$AAs?$AAv?$AA?$AA@ 00000001800480d0     libucrt:lcidtoname_downlevel.obj
 0002:000040d8       ??_C@_15CABMMOGH@?$AAt?$AAh?$AA?$AA@ 00000001800480d8     libucrt:lcidtoname_downlevel.obj
 0002:000040e0       ??_C@_15BPLIHJJM@?$AAt?$AAr?$AA?$AA@ 00000001800480e0     libucrt:lcidtoname_downlevel.obj
 0002:000040e8       ??_C@_15NEOEKKDJ@?$AAu?$AAr?$AA?$AA@ 00000001800480e8     libucrt:lcidtoname_downlevel.obj
 0002:000040f0       ??_C@_15NFICGAJK@?$AAi?$AAd?$AA?$AA@ 00000001800480f0     libucrt:lcidtoname_downlevel.obj
 0002:000040f8       ??_C@_15PJPFLCCM@?$AAu?$AAk?$AA?$AA@ 00000001800480f8     libucrt:lcidtoname_downlevel.obj
 0002:00004100       ??_C@_15HPJPHDM@?$AAb?$AAe?$AA?$AA@ 0000000180048100     libucrt:lcidtoname_downlevel.obj
 0002:00004108       ??_C@_15LCHLGJII@?$AAs?$AAl?$AA?$AA@ 0000000180048108     libucrt:lcidtoname_downlevel.obj
 0002:00004110       ??_C@_15PCFJPHHO@?$AAe?$AAt?$AA?$AA@ 0000000180048110     libucrt:lcidtoname_downlevel.obj
 0002:00004118       ??_C@_15HPFPGODN@?$AAl?$AAv?$AA?$AA@ 0000000180048118     libucrt:lcidtoname_downlevel.obj
 0002:00004120       ??_C@_15NFFGKGLG@?$AAl?$AAt?$AA?$AA@ 0000000180048120     libucrt:lcidtoname_downlevel.obj
 0002:00004128       ??_C@_15BDAKCCHN@?$AAf?$AAa?$AA?$AA@ 0000000180048128     libucrt:lcidtoname_downlevel.obj
 0002:00004130       ??_C@_15NFGIAIAJ@?$AAv?$AAi?$AA?$AA@ 0000000180048130     libucrt:lcidtoname_downlevel.obj
 0002:00004138       ??_C@_15LMKNDMHN@?$AAh?$AAy?$AA?$AA@ 0000000180048138     libucrt:lcidtoname_downlevel.obj
 0002:00004140       ??_C@_15IJBHMCFL@?$AAa?$AAz?$AA?$AA@ 0000000180048140     libucrt:lcidtoname_downlevel.obj
 0002:00004148       ??_C@_15EKOFJABL@?$AAe?$AAu?$AA?$AA@ 0000000180048148     libucrt:lcidtoname_downlevel.obj
 0002:00004150       ??_C@_15BGHADCNK@?$AAm?$AAk?$AA?$AA@ 0000000180048150     libucrt:lcidtoname_downlevel.obj
 0002:00004158       ??_C@_15JDNICKHM@?$AAa?$AAf?$AA?$AA@ 0000000180048158     libucrt:lcidtoname_downlevel.obj
 0002:00004160       ??_C@_15KPJEDBKD@?$AAk?$AAa?$AA?$AA@ 0000000180048160     libucrt:lcidtoname_downlevel.obj
 0002:00004168       ??_C@_15PDNFFFEO@?$AAf?$AAo?$AA?$AA@ 0000000180048168     libucrt:lcidtoname_downlevel.obj
 0002:00004170       ??_C@_15OMLEGLOC@?$AAh?$AAi?$AA?$AA@ 0000000180048170     libucrt:lcidtoname_downlevel.obj
 0002:00004178       ??_C@_15IDNNENKK@?$AAm?$AAs?$AA?$AA@ 0000000180048178     libucrt:lcidtoname_downlevel.obj
 0002:00004180       ??_C@_15MACJNBMH@?$AAk?$AAk?$AA?$AA@ 0000000180048180     libucrt:lcidtoname_downlevel.obj
 0002:00004188       ??_C@_15DKDJEOND@?$AAk?$AAy?$AA?$AA@ 0000000180048188     libucrt:lcidtoname_downlevel.obj
 0002:00004190       ??_C@_15DFGDLJBG@?$AAs?$AAw?$AA?$AA@ 0000000180048190     libucrt:lcidtoname_downlevel.obj
 0002:00004198       ??_C@_15BBFAICNG@?$AAu?$AAz?$AA?$AA@ 0000000180048198     libucrt:lcidtoname_downlevel.obj
 0002:000041a0       ??_C@_15DKNDCGEA@?$AAt?$AAt?$AA?$AA@ 00000001800481a0     libucrt:lcidtoname_downlevel.obj
 0002:000041a8       ??_C@_15MGIFMDPL@?$AAp?$AAa?$AA?$AA@ 00000001800481a8     libucrt:lcidtoname_downlevel.obj
 0002:000041b0       ??_C@_15HCNDBBA@?$AAg?$AAu?$AA?$AA@ 00000001800481b0     libucrt:lcidtoname_downlevel.obj
 0002:000041b8       ??_C@_15FNBEIBON@?$AAt?$AAa?$AA?$AA@ 00000001800481b8     libucrt:lcidtoname_downlevel.obj
 0002:000041c0       ??_C@_15NCHGBGLK@?$AAt?$AAe?$AA?$AA@ 00000001800481c0     libucrt:lcidtoname_downlevel.obj
 0002:000041c8       ??_C@_15PHPHCBPF@?$AAk?$AAn?$AA?$AA@ 00000001800481c8     libucrt:lcidtoname_downlevel.obj
 0002:000041d0       ??_C@_15DLGBCKMP@?$AAm?$AAr?$AA?$AA@ 00000001800481d0     libucrt:lcidtoname_downlevel.obj
 0002:000041d8       ??_C@_15EABBLBFF@?$AAs?$AAa?$AA?$AA@ 00000001800481d8     libucrt:lcidtoname_downlevel.obj
 0002:000041e0       ??_C@_15CBKOMCOI@?$AAm?$AAn?$AA?$AA@ 00000001800481e0     libucrt:lcidtoname_downlevel.obj
 0002:000041e8       ??_C@_15CKDMCJAF@?$AAg?$AAl?$AA?$AA@ 00000001800481e8     libucrt:lcidtoname_downlevel.obj
 0002:000041f0       ??_C@_17CNJFBPG@?$AAk?$AAo?$AAk?$AA?$AA@ 00000001800481f0     libucrt:lcidtoname_downlevel.obj
 0002:000041f8       ??_C@_17FFBJICPL@?$AAs?$AAy?$AAr?$AA?$AA@ 00000001800481f8     libucrt:lcidtoname_downlevel.obj
 0002:00004200       ??_C@_17KPNDCPAF@?$AAd?$AAi?$AAv?$AA?$AA@ 0000000180048200     libucrt:lcidtoname_downlevel.obj
 0002:00004208       ??_C@_11LOCGONAA@?$AA?$AA@ 0000000180048208     libucrt:lcidtoname_downlevel.obj
 0002:00004210       ??_C@_1M@OKAHONE@?$AAa?$AAr?$AA?9?$AAS?$AAA?$AA?$AA@ 0000000180048210     libucrt:lcidtoname_downlevel.obj
 0002:00004220       ??_C@_1M@FFFIGIGK@?$AAb?$AAg?$AA?9?$AAB?$AAG?$AA?$AA@ 0000000180048220     libucrt:lcidtoname_downlevel.obj
 0002:00004230       ??_C@_1M@BJNKEDC@?$AAc?$AAa?$AA?9?$AAE?$AAS?$AA?$AA@ 0000000180048230     libucrt:lcidtoname_downlevel.obj
 0002:00004240       ??_C@_1M@IJJHFJHA@?$AAc?$AAs?$AA?9?$AAC?$AAZ?$AA?$AA@ 0000000180048240     libucrt:lcidtoname_downlevel.obj
 0002:00004250       ??_C@_1M@CLPEOBGI@?$AAd?$AAa?$AA?9?$AAD?$AAK?$AA?$AA@ 0000000180048250     libucrt:lcidtoname_downlevel.obj
 0002:00004260       ??_C@_1M@MCMADGCB@?$AAd?$AAe?$AA?9?$AAD?$AAE?$AA?$AA@ 0000000180048260     libucrt:lcidtoname_downlevel.obj
 0002:00004270       ??_C@_1M@OOCKEMAM@?$AAe?$AAl?$AA?9?$AAG?$AAR?$AA?$AA@ 0000000180048270     libucrt:lcidtoname_downlevel.obj
 0002:00004280       ??_C@_1M@DDNJFGID@?$AAf?$AAi?$AA?9?$AAF?$AAI?$AA?$AA@ 0000000180048280     libucrt:lcidtoname_downlevel.obj
 0002:00004290       ??_C@_1M@GLIPPMAC@?$AAf?$AAr?$AA?9?$AAF?$AAR?$AA?$AA@ 0000000180048290     libucrt:lcidtoname_downlevel.obj
 0002:000042a0       ??_C@_1M@GFMCHPE@?$AAh?$AAe?$AA?9?$AAI?$AAL?$AA?$AA@ 00000001800482a0     libucrt:lcidtoname_downlevel.obj
 0002:000042b0       ??_C@_1M@MHLPGNKM@?$AAh?$AAu?$AA?9?$AAH?$AAU?$AA?$AA@ 00000001800482b0     libucrt:lcidtoname_downlevel.obj
 0002:000042c0       ??_C@_1M@LPDDNNPN@?$AAi?$AAs?$AA?9?$AAI?$AAS?$AA?$AA@ 00000001800482c0     libucrt:lcidtoname_downlevel.obj
 0002:000042d0       ??_C@_1M@MADIPODN@?$AAi?$AAt?$AA?9?$AAI?$AAT?$AA?$AA@ 00000001800482d0     libucrt:lcidtoname_downlevel.obj
 0002:000042e0       ??_C@_1M@IHBJJGG@?$AAn?$AAl?$AA?9?$AAN?$AAL?$AA?$AA@ 00000001800482e0     libucrt:lcidtoname_downlevel.obj
 0002:000042f0       ??_C@_1M@EANAGDL@?$AAn?$AAb?$AA?9?$AAN?$AAO?$AA?$AA@ 00000001800482f0     libucrt:lcidtoname_downlevel.obj
 0002:00004300       ??_C@_1M@NEIEMEGP@?$AAp?$AAl?$AA?9?$AAP?$AAL?$AA?$AA@ 0000000180048300     libucrt:lcidtoname_downlevel.obj
 0002:00004310       ??_C@_1M@BOCFIGEP@?$AAp?$AAt?$AA?9?$AAB?$AAR?$AA?$AA@ 0000000180048310     libucrt:lcidtoname_downlevel.obj
 0002:00004320       ??_C@_1M@IMPFOPBG@?$AAr?$AAo?$AA?9?$AAR?$AAO?$AA?$AA@ 0000000180048320     libucrt:lcidtoname_downlevel.obj
 0002:00004330       ??_C@_1M@IDNNEJMM@?$AAr?$AAu?$AA?9?$AAR?$AAU?$AA?$AA@ 0000000180048330     libucrt:lcidtoname_downlevel.obj
 0002:00004340       ??_C@_1M@LILEEOGM@?$AAh?$AAr?$AA?9?$AAH?$AAR?$AA?$AA@ 0000000180048340     libucrt:lcidtoname_downlevel.obj
 0002:00004350       ??_C@_1M@FKIFEHPB@?$AAs?$AAk?$AA?9?$AAS?$AAK?$AA?$AA@ 0000000180048350     libucrt:lcidtoname_downlevel.obj
 0002:00004360       ??_C@_1M@LJMAMNPJ@?$AAs?$AAq?$AA?9?$AAA?$AAL?$AA?$AA@ 0000000180048360     libucrt:lcidtoname_downlevel.obj
 0002:00004370       ??_C@_1M@GIAKDKJK@?$AAs?$AAv?$AA?9?$AAS?$AAE?$AA?$AA@ 0000000180048370     libucrt:lcidtoname_downlevel.obj
 0002:00004380       ??_C@_1M@MKJKIKCL@?$AAt?$AAh?$AA?9?$AAT?$AAH?$AA?$AA@ 0000000180048380     libucrt:lcidtoname_downlevel.obj
 0002:00004390       ??_C@_1M@MFLCCMPB@?$AAt?$AAr?$AA?9?$AAT?$AAR?$AA?$AA@ 0000000180048390     libucrt:lcidtoname_downlevel.obj
 0002:000043a0       ??_C@_1M@OIJHDKJN@?$AAu?$AAr?$AA?9?$AAP?$AAK?$AA?$AA@ 00000001800483a0     libucrt:lcidtoname_downlevel.obj
 0002:000043b0       ??_C@_1M@LHIPCIEK@?$AAi?$AAd?$AA?9?$AAI?$AAD?$AA?$AA@ 00000001800483b0     libucrt:lcidtoname_downlevel.obj
 0002:000043c0       ??_C@_1M@MFMOBGI@?$AAu?$AAk?$AA?9?$AAU?$AAA?$AA?$AA@ 00000001800483c0     libucrt:lcidtoname_downlevel.obj
 0002:000043d0       ??_C@_1M@OBGLJIPL@?$AAb?$AAe?$AA?9?$AAB?$AAY?$AA?$AA@ 00000001800483d0     libucrt:lcidtoname_downlevel.obj
 0002:000043e0       ??_C@_1M@BCFAJEAD@?$AAs?$AAl?$AA?9?$AAS?$AAI?$AA?$AA@ 00000001800483e0     libucrt:lcidtoname_downlevel.obj
 0002:000043f0       ??_C@_1M@FKFFEDDN@?$AAe?$AAt?$AA?9?$AAE?$AAE?$AA?$AA@ 00000001800483f0     libucrt:lcidtoname_downlevel.obj
 0002:00004400       ??_C@_1M@KGKKAACI@?$AAl?$AAv?$AA?9?$AAL?$AAV?$AA?$AA@ 0000000180048400     libucrt:lcidtoname_downlevel.obj
 0002:00004410       ??_C@_1M@IFGBIJO@?$AAl?$AAt?$AA?9?$AAL?$AAT?$AA?$AA@ 0000000180048410     libucrt:lcidtoname_downlevel.obj
 0002:00004420       ??_C@_1M@FGEAHEDM@?$AAf?$AAa?$AA?9?$AAI?$AAR?$AA?$AA@ 0000000180048420     libucrt:lcidtoname_downlevel.obj
 0002:00004430       ??_C@_1M@KBMAIBFN@?$AAv?$AAi?$AA?9?$AAV?$AAN?$AA?$AA@ 0000000180048430     libucrt:lcidtoname_downlevel.obj
 0002:00004440       ??_C@_1M@GPCBKDJK@?$AAh?$AAy?$AA?9?$AAA?$AAM?$AA?$AA@ 0000000180048440     libucrt:lcidtoname_downlevel.obj
 0002:00004450       ??_C@_1BG@BECMDDJB@?$AAa?$AAz?$AA?9?$AAA?$AAZ?$AA?9?$AAL?$AAa?$AAt?$AAn?$AA?$AA@ 0000000180048450     libucrt:lcidtoname_downlevel.obj
 0002:00004468       ??_C@_1M@MAOFCAEA@?$AAe?$AAu?$AA?9?$AAE?$AAS?$AA?$AA@ 0000000180048468     libucrt:lcidtoname_downlevel.obj
 0002:00004478       ??_C@_1M@IGHABKPI@?$AAm?$AAk?$AA?9?$AAM?$AAK?$AA?$AA@ 0000000180048478     libucrt:lcidtoname_downlevel.obj
 0002:00004488       ??_C@_1M@IAIGNEJG@?$AAt?$AAn?$AA?9?$AAZ?$AAA?$AA?$AA@ 0000000180048488     libucrt:lcidtoname_downlevel.obj
 0002:00004498       ??_C@_1M@IIJCOJFA@?$AAx?$AAh?$AA?9?$AAZ?$AAA?$AA?$AA@ 0000000180048498     libucrt:lcidtoname_downlevel.obj
 0002:000044a8       ??_C@_1M@LGPJHNJH@?$AAz?$AAu?$AA?9?$AAZ?$AAA?$AA?$AA@ 00000001800484a8     libucrt:lcidtoname_downlevel.obj
 0002:000044b8       ??_C@_1M@HOKAOIO@?$AAa?$AAf?$AA?9?$AAZ?$AAA?$AA?$AA@ 00000001800484b8     libucrt:lcidtoname_downlevel.obj
 0002:000044c8       ??_C@_1M@DPCLHLIE@?$AAk?$AAa?$AA?9?$AAG?$AAE?$AA?$AA@ 00000001800484c8     libucrt:lcidtoname_downlevel.obj
 0002:000044d8       ??_C@_1M@BLKMHJBI@?$AAf?$AAo?$AA?9?$AAF?$AAO?$AA?$AA@ 00000001800484d8     libucrt:lcidtoname_downlevel.obj
 0002:000044e8       ??_C@_1M@LGGJAPPB@?$AAh?$AAi?$AA?9?$AAI?$AAN?$AA?$AA@ 00000001800484e8     libucrt:lcidtoname_downlevel.obj
 0002:000044f8       ??_C@_1M@FIKPIHFE@?$AAm?$AAt?$AA?9?$AAM?$AAT?$AA?$AA@ 00000001800484f8     libucrt:lcidtoname_downlevel.obj
 0002:00004508       ??_C@_1M@HEGGPBFA@?$AAs?$AAe?$AA?9?$AAN?$AAO?$AA?$AA@ 0000000180048508     libucrt:lcidtoname_downlevel.obj
 0002:00004518       ??_C@_1M@EIBJEEPA@?$AAm?$AAs?$AA?9?$AAM?$AAY?$AA?$AA@ 0000000180048518     libucrt:lcidtoname_downlevel.obj
 0002:00004528       ??_C@_1M@FHLBGMPP@?$AAk?$AAk?$AA?9?$AAK?$AAZ?$AA?$AA@ 0000000180048528     libucrt:lcidtoname_downlevel.obj
 0002:00004538       ??_C@_1M@NGJJLCGI@?$AAk?$AAy?$AA?9?$AAK?$AAG?$AA?$AA@ 0000000180048538     libucrt:lcidtoname_downlevel.obj
 0002:00004548       ??_C@_1M@GIENNBFC@?$AAs?$AAw?$AA?9?$AAK?$AAE?$AA?$AA@ 0000000180048548     libucrt:lcidtoname_downlevel.obj
 0002:00004558       ??_C@_1BG@NDGMJIMJ@?$AAu?$AAz?$AA?9?$AAU?$AAZ?$AA?9?$AAL?$AAa?$AAt?$AAn?$AA?$AA@ 0000000180048558     libucrt:lcidtoname_downlevel.obj
 0002:00004570       ??_C@_1M@IDCCIHBC@?$AAt?$AAt?$AA?9?$AAR?$AAU?$AA?$AA@ 0000000180048570     libucrt:lcidtoname_downlevel.obj
 0002:00004580       ??_C@_1M@LOICPMOJ@?$AAb?$AAn?$AA?9?$AAI?$AAN?$AA?$AA@ 0000000180048580     libucrt:lcidtoname_downlevel.obj
 0002:00004590       ??_C@_1M@KPKKNEAH@?$AAp?$AAa?$AA?9?$AAI?$AAN?$AA?$AA@ 0000000180048590     libucrt:lcidtoname_downlevel.obj
 0002:000045a0       ??_C@_1M@PJGPPBOG@?$AAg?$AAu?$AA?9?$AAI?$AAN?$AA?$AA@ 00000001800485a0     libucrt:lcidtoname_downlevel.obj
 0002:000045b0       ??_C@_1M@KMKMOPHI@?$AAt?$AAa?$AA?9?$AAI?$AAN?$AA?$AA@ 00000001800485b0     libucrt:lcidtoname_downlevel.obj
 0002:000045c0       ??_C@_1M@KFEHEPAC@?$AAt?$AAe?$AA?9?$AAI?$AAN?$AA?$AA@ 00000001800485c0     libucrt:lcidtoname_downlevel.obj
 0002:000045d0       ??_C@_1M@CDCLMGHI@?$AAk?$AAn?$AA?9?$AAI?$AAN?$AA?$AA@ 00000001800485d0     libucrt:lcidtoname_downlevel.obj
 0002:000045e0       ??_C@_1M@MIODLDKF@?$AAm?$AAl?$AA?9?$AAI?$AAN?$AA?$AA@ 00000001800485e0     libucrt:lcidtoname_downlevel.obj
 0002:000045f0       ??_C@_1M@PBIEACPO@?$AAm?$AAr?$AA?9?$AAI?$AAN?$AA?$AA@ 00000001800485f0     libucrt:lcidtoname_downlevel.obj
 0002:00004600       ??_C@_1M@NIDEAGPH@?$AAs?$AAa?$AA?9?$AAI?$AAN?$AA?$AA@ 0000000180048600     libucrt:lcidtoname_downlevel.obj
 0002:00004610       ??_C@_1M@FHIHCBIO@?$AAm?$AAn?$AA?9?$AAM?$AAN?$AA?$AA@ 0000000180048610     libucrt:lcidtoname_downlevel.obj
 0002:00004620       ??_C@_1M@JAIJPENP@?$AAc?$AAy?$AA?9?$AAG?$AAB?$AA?$AA@ 0000000180048620     libucrt:lcidtoname_downlevel.obj
 0002:00004630       ??_C@_1M@PHGFBEPN@?$AAg?$AAl?$AA?9?$AAE?$AAS?$AA?$AA@ 0000000180048630     libucrt:lcidtoname_downlevel.obj
 0002:00004640       ??_C@_1O@KPIPDNCP@?$AAk?$AAo?$AAk?$AA?9?$AAI?$AAN?$AA?$AA@ 0000000180048640     libucrt:lcidtoname_downlevel.obj
 0002:00004650       ??_C@_1O@KNHJLDJA@?$AAs?$AAy?$AAr?$AA?9?$AAS?$AAY?$AA?$AA@ 0000000180048650     libucrt:lcidtoname_downlevel.obj
 0002:00004660       ??_C@_1O@MKEKBLAH@?$AAd?$AAi?$AAv?$AA?9?$AAM?$AAV?$AA?$AA@ 0000000180048660     libucrt:lcidtoname_downlevel.obj
 0002:00004670       ??_C@_1O@OHDCKDDF@?$AAq?$AAu?$AAz?$AA?9?$AAB?$AAO?$AA?$AA@ 0000000180048670     libucrt:lcidtoname_downlevel.obj
 0002:00004680       ??_C@_1M@LEPJNLFD@?$AAn?$AAs?$AA?9?$AAZ?$AAA?$AA?$AA@ 0000000180048680     libucrt:lcidtoname_downlevel.obj
 0002:00004690       ??_C@_1M@OMLEIIJB@?$AAm?$AAi?$AA?9?$AAN?$AAZ?$AA?$AA@ 0000000180048690     libucrt:lcidtoname_downlevel.obj
 0002:000046a0       ??_C@_1M@PMPEAILG@?$AAa?$AAr?$AA?9?$AAI?$AAQ?$AA?$AA@ 00000001800486a0     libucrt:lcidtoname_downlevel.obj
 0002:000046b0       ??_C@_1M@CNKPNOEE@?$AAd?$AAe?$AA?9?$AAC?$AAH?$AA?$AA@ 00000001800486b0     libucrt:lcidtoname_downlevel.obj
 0002:000046c0       ??_C@_1M@LKMGMLKO@?$AAe?$AAn?$AA?9?$AAG?$AAB?$AA?$AA@ 00000001800486c0     libucrt:lcidtoname_downlevel.obj
 0002:000046d0       ??_C@_1M@PGKJFFGL@?$AAe?$AAs?$AA?9?$AAM?$AAX?$AA?$AA@ 00000001800486d0     libucrt:lcidtoname_downlevel.obj
 0002:000046e0       ??_C@_1M@DNNANBDC@?$AAf?$AAr?$AA?9?$AAB?$AAE?$AA?$AA@ 00000001800486e0     libucrt:lcidtoname_downlevel.obj
 0002:000046f0       ??_C@_1M@HLGMDFHM@?$AAi?$AAt?$AA?9?$AAC?$AAH?$AA?$AA@ 00000001800486f0     libucrt:lcidtoname_downlevel.obj
 0002:00004700       ??_C@_1M@CLLBGJH@?$AAn?$AAl?$AA?9?$AAB?$AAE?$AA?$AA@ 0000000180048700     libucrt:lcidtoname_downlevel.obj
 0002:00004710       ??_C@_1M@BODBOGLF@?$AAn?$AAn?$AA?9?$AAN?$AAO?$AA?$AA@ 0000000180048710     libucrt:lcidtoname_downlevel.obj
 0002:00004720       ??_C@_1M@HFFAHKAD@?$AAp?$AAt?$AA?9?$AAP?$AAT?$AA?$AA@ 0000000180048720     libucrt:lcidtoname_downlevel.obj
 0002:00004730       ??_C@_1BG@LNOAKHIE@?$AAs?$AAr?$AA?9?$AAS?$AAP?$AA?9?$AAL?$AAa?$AAt?$AAn?$AA?$AA@ 0000000180048730     libucrt:lcidtoname_downlevel.obj
 0002:00004748       ??_C@_1M@HBMHBGAK@?$AAs?$AAv?$AA?9?$AAF?$AAI?$AA?$AA@ 0000000180048748     libucrt:lcidtoname_downlevel.obj
 0002:00004758       ??_C@_1BG@DGCJGJBE@?$AAa?$AAz?$AA?9?$AAA?$AAZ?$AA?9?$AAC?$AAy?$AAr?$AAl?$AA?$AA@ 0000000180048758     libucrt:lcidtoname_downlevel.obj
 0002:00004770       ??_C@_1M@KEJDAAHB@?$AAs?$AAe?$AA?9?$AAS?$AAE?$AA?$AA@ 0000000180048770     libucrt:lcidtoname_downlevel.obj
 0002:00004780       ??_C@_1M@HEIBJJAD@?$AAm?$AAs?$AA?9?$AAB?$AAN?$AA?$AA@ 0000000180048780     libucrt:lcidtoname_downlevel.obj
 0002:00004790       ??_C@_1BG@PBGJMCEM@?$AAu?$AAz?$AA?9?$AAU?$AAZ?$AA?9?$AAC?$AAy?$AAr?$AAl?$AA?$AA@ 0000000180048790     libucrt:lcidtoname_downlevel.obj
 0002:000047a8       ??_C@_1O@LAOBCMDF@?$AAq?$AAu?$AAz?$AA?9?$AAE?$AAC?$AA?$AA@ 00000001800487a8     libucrt:lcidtoname_downlevel.obj
 0002:000047b8       ??_C@_1M@POEEMAIO@?$AAa?$AAr?$AA?9?$AAE?$AAG?$AA?$AA@ 00000001800487b8     libucrt:lcidtoname_downlevel.obj
 0002:000047c8       ??_C@_1M@EFAKDEDL@?$AAz?$AAh?$AA?9?$AAH?$AAK?$AA?$AA@ 00000001800487c8     libucrt:lcidtoname_downlevel.obj
 0002:000047d8       ??_C@_1M@HKKIJHGI@?$AAd?$AAe?$AA?9?$AAA?$AAT?$AA?$AA@ 00000001800487d8     libucrt:lcidtoname_downlevel.obj
 0002:000047e8       ??_C@_1M@KBFBEHJF@?$AAe?$AAn?$AA?9?$AAA?$AAU?$AA?$AA@ 00000001800487e8     libucrt:lcidtoname_downlevel.obj
 0002:000047f8       ??_C@_1M@MNPLFAAH@?$AAe?$AAs?$AA?9?$AAE?$AAS?$AA?$AA@ 00000001800487f8     libucrt:lcidtoname_downlevel.obj
 0002:00004808       ??_C@_1M@HJOOJFMA@?$AAf?$AAr?$AA?9?$AAC?$AAA?$AA?$AA@ 0000000180048808     libucrt:lcidtoname_downlevel.obj
 0002:00004818       ??_C@_1BG@JPOFPNAB@?$AAs?$AAr?$AA?9?$AAS?$AAP?$AA?9?$AAC?$AAy?$AAr?$AAl?$AA?$AA@ 0000000180048818     libucrt:lcidtoname_downlevel.obj
 0002:00004830       ??_C@_1M@LNFOCMOB@?$AAs?$AAe?$AA?9?$AAF?$AAI?$AA?$AA@ 0000000180048830     libucrt:lcidtoname_downlevel.obj
 0002:00004840       ??_C@_1O@MGJBOAMB@?$AAq?$AAu?$AAz?$AA?9?$AAP?$AAE?$AA?$AA@ 0000000180048840     libucrt:lcidtoname_downlevel.obj
 0002:00004850       ??_C@_1M@GJINLBOK@?$AAa?$AAr?$AA?9?$AAL?$AAY?$AA?$AA@ 0000000180048850     libucrt:lcidtoname_downlevel.obj
 0002:00004860       ??_C@_1M@GGMNHJNL@?$AAz?$AAh?$AA?9?$AAS?$AAG?$AA?$AA@ 0000000180048860     libucrt:lcidtoname_downlevel.obj
 0002:00004870       ??_C@_1M@HOIKODND@?$AAd?$AAe?$AA?9?$AAL?$AAU?$AA?$AA@ 0000000180048870     libucrt:lcidtoname_downlevel.obj
 0002:00004880       ??_C@_1M@DDOCCGFG@?$AAe?$AAn?$AA?9?$AAC?$AAA?$AA?$AA@ 0000000180048880     libucrt:lcidtoname_downlevel.obj
 0002:00004890       ??_C@_1M@BNOEMJLF@?$AAe?$AAs?$AA?9?$AAG?$AAT?$AA?$AA@ 0000000180048890     libucrt:lcidtoname_downlevel.obj
 0002:000048a0       ??_C@_1M@EOGNKEK@?$AAf?$AAr?$AA?9?$AAC?$AAH?$AA?$AA@ 00000001800488a0     libucrt:lcidtoname_downlevel.obj
 0002:000048b0       ??_C@_1M@FLIDJFHL@?$AAh?$AAr?$AA?9?$AAB?$AAA?$AA?$AA@ 00000001800488b0     libucrt:lcidtoname_downlevel.obj
 0002:000048c0       ??_C@_1O@FMCELNAJ@?$AAs?$AAm?$AAj?$AA?9?$AAN?$AAO?$AA?$AA@ 00000001800488c0     libucrt:lcidtoname_downlevel.obj
 0002:000048d0       ??_C@_1M@JHGLJMGJ@?$AAa?$AAr?$AA?9?$AAD?$AAZ?$AA?$AA@ 00000001800488d0     libucrt:lcidtoname_downlevel.obj
 0002:000048e0       ??_C@_1M@JKKFDCNP@?$AAz?$AAh?$AA?9?$AAM?$AAO?$AA?$AA@ 00000001800488e0     libucrt:lcidtoname_downlevel.obj
 0002:000048f0       ??_C@_1M@GEEFALPE@?$AAd?$AAe?$AA?9?$AAL?$AAI?$AA?$AA@ 00000001800488f0     libucrt:lcidtoname_downlevel.obj
 0002:00004900       ??_C@_1M@IGEOFBG@?$AAe?$AAn?$AA?9?$AAN?$AAZ?$AA?$AA@ 0000000180048900     libucrt:lcidtoname_downlevel.obj
 0002:00004910       ??_C@_1M@KDBONEHP@?$AAe?$AAs?$AA?9?$AAC?$AAR?$AA?$AA@ 0000000180048910     libucrt:lcidtoname_downlevel.obj
 0002:00004920       ??_C@_1M@FHMDOHNN@?$AAf?$AAr?$AA?9?$AAL?$AAU?$AA?$AA@ 0000000180048920     libucrt:lcidtoname_downlevel.obj
 0002:00004930       ??_C@_1BG@NFKKMAFG@?$AAb?$AAs?$AA?9?$AAB?$AAA?$AA?9?$AAL?$AAa?$AAt?$AAn?$AA?$AA@ 0000000180048930     libucrt:lcidtoname_downlevel.obj
 0002:00004948       ??_C@_1O@IMNBEMCI@?$AAs?$AAm?$AAj?$AA?9?$AAS?$AAE?$AA?$AA@ 0000000180048948     libucrt:lcidtoname_downlevel.obj
 0002:00004958       ??_C@_1M@DHHMBNDP@?$AAa?$AAr?$AA?9?$AAM?$AAA?$AA?$AA@ 0000000180048958     libucrt:lcidtoname_downlevel.obj
 0002:00004968       ??_C@_1M@BNBLJCGH@?$AAe?$AAn?$AA?9?$AAI?$AAE?$AA?$AA@ 0000000180048968     libucrt:lcidtoname_downlevel.obj
 0002:00004978       ??_C@_1M@GEPAFMDL@?$AAe?$AAs?$AA?9?$AAP?$AAA?$AA?$AA@ 0000000180048978     libucrt:lcidtoname_downlevel.obj
 0002:00004988       ??_C@_1M@OJONDMDL@?$AAf?$AAr?$AA?9?$AAM?$AAC?$AA?$AA@ 0000000180048988     libucrt:lcidtoname_downlevel.obj
 0002:00004998       ??_C@_1BG@OBCNFJB@?$AAs?$AAr?$AA?9?$AAB?$AAA?$AA?9?$AAL?$AAa?$AAt?$AAn?$AA?$AA@ 0000000180048998     libucrt:lcidtoname_downlevel.obj
 0002:000049b0       ??_C@_1O@KEMEEGPO@?$AAs?$AAm?$AAa?$AA?9?$AAN?$AAO?$AA?$AA@ 00000001800489b0     libucrt:lcidtoname_downlevel.obj
 0002:000049c0       ??_C@_1M@ELMGFODK@?$AAa?$AAr?$AA?9?$AAT?$AAN?$AA?$AA@ 00000001800489c0     libucrt:lcidtoname_downlevel.obj
 0002:000049d0       ??_C@_1M@BHDLHFAF@?$AAe?$AAn?$AA?9?$AAZ?$AAA?$AA?$AA@ 00000001800489d0     libucrt:lcidtoname_downlevel.obj
 0002:000049e0       ??_C@_1M@BMGIGLIF@?$AAe?$AAs?$AA?9?$AAD?$AAO?$AA?$AA@ 00000001800489e0     libucrt:lcidtoname_downlevel.obj
 0002:000049f0       ??_C@_1BG@CMBHIPBE@?$AAs?$AAr?$AA?9?$AAB?$AAA?$AA?9?$AAC?$AAy?$AAr?$AAl?$AA?$AA@ 00000001800489f0     libucrt:lcidtoname_downlevel.obj
 0002:00004a08       ??_C@_1O@HEDBLHNP@?$AAs?$AAm?$AAa?$AA?9?$AAS?$AAE?$AA?$AA@ 0000000180048a08     libucrt:lcidtoname_downlevel.obj
 0002:00004a18       ??_C@_1M@DAGCADIM@?$AAa?$AAr?$AA?9?$AAO?$AAM?$AA?$AA@ 0000000180048a18     libucrt:lcidtoname_downlevel.obj
 0002:00004a28       ??_C@_1M@FODLMICG@?$AAe?$AAn?$AA?9?$AAJ?$AAM?$AA?$AA@ 0000000180048a28     libucrt:lcidtoname_downlevel.obj
 0002:00004a38       ??_C@_1M@DNMLCIHB@?$AAe?$AAs?$AA?9?$AAV?$AAE?$AA?$AA@ 0000000180048a38     libucrt:lcidtoname_downlevel.obj
 0002:00004a48       ??_C@_1O@EOKHMKJK@?$AAs?$AAm?$AAs?$AA?9?$AAF?$AAI?$AA?$AA@ 0000000180048a48     libucrt:lcidtoname_downlevel.obj
 0002:00004a58       ??_C@_1M@CAFJMKOF@?$AAa?$AAr?$AA?9?$AAY?$AAE?$AA?$AA@ 0000000180048a58     libucrt:lcidtoname_downlevel.obj
 0002:00004a68       ??_C@_1M@CBFHIJLI@?$AAe?$AAn?$AA?9?$AAC?$AAB?$AA?$AA@ 0000000180048a68     libucrt:lcidtoname_downlevel.obj
 0002:00004a78       ??_C@_1M@BGNFLDN@?$AAe?$AAs?$AA?9?$AAC?$AAO?$AA?$AA@ 0000000180048a78     libucrt:lcidtoname_downlevel.obj
 0002:00004a88       ??_C@_1O@JMPHMAMC@?$AAs?$AAm?$AAn?$AA?9?$AAF?$AAI?$AA?$AA@ 0000000180048a88     libucrt:lcidtoname_downlevel.obj
 0002:00004a98       ??_C@_1M@JLANABKE@?$AAa?$AAr?$AA?9?$AAS?$AAY?$AA?$AA@ 0000000180048a98     libucrt:lcidtoname_downlevel.obj
 0002:00004aa8       ??_C@_1M@HPKGCFGN@?$AAe?$AAn?$AA?9?$AAB?$AAZ?$AA?$AA@ 0000000180048aa8     libucrt:lcidtoname_downlevel.obj
 0002:00004ab8       ??_C@_1M@OLJCMLGM@?$AAe?$AAs?$AA?9?$AAP?$AAE?$AA?$AA@ 0000000180048ab8     libucrt:lcidtoname_downlevel.obj
 0002:00004ac8       ??_C@_1M@MKKGFKLE@?$AAa?$AAr?$AA?9?$AAJ?$AAO?$AA?$AA@ 0000000180048ac8     libucrt:lcidtoname_downlevel.obj
 0002:00004ad8       ??_C@_1M@EKPGLDNI@?$AAe?$AAn?$AA?9?$AAT?$AAT?$AA?$AA@ 0000000180048ad8     libucrt:lcidtoname_downlevel.obj
 0002:00004ae8       ??_C@_1M@OONGHFHE@?$AAe?$AAs?$AA?9?$AAA?$AAR?$AA?$AA@ 0000000180048ae8     libucrt:lcidtoname_downlevel.obj
 0002:00004af8       ??_C@_1M@OOJFGBHE@?$AAa?$AAr?$AA?9?$AAL?$AAB?$AA?$AA@ 0000000180048af8     libucrt:lcidtoname_downlevel.obj
 0002:00004b08       ??_C@_1M@GCEJHNEG@?$AAe?$AAn?$AA?9?$AAZ?$AAW?$AA?$AA@ 0000000180048b08     libucrt:lcidtoname_downlevel.obj
 0002:00004b18       ??_C@_1M@JNOCAHJI@?$AAe?$AAs?$AA?9?$AAE?$AAC?$AA?$AA@ 0000000180048b18     libucrt:lcidtoname_downlevel.obj
 0002:00004b28       ??_C@_1M@JEFHPGGB@?$AAa?$AAr?$AA?9?$AAK?$AAW?$AA?$AA@ 0000000180048b28     libucrt:lcidtoname_downlevel.obj
 0002:00004b38       ??_C@_1M@MLKIBJOJ@?$AAe?$AAn?$AA?9?$AAP?$AAH?$AA?$AA@ 0000000180048b38     libucrt:lcidtoname_downlevel.obj
 0002:00004b48       ??_C@_1M@BDNIPEND@?$AAe?$AAs?$AA?9?$AAC?$AAL?$AA?$AA@ 0000000180048b48     libucrt:lcidtoname_downlevel.obj
 0002:00004b58       ??_C@_1M@MPNMEKBD@?$AAa?$AAr?$AA?9?$AAA?$AAE?$AA?$AA@ 0000000180048b58     libucrt:lcidtoname_downlevel.obj
 0002:00004b68       ??_C@_1M@KBJALCPI@?$AAe?$AAs?$AA?9?$AAU?$AAY?$AA?$AA@ 0000000180048b68     libucrt:lcidtoname_downlevel.obj
 0002:00004b78       ??_C@_1M@LLCCOAGA@?$AAa?$AAr?$AA?9?$AAB?$AAH?$AA?$AA@ 0000000180048b78     libucrt:lcidtoname_downlevel.obj
 0002:00004b88       ??_C@_1M@PBFNCDEL@?$AAe?$AAs?$AA?9?$AAP?$AAY?$AA?$AA@ 0000000180048b88     libucrt:lcidtoname_downlevel.obj
 0002:00004b98       ??_C@_1M@EDGINPNP@?$AAa?$AAr?$AA?9?$AAQ?$AAA?$AA?$AA@ 0000000180048b98     libucrt:lcidtoname_downlevel.obj
 0002:00004ba8       ??_C@_1M@MKDBIIJI@?$AAe?$AAs?$AA?9?$AAB?$AAO?$AA?$AA@ 0000000180048ba8     libucrt:lcidtoname_downlevel.obj
 0002:00004bb8       ??_C@_1M@CPKKEBLD@?$AAe?$AAs?$AA?9?$AAS?$AAV?$AA?$AA@ 0000000180048bb8     libucrt:lcidtoname_downlevel.obj
 0002:00004bc8       ??_C@_1M@NDBGMMJL@?$AAe?$AAs?$AA?9?$AAH?$AAN?$AA?$AA@ 0000000180048bc8     libucrt:lcidtoname_downlevel.obj
 0002:00004bd8       ??_C@_1M@JIJIBHDP@?$AAe?$AAs?$AA?9?$AAN?$AAI?$AA?$AA@ 0000000180048bd8     libucrt:lcidtoname_downlevel.obj
 0002:00004be8       ??_C@_1M@CGFMKEEK@?$AAe?$AAs?$AA?9?$AAP?$AAR?$AA?$AA@ 0000000180048be8     libucrt:lcidtoname_downlevel.obj
 0002:00004bf8       ??_C@_1O@ICJHKIIK@?$AAz?$AAh?$AA?9?$AAC?$AAH?$AAT?$AA?$AA@ 0000000180048bf8     libucrt:lcidtoname_downlevel.obj
 0002:00004c08       ??_C@_15CLNEJCE@?$AAs?$AAr?$AA?$AA@ 0000000180048c08     libucrt:lcidtoname_downlevel.obj
 0002:00005a50       ??_C@_1M@KAHEKEIG@?$AAa?$AAf?$AA?9?$AAz?$AAa?$AA?$AA@ 0000000180049a50     libucrt:lcidtoname_downlevel.obj
 0002:00005a60       ??_C@_1M@GIECOABL@?$AAa?$AAr?$AA?9?$AAa?$AAe?$AA?$AA@ 0000000180049a60     libucrt:lcidtoname_downlevel.obj
 0002:00005a70       ??_C@_1M@BMLMEKGI@?$AAa?$AAr?$AA?9?$AAb?$AAh?$AA?$AA@ 0000000180049a70     libucrt:lcidtoname_downlevel.obj
 0002:00005a80       ??_C@_1M@DAPFDGGB@?$AAa?$AAr?$AA?9?$AAd?$AAz?$AA?$AA@ 0000000180049a80     libucrt:lcidtoname_downlevel.obj
 0002:00005a90       ??_C@_1M@FJNKGKIG@?$AAa?$AAr?$AA?9?$AAe?$AAg?$AA?$AA@ 0000000180049a90     libucrt:lcidtoname_downlevel.obj
 0002:00005aa0       ??_C@_1M@FLGKKCLO@?$AAa?$AAr?$AA?9?$AAi?$AAq?$AA?$AA@ 0000000180049aa0     libucrt:lcidtoname_downlevel.obj
 0002:00005ab0       ??_C@_1M@GNDIPALM@?$AAa?$AAr?$AA?9?$AAj?$AAo?$AA?$AA@ 0000000180049ab0     libucrt:lcidtoname_downlevel.obj
 0002:00005ac0       ??_C@_1M@DDMJFMGJ@?$AAa?$AAr?$AA?9?$AAk?$AAw?$AA?$AA@ 0000000180049ac0     libucrt:lcidtoname_downlevel.obj
 0002:00005ad0       ??_C@_1M@EJALMLHM@?$AAa?$AAr?$AA?9?$AAl?$AAb?$AA?$AA@ 0000000180049ad0     libucrt:lcidtoname_downlevel.obj
 0002:00005ae0       ??_C@_1M@MOBDBLOC@?$AAa?$AAr?$AA?9?$AAl?$AAy?$AA?$AA@ 0000000180049ae0     libucrt:lcidtoname_downlevel.obj
 0002:00005af0       ??_C@_1M@JAOCLHDH@?$AAa?$AAr?$AA?9?$AAm?$AAa?$AA?$AA@ 0000000180049af0     libucrt:lcidtoname_downlevel.obj
 0002:00005b00       ??_C@_1M@JHPMKJIE@?$AAa?$AAr?$AA?9?$AAo?$AAm?$AA?$AA@ 0000000180049b00     libucrt:lcidtoname_downlevel.obj
 0002:00005b10       ??_C@_1M@OEPGHFNH@?$AAa?$AAr?$AA?9?$AAq?$AAa?$AA?$AA@ 0000000180049b10     libucrt:lcidtoname_downlevel.obj
 0002:00005b20       ??_C@_1M@KJDONENM@?$AAa?$AAr?$AA?9?$AAs?$AAa?$AA?$AA@ 0000000180049b20     libucrt:lcidtoname_downlevel.obj
 0002:00005b30       ??_C@_1M@DMJDKLKM@?$AAa?$AAr?$AA?9?$AAs?$AAy?$AA?$AA@ 0000000180049b30     libucrt:lcidtoname_downlevel.obj
 0002:00005b40       ??_C@_1M@OMFIPEDC@?$AAa?$AAr?$AA?9?$AAt?$AAn?$AA?$AA@ 0000000180049b40     libucrt:lcidtoname_downlevel.obj
 0002:00005b50       ??_C@_1M@IHMHGAON@?$AAa?$AAr?$AA?9?$AAy?$AAe?$AA?$AA@ 0000000180049b50     libucrt:lcidtoname_downlevel.obj
 0002:00005b60       ??_C@_1BG@KDCPGJGB@?$AAa?$AAz?$AA?9?$AAa?$AAz?$AA?9?$AAc?$AAy?$AAr?$AAl?$AA?$AA@ 0000000180049b60     libucrt:lcidtoname_downlevel.obj
 0002:00005b78       ??_C@_1BG@IBCKDDOE@?$AAa?$AAz?$AA?9?$AAa?$AAz?$AA?9?$AAl?$AAa?$AAt?$AAn?$AA?$AA@ 0000000180049b78     libucrt:lcidtoname_downlevel.obj
 0002:00005b90       ??_C@_1M@EGPFDCPD@?$AAb?$AAe?$AA?9?$AAb?$AAy?$AA?$AA@ 0000000180049b90     libucrt:lcidtoname_downlevel.obj
 0002:00005ba0       ??_C@_1M@PCMGMCGC@?$AAb?$AAg?$AA?9?$AAb?$AAg?$AA?$AA@ 0000000180049ba0     libucrt:lcidtoname_downlevel.obj
 0002:00005bb0       ??_C@_1M@BJBMFGOB@?$AAb?$AAn?$AA?9?$AAi?$AAn?$AA?$AA@ 0000000180049bb0     libucrt:lcidtoname_downlevel.obj
 0002:00005bc0       ??_C@_1BG@EAKMMACD@?$AAb?$AAs?$AA?9?$AAb?$AAa?$AA?9?$AAl?$AAa?$AAt?$AAn?$AA?$AA@ 0000000180049bc0     libucrt:lcidtoname_downlevel.obj
 0002:00005bd8       ??_C@_1M@KGADAODK@?$AAc?$AAa?$AA?9?$AAe?$AAs?$AA?$AA@ 0000000180049bd8     libucrt:lcidtoname_downlevel.obj
 0002:00005be8       ??_C@_1M@COAJPDHI@?$AAc?$AAs?$AA?9?$AAc?$AAz?$AA?$AA@ 0000000180049be8     libucrt:lcidtoname_downlevel.obj
 0002:00005bf8       ??_C@_1M@DHBHFONH@?$AAc?$AAy?$AA?9?$AAg?$AAb?$AA?$AA@ 0000000180049bf8     libucrt:lcidtoname_downlevel.obj
 0002:00005c08       ??_C@_1M@IMGKELGA@?$AAd?$AAa?$AA?9?$AAd?$AAk?$AA?$AA@ 0000000180049c08     libucrt:lcidtoname_downlevel.obj
 0002:00005c18       ??_C@_1M@NNDGDNGA@?$AAd?$AAe?$AA?9?$AAa?$AAt?$AA?$AA@ 0000000180049c18     libucrt:lcidtoname_downlevel.obj
 0002:00005c28       ??_C@_1M@IKDBHEEM@?$AAd?$AAe?$AA?9?$AAc?$AAh?$AA?$AA@ 0000000180049c28     libucrt:lcidtoname_downlevel.obj
 0002:00005c38       ??_C@_1M@GFFOJMCJ@?$AAd?$AAe?$AA?9?$AAd?$AAe?$AA?$AA@ 0000000180049c38     libucrt:lcidtoname_downlevel.obj
 0002:00005c48       ??_C@_1M@MDNLKBPM@?$AAd?$AAe?$AA?9?$AAl?$AAi?$AA?$AA@ 0000000180049c48     libucrt:lcidtoname_downlevel.obj
 0002:00005c58       ??_C@_1M@NJBEEJNL@?$AAd?$AAe?$AA?9?$AAl?$AAu?$AA?$AA@ 0000000180049c58     libucrt:lcidtoname_downlevel.obj
 0002:00005c68       ??_C@_1O@GNNELBAP@?$AAd?$AAi?$AAv?$AA?9?$AAm?$AAv?$AA?$AA@ 0000000180049c68     libucrt:lcidtoname_downlevel.obj
 0002:00005c78       ??_C@_1M@EJLEOGAE@?$AAe?$AAl?$AA?9?$AAg?$AAr?$AA?$AA@ 0000000180049c78     libucrt:lcidtoname_downlevel.obj
 0002:00005c88       ??_C@_1M@GMPONJN@?$AAe?$AAn?$AA?9?$AAa?$AAu?$AA?$AA@ 0000000180049c88     libucrt:lcidtoname_downlevel.obj
 0002:00005c98       ??_C@_1M@NIDIIPGF@?$AAe?$AAn?$AA?9?$AAb?$AAz?$AA?$AA@ 0000000180049c98     libucrt:lcidtoname_downlevel.obj
 0002:00005ca8       ??_C@_1M@JEHMIMFO@?$AAe?$AAn?$AA?9?$AAc?$AAa?$AA?$AA@ 0000000180049ca8     libucrt:lcidtoname_downlevel.obj
 0002:00005cb8       ??_C@_1M@IGMJCDLA@?$AAe?$AAn?$AA?9?$AAc?$AAb?$AA?$AA@ 0000000180049cb8     libucrt:lcidtoname_downlevel.obj
 0002:00005cc8       ??_C@_1M@BNFIGBKG@?$AAe?$AAn?$AA?9?$AAg?$AAb?$AA?$AA@ 0000000180049cc8     libucrt:lcidtoname_downlevel.obj
 0002:00005cd8       ??_C@_1M@LKIFDIGP@?$AAe?$AAn?$AA?9?$AAi?$AAe?$AA?$AA@ 0000000180049cd8     libucrt:lcidtoname_downlevel.obj
 0002:00005ce8       ??_C@_1M@PJKFGCCO@?$AAe?$AAn?$AA?9?$AAj?$AAm?$AA?$AA@ 0000000180049ce8     libucrt:lcidtoname_downlevel.obj
 0002:00005cf8       ??_C@_1M@KPPKEPBO@?$AAe?$AAn?$AA?9?$AAn?$AAz?$AA?$AA@ 0000000180049cf8     libucrt:lcidtoname_downlevel.obj
 0002:00005d08       ??_C@_1M@GMDGLDOB@?$AAe?$AAn?$AA?9?$AAp?$AAh?$AA?$AA@ 0000000180049d08     libucrt:lcidtoname_downlevel.obj
 0002:00005d18       ??_C@_1M@ONGIBJNA@?$AAe?$AAn?$AA?9?$AAt?$AAt?$AA?$AA@ 0000000180049d18     libucrt:lcidtoname_downlevel.obj
 0002:00005d28       ??_C@_1M@LLODPCMM@?$AAe?$AAn?$AA?9?$AAu?$AAs?$AA?$AA@ 0000000180049d28     libucrt:lcidtoname_downlevel.obj
 0002:00005d38       ??_C@_1M@LAKFNPAN@?$AAe?$AAn?$AA?9?$AAz?$AAa?$AA?$AA@ 0000000180049d38     libucrt:lcidtoname_downlevel.obj
 0002:00005d48       ??_C@_1M@MFNHNHEO@?$AAe?$AAn?$AA?9?$AAz?$AAw?$AA?$AA@ 0000000180049d48     libucrt:lcidtoname_downlevel.obj
 0002:00005d58       ??_C@_1M@EJEINPHM@?$AAe?$AAs?$AA?9?$AAa?$AAr?$AA?$AA@ 0000000180049d58     libucrt:lcidtoname_downlevel.obj
 0002:00005d68       ??_C@_1M@GNKPCCJA@?$AAe?$AAs?$AA?9?$AAb?$AAo?$AA?$AA@ 0000000180049d68     libucrt:lcidtoname_downlevel.obj
 0002:00005d78       ??_C@_1M@LEEGFONL@?$AAe?$AAs?$AA?9?$AAc?$AAl?$AA?$AA@ 0000000180049d78     libucrt:lcidtoname_downlevel.obj
 0002:00005d88       ??_C@_1M@KGPDPBDF@?$AAe?$AAs?$AA?9?$AAc?$AAo?$AA?$AA@ 0000000180049d88     libucrt:lcidtoname_downlevel.obj
 0002:00005d98       ??_C@_1M@EIAHOHH@?$AAe?$AAs?$AA?9?$AAc?$AAr?$AA?$AA@ 0000000180049d98     libucrt:lcidtoname_downlevel.obj
 0002:00005da8       ??_C@_1M@LLPGMBIN@?$AAe?$AAs?$AA?9?$AAd?$AAo?$AA?$AA@ 0000000180049da8     libucrt:lcidtoname_downlevel.obj
 0002:00005db8       ??_C@_1M@DKHMKNJA@?$AAe?$AAs?$AA?9?$AAe?$AAc?$AA?$AA@ 0000000180049db8     libucrt:lcidtoname_downlevel.obj
 0002:00005dc8       ??_C@_1M@GKGFPKAP@?$AAe?$AAs?$AA?9?$AAe?$AAs?$AA?$AA@ 0000000180049dc8     libucrt:lcidtoname_downlevel.obj
 0002:00005dd8       ??_C@_1M@LKHKGDLN@?$AAe?$AAs?$AA?9?$AAg?$AAt?$AA?$AA@ 0000000180049dd8     libucrt:lcidtoname_downlevel.obj
 0002:00005de8       ??_C@_1M@HEIIGGJD@?$AAe?$AAs?$AA?9?$AAh?$AAn?$AA?$AA@ 0000000180049de8     libucrt:lcidtoname_downlevel.obj
 0002:00005df8       ??_C@_1M@FBDHPPGD@?$AAe?$AAs?$AA?9?$AAm?$AAx?$AA?$AA@ 0000000180049df8     libucrt:lcidtoname_downlevel.obj
 0002:00005e08       ??_C@_1M@DPAGLNDH@?$AAe?$AAs?$AA?9?$AAn?$AAi?$AA?$AA@ 0000000180049e08     libucrt:lcidtoname_downlevel.obj
 0002:00005e18       ??_C@_1M@MDGOPGDD@?$AAe?$AAs?$AA?9?$AAp?$AAa?$AA?$AA@ 0000000180049e18     libucrt:lcidtoname_downlevel.obj
 0002:00005e28       ??_C@_1M@EMAMGBGE@?$AAe?$AAs?$AA?9?$AAp?$AAe?$AA?$AA@ 0000000180049e28     libucrt:lcidtoname_downlevel.obj
 0002:00005e38       ??_C@_1M@IBMCAOEC@?$AAe?$AAs?$AA?9?$AAp?$AAr?$AA?$AA@ 0000000180049e38     libucrt:lcidtoname_downlevel.obj
 0002:00005e48       ??_C@_1M@FGMDIJED@?$AAe?$AAs?$AA?9?$AAp?$AAy?$AA?$AA@ 0000000180049e48     libucrt:lcidtoname_downlevel.obj
 0002:00005e58       ??_C@_1M@IIDEOLLL@?$AAe?$AAs?$AA?9?$AAs?$AAv?$AA?$AA@ 0000000180049e58     libucrt:lcidtoname_downlevel.obj
 0002:00005e68       ??_C@_1M@GAOBIPA@?$AAe?$AAs?$AA?9?$AAu?$AAy?$AA?$AA@ 0000000180049e68     libucrt:lcidtoname_downlevel.obj
 0002:00005e78       ??_C@_1M@JKFFICHJ@?$AAe?$AAs?$AA?9?$AAv?$AAe?$AA?$AA@ 0000000180049e78     libucrt:lcidtoname_downlevel.obj
 0002:00005e88       ??_C@_1M@PNMLOJDF@?$AAe?$AAt?$AA?9?$AAe?$AAe?$AA?$AA@ 0000000180049e88     libucrt:lcidtoname_downlevel.obj
 0002:00005e98       ??_C@_1M@GHHLIKEI@?$AAe?$AAu?$AA?9?$AAe?$AAs?$AA?$AA@ 0000000180049e98     libucrt:lcidtoname_downlevel.obj
 0002:00005ea8       ??_C@_1M@PBNONODE@?$AAf?$AAa?$AA?9?$AAi?$AAr?$AA?$AA@ 0000000180049ea8     libucrt:lcidtoname_downlevel.obj
 0002:00005eb8       ??_C@_1M@JEEHPMIL@?$AAf?$AAi?$AA?9?$AAf?$AAi?$AA?$AA@ 0000000180049eb8     libucrt:lcidtoname_downlevel.obj
 0002:00005ec8       ??_C@_1M@LMDCNDBA@?$AAf?$AAo?$AA?9?$AAf?$AAo?$AA?$AA@ 0000000180049ec8     libucrt:lcidtoname_downlevel.obj
 0002:00005ed8       ??_C@_1M@JKEOHLDK@?$AAf?$AAr?$AA?9?$AAb?$AAe?$AA?$AA@ 0000000180049ed8     libucrt:lcidtoname_downlevel.obj
 0002:00005ee8       ??_C@_1M@NOHADPMI@?$AAf?$AAr?$AA?9?$AAc?$AAa?$AA?$AA@ 0000000180049ee8     libucrt:lcidtoname_downlevel.obj
 0002:00005ef8       ??_C@_1M@KDHIHAEC@?$AAf?$AAr?$AA?9?$AAc?$AAh?$AA?$AA@ 0000000180049ef8     libucrt:lcidtoname_downlevel.obj
 0002:00005f08       ??_C@_1M@MMBBFGAK@?$AAf?$AAr?$AA?9?$AAf?$AAr?$AA?$AA@ 0000000180049f08     libucrt:lcidtoname_downlevel.obj
 0002:00005f18       ??_C@_1M@PAFNENNF@?$AAf?$AAr?$AA?9?$AAl?$AAu?$AA?$AA@ 0000000180049f18     libucrt:lcidtoname_downlevel.obj
 0002:00005f28       ??_C@_1M@EOHDJGDD@?$AAf?$AAr?$AA?9?$AAm?$AAc?$AA?$AA@ 0000000180049f28     libucrt:lcidtoname_downlevel.obj
 0002:00005f38       ??_C@_1M@FAPLLOPF@?$AAg?$AAl?$AA?9?$AAe?$AAs?$AA?$AA@ 0000000180049f38     libucrt:lcidtoname_downlevel.obj
 0002:00005f48       ??_C@_1M@FOPBFLOO@?$AAg?$AAu?$AA?9?$AAi?$AAn?$AA?$AA@ 0000000180049f48     libucrt:lcidtoname_downlevel.obj
 0002:00005f58       ??_C@_1M@KBMCINPM@?$AAh?$AAe?$AA?9?$AAi?$AAl?$AA?$AA@ 0000000180049f58     libucrt:lcidtoname_downlevel.obj
 0002:00005f68       ??_C@_1M@BBPHKFPJ@?$AAh?$AAi?$AA?9?$AAi?$AAn?$AA?$AA@ 0000000180049f68     libucrt:lcidtoname_downlevel.obj
 0002:00005f78       ??_C@_1M@PMBNDPHD@?$AAh?$AAr?$AA?9?$AAb?$AAa?$AA?$AA@ 0000000180049f78     libucrt:lcidtoname_downlevel.obj
 0002:00005f88       ??_C@_1M@BPCKOEGE@?$AAh?$AAr?$AA?9?$AAh?$AAr?$AA?$AA@ 0000000180049f88     libucrt:lcidtoname_downlevel.obj
 0002:00005f98       ??_C@_1M@GACBMHKE@?$AAh?$AAu?$AA?9?$AAh?$AAu?$AA?$AA@ 0000000180049f98     libucrt:lcidtoname_downlevel.obj
 0002:00005fa8       ??_C@_1M@MILPAJJC@?$AAh?$AAy?$AA?9?$AAa?$AAm?$AA?$AA@ 0000000180049fa8     libucrt:lcidtoname_downlevel.obj
 0002:00005fb8       ??_C@_1M@BABBICEC@?$AAi?$AAd?$AA?9?$AAi?$AAd?$AA?$AA@ 0000000180049fb8     libucrt:lcidtoname_downlevel.obj
 0002:00005fc8       ??_C@_1M@BIKNHHPF@?$AAi?$AAs?$AA?9?$AAi?$AAs?$AA?$AA@ 0000000180049fc8     libucrt:lcidtoname_downlevel.obj
 0002:00005fd8       ??_C@_1M@NMPCJPHE@?$AAi?$AAt?$AA?9?$AAc?$AAh?$AA?$AA@ 0000000180049fd8     libucrt:lcidtoname_downlevel.obj
 0002:00005fe8       ??_C@_1M@GHKGFEDF@?$AAi?$AAt?$AA?9?$AAi?$AAt?$AA?$AA@ 0000000180049fe8     libucrt:lcidtoname_downlevel.obj
 0002:00005ff8       ??_C@_1M@NIEJCJJA@?$AAj?$AAa?$AA?9?$AAj?$AAp?$AA?$AA@ 0000000180049ff8     libucrt:lcidtoname_downlevel.obj
 0002:00006008       ??_C@_1M@JILFNBIM@?$AAk?$AAa?$AA?9?$AAg?$AAe?$AA?$AA@ 000000018004a008     libucrt:lcidtoname_downlevel.obj
 0002:00006018       ??_C@_1M@PACPMGPH@?$AAk?$AAk?$AA?9?$AAk?$AAz?$AA?$AA@ 000000018004a018     libucrt:lcidtoname_downlevel.obj
 0002:00006028       ??_C@_1M@IELFGMHA@?$AAk?$AAn?$AA?9?$AAi?$AAn?$AA?$AA@ 000000018004a028     libucrt:lcidtoname_downlevel.obj
 0002:00006038       ??_C@_1O@IBBJHCH@?$AAk?$AAo?$AAk?$AA?9?$AAi?$AAn?$AA?$AA@ 000000018004a038     libucrt:lcidtoname_downlevel.obj
 0002:00006048       ??_C@_1M@DMHAEOGC@?$AAk?$AAo?$AA?9?$AAk?$AAr?$AA?$AA@ 000000018004a048     libucrt:lcidtoname_downlevel.obj
 0002:00006058       ??_C@_1M@HBAHBIGA@?$AAk?$AAy?$AA?9?$AAk?$AAg?$AA?$AA@ 000000018004a058     libucrt:lcidtoname_downlevel.obj
 0002:00006068       ??_C@_1M@KPMILCJG@?$AAl?$AAt?$AA?9?$AAl?$AAt?$AA?$AA@ 000000018004a068     libucrt:lcidtoname_downlevel.obj
 0002:00006078       ??_C@_1M@BDEKKCA@?$AAl?$AAv?$AA?9?$AAl?$AAv?$AA?$AA@ 000000018004a078     libucrt:lcidtoname_downlevel.obj
 0002:00006088       ??_C@_1M@ELCKCCJJ@?$AAm?$AAi?$AA?9?$AAn?$AAz?$AA?$AA@ 000000018004a088     libucrt:lcidtoname_downlevel.obj
 0002:00006098       ??_C@_1M@CBOOLAPA@?$AAm?$AAk?$AA?9?$AAm?$AAk?$AA?$AA@ 000000018004a098     libucrt:lcidtoname_downlevel.obj
 0002:000060a8       ??_C@_1M@GPHNBJKN@?$AAm?$AAl?$AA?9?$AAi?$AAn?$AA?$AA@ 000000018004a0a8     libucrt:lcidtoname_downlevel.obj
 0002:000060b8       ??_C@_1M@PABJILIG@?$AAm?$AAn?$AA?9?$AAm?$AAn?$AA?$AA@ 000000018004a0b8     libucrt:lcidtoname_downlevel.obj
 0002:000060c8       ??_C@_1M@FGBKKIPG@?$AAm?$AAr?$AA?9?$AAi?$AAn?$AA?$AA@ 000000018004a0c8     libucrt:lcidtoname_downlevel.obj
 0002:000060d8       ??_C@_1M@NDBPDDAL@?$AAm?$AAs?$AA?9?$AAb?$AAn?$AA?$AA@ 000000018004a0d8     libucrt:lcidtoname_downlevel.obj
 0002:000060e8       ??_C@_1M@OPIHOOPI@?$AAm?$AAs?$AA?9?$AAm?$AAy?$AA?$AA@ 000000018004a0e8     libucrt:lcidtoname_downlevel.obj
 0002:000060f8       ??_C@_1M@PPDBCNFM@?$AAm?$AAt?$AA?9?$AAm?$AAt?$AA?$AA@ 000000018004a0f8     libucrt:lcidtoname_downlevel.obj
 0002:00006108       ??_C@_1M@KDJDKMDD@?$AAn?$AAb?$AA?9?$AAn?$AAo?$AA?$AA@ 000000018004a108     libucrt:lcidtoname_downlevel.obj
 0002:00006118       ??_C@_1M@KFCFLMJP@?$AAn?$AAl?$AA?9?$AAb?$AAe?$AA?$AA@ 000000018004a118     libucrt:lcidtoname_downlevel.obj
 0002:00006128       ??_C@_1M@KPOPDDGO@?$AAn?$AAl?$AA?9?$AAn?$AAl?$AA?$AA@ 000000018004a128     libucrt:lcidtoname_downlevel.obj
 0002:00006138       ??_C@_1M@LJKPEMLN@?$AAn?$AAn?$AA?9?$AAn?$AAo?$AA?$AA@ 000000018004a138     libucrt:lcidtoname_downlevel.obj
 0002:00006148       ??_C@_1M@BDGHHBFL@?$AAn?$AAs?$AA?9?$AAz?$AAa?$AA?$AA@ 000000018004a148     libucrt:lcidtoname_downlevel.obj
 0002:00006158       ??_C@_1M@IDEHOAP@?$AAp?$AAa?$AA?9?$AAi?$AAn?$AA?$AA@ 000000018004a158     libucrt:lcidtoname_downlevel.obj
 0002:00006168       ??_C@_1M@HDBKGOGH@?$AAp?$AAl?$AA?9?$AAp?$AAl?$AA?$AA@ 000000018004a168     libucrt:lcidtoname_downlevel.obj
 0002:00006178       ??_C@_1M@LJLLCMEH@?$AAp?$AAt?$AA?9?$AAb?$AAr?$AA?$AA@ 000000018004a178     libucrt:lcidtoname_downlevel.obj
 0002:00006188       ??_C@_1M@NCMONAAL@?$AAp?$AAt?$AA?9?$AAp?$AAt?$AA?$AA@ 000000018004a188     libucrt:lcidtoname_downlevel.obj
 0002:00006198       ??_C@_1O@EAKMAJDN@?$AAq?$AAu?$AAz?$AA?9?$AAb?$AAo?$AA?$AA@ 000000018004a198     libucrt:lcidtoname_downlevel.obj
 0002:000061a8       ??_C@_1O@BHHPIGDN@?$AAq?$AAu?$AAz?$AA?9?$AAe?$AAc?$AA?$AA@ 000000018004a1a8     libucrt:lcidtoname_downlevel.obj
 0002:000061b8       ??_C@_1O@GBAPEKMJ@?$AAq?$AAu?$AAz?$AA?9?$AAp?$AAe?$AA?$AA@ 000000018004a1b8     libucrt:lcidtoname_downlevel.obj
 0002:000061c8       ??_C@_1M@CLGLEFBO@?$AAr?$AAo?$AA?9?$AAr?$AAo?$AA?$AA@ 000000018004a1c8     libucrt:lcidtoname_downlevel.obj
 0002:000061d8       ??_C@_1M@CEEDODME@?$AAr?$AAu?$AA?9?$AAr?$AAu?$AA?$AA@ 000000018004a1d8     libucrt:lcidtoname_downlevel.obj
 0002:000061e8       ??_C@_1M@HPKKKMPP@?$AAs?$AAa?$AA?9?$AAi?$AAn?$AA?$AA@ 000000018004a1e8     libucrt:lcidtoname_downlevel.obj
 0002:000061f8       ??_C@_1M@BKMAIGOJ@?$AAs?$AAe?$AA?9?$AAf?$AAi?$AA?$AA@ 000000018004a1f8     libucrt:lcidtoname_downlevel.obj
 0002:00006208       ??_C@_1M@NDPIFLFI@?$AAs?$AAe?$AA?9?$AAn?$AAo?$AA?$AA@ 000000018004a208     libucrt:lcidtoname_downlevel.obj
 0002:00006218       ??_C@_1M@DANKKHJ@?$AAs?$AAe?$AA?9?$AAs?$AAe?$AA?$AA@ 000000018004a218     libucrt:lcidtoname_downlevel.obj
 0002:00006228       ??_C@_1M@PNBLONPJ@?$AAs?$AAk?$AA?9?$AAs?$AAk?$AA?$AA@ 000000018004a228     libucrt:lcidtoname_downlevel.obj
 0002:00006238       ??_C@_1M@LFMODOAL@?$AAs?$AAl?$AA?9?$AAs?$AAi?$AA?$AA@ 000000018004a238     libucrt:lcidtoname_downlevel.obj
 0002:00006248       ??_C@_1O@DFKOMPG@?$AAs?$AAm?$AAa?$AA?9?$AAn?$AAo?$AA?$AA@ 000000018004a248     libucrt:lcidtoname_downlevel.obj
 0002:00006258       ??_C@_1O@NDKPBNNH@?$AAs?$AAm?$AAa?$AA?9?$AAs?$AAe?$AA?$AA@ 000000018004a258     libucrt:lcidtoname_downlevel.obj
 0002:00006268       ??_C@_1O@PLLKBHAB@?$AAs?$AAm?$AAj?$AA?9?$AAn?$AAo?$AA?$AA@ 000000018004a268     libucrt:lcidtoname_downlevel.obj
 0002:00006278       ??_C@_1O@CLEPOGCA@?$AAs?$AAm?$AAj?$AA?9?$AAs?$AAe?$AA?$AA@ 000000018004a278     libucrt:lcidtoname_downlevel.obj
 0002:00006288       ??_C@_1O@DLGJGKMK@?$AAs?$AAm?$AAn?$AA?9?$AAf?$AAi?$AA?$AA@ 000000018004a288     libucrt:lcidtoname_downlevel.obj
 0002:00006298       ??_C@_1O@OJDJGAJC@?$AAs?$AAm?$AAs?$AA?9?$AAf?$AAi?$AA?$AA@ 000000018004a298     libucrt:lcidtoname_downlevel.obj
 0002:000062a8       ??_C@_1M@BOFOGHPB@?$AAs?$AAq?$AA?9?$AAa?$AAl?$AA?$AA@ 000000018004a2a8     libucrt:lcidtoname_downlevel.obj
 0002:000062b8       ??_C@_1BG@LJBBIPGB@?$AAs?$AAr?$AA?9?$AAb?$AAa?$AA?9?$AAc?$AAy?$AAr?$AAl?$AA?$AA@ 000000018004a2b8     libucrt:lcidtoname_downlevel.obj
 0002:000062d0       ??_C@_1BG@JLBENFOE@?$AAs?$AAr?$AA?9?$AAb?$AAa?$AA?9?$AAl?$AAa?$AAt?$AAn?$AA?$AA@ 000000018004a2d0     libucrt:lcidtoname_downlevel.obj
 0002:000062e8       ??_C@_1BG@KODPNHE@?$AAs?$AAr?$AA?9?$AAs?$AAp?$AA?9?$AAc?$AAy?$AAr?$AAl?$AA?$AA@ 000000018004a2e8     libucrt:lcidtoname_downlevel.obj
 0002:00006300       ??_C@_1BG@CIOGKHPB@?$AAs?$AAr?$AA?9?$AAs?$AAp?$AA?9?$AAl?$AAa?$AAt?$AAn?$AA?$AA@ 000000018004a300     libucrt:lcidtoname_downlevel.obj
 0002:00006318       ??_C@_1M@NGFJLMAC@?$AAs?$AAv?$AA?9?$AAf?$AAi?$AA?$AA@ 000000018004a318     libucrt:lcidtoname_downlevel.obj
 0002:00006328       ??_C@_1M@MPJEJAJC@?$AAs?$AAv?$AA?9?$AAs?$AAe?$AA?$AA@ 000000018004a328     libucrt:lcidtoname_downlevel.obj
 0002:00006338       ??_C@_1M@MPNDHLFK@?$AAs?$AAw?$AA?9?$AAk?$AAe?$AA?$AA@ 000000018004a338     libucrt:lcidtoname_downlevel.obj
 0002:00006348       ??_C@_1O@KOHBJJI@?$AAs?$AAy?$AAr?$AA?9?$AAs?$AAy?$AA?$AA@ 000000018004a348     libucrt:lcidtoname_downlevel.obj
 0002:00006358       ??_C@_1M@LDCEFHA@?$AAt?$AAa?$AA?9?$AAi?$AAn?$AA?$AA@ 000000018004a358     libucrt:lcidtoname_downlevel.obj
 0002:00006368       ??_C@_1M@CNJOFAK@?$AAt?$AAe?$AA?9?$AAi?$AAn?$AA?$AA@ 000000018004a368     libucrt:lcidtoname_downlevel.obj
 0002:00006378       ??_C@_1M@GNAECACD@?$AAt?$AAh?$AA?9?$AAt?$AAh?$AA?$AA@ 000000018004a378     libucrt:lcidtoname_downlevel.obj
 0002:00006388       ??_C@_1M@CHBIHOJO@?$AAt?$AAn?$AA?9?$AAz?$AAa?$AA?$AA@ 000000018004a388     libucrt:lcidtoname_downlevel.obj
 0002:00006398       ??_C@_1M@GCCMIGPJ@?$AAt?$AAr?$AA?9?$AAt?$AAr?$AA?$AA@ 000000018004a398     libucrt:lcidtoname_downlevel.obj
 0002:000063a8       ??_C@_1M@CELMCNBK@?$AAt?$AAt?$AA?9?$AAr?$AAu?$AA?$AA@ 000000018004a3a8     libucrt:lcidtoname_downlevel.obj
 0002:000063b8       ??_C@_1M@KLMCELGA@?$AAu?$AAk?$AA?9?$AAu?$AAa?$AA?$AA@ 000000018004a3b8     libucrt:lcidtoname_downlevel.obj
 0002:000063c8       ??_C@_1M@EPAJJAJF@?$AAu?$AAr?$AA?9?$AAp?$AAk?$AA?$AA@ 000000018004a3c8     libucrt:lcidtoname_downlevel.obj
 0002:000063d8       ??_C@_1BG@GEGPMCDJ@?$AAu?$AAz?$AA?9?$AAu?$AAz?$AA?9?$AAc?$AAy?$AAr?$AAl?$AA?$AA@ 000000018004a3d8     libucrt:lcidtoname_downlevel.obj
 0002:000063f0       ??_C@_1BG@EGGKJILM@?$AAu?$AAz?$AA?9?$AAu?$AAz?$AA?9?$AAl?$AAa?$AAt?$AAn?$AA?$AA@ 000000018004a3f0     libucrt:lcidtoname_downlevel.obj
 0002:00006408       ??_C@_1M@GFOCLFF@?$AAv?$AAi?$AA?9?$AAv?$AAn?$AA?$AA@ 000000018004a408     libucrt:lcidtoname_downlevel.obj
 0002:00006418       ??_C@_1M@CPAMEDFI@?$AAx?$AAh?$AA?9?$AAz?$AAa?$AA?$AA@ 000000018004a418     libucrt:lcidtoname_downlevel.obj
 0002:00006428       ??_C@_1O@EBKIFIGN@?$AAz?$AAh?$AA?9?$AAc?$AAh?$AAs?$AA?$AA@ 000000018004a428     libucrt:lcidtoname_downlevel.obj
 0002:00006438       ??_C@_1O@NMHPGANE@?$AAz?$AAh?$AA?9?$AAc?$AAh?$AAt?$AA?$AA@ 000000018004a438     libucrt:lcidtoname_downlevel.obj
 0002:00006448       ??_C@_1M@LPINJOMC@?$AAz?$AAh?$AA?9?$AAc?$AAn?$AA?$AA@ 000000018004a448     libucrt:lcidtoname_downlevel.obj
 0002:00006458       ??_C@_1M@OCJEJODD@?$AAz?$AAh?$AA?9?$AAh?$AAk?$AA?$AA@ 000000018004a458     libucrt:lcidtoname_downlevel.obj
 0002:00006468       ??_C@_1M@DNDLJINH@?$AAz?$AAh?$AA?9?$AAm?$AAo?$AA?$AA@ 000000018004a468     libucrt:lcidtoname_downlevel.obj
 0002:00006478       ??_C@_1M@MBFDNDND@?$AAz?$AAh?$AA?9?$AAs?$AAg?$AA?$AA@ 000000018004a478     libucrt:lcidtoname_downlevel.obj
 0002:00006488       ??_C@_1M@IMEPLEPE@?$AAz?$AAh?$AA?9?$AAt?$AAw?$AA?$AA@ 000000018004a488     libucrt:lcidtoname_downlevel.obj
 0002:00006498       ??_C@_1M@BBGHNHJP@?$AAz?$AAu?$AA?9?$AAz?$AAa?$AA?$AA@ 000000018004a498     libucrt:lcidtoname_downlevel.obj
 0002:000064b0       ?large_power_data@?1??multiply_by_power_of_ten@__crt_strtox@@YA_NAEAUbig_integer@2@I@Z@4QBIB 000000018004a4b0     libucrt:cfout.obj
 0002:00006dc0       ?large_power_indices@?1??multiply_by_power_of_ten@__crt_strtox@@YA_NAEAUbig_integer@2@I@Z@4QBUunpack_index@?1??12@YA_N0I@Z@B 000000018004adc0     libucrt:cfout.obj
 0002:00006e58       ?small_powers_of_ten@?6??multiply_by_power_of_ten@__crt_strtox@@YA_NAEAUbig_integer@2@I@Z@4QBIB 000000018004ae58     libucrt:cfout.obj
 0002:00006e7c       ??_C@_01GBGANLPD@0?$AA@    000000018004ae7c     libucrt:cfout.obj
 0002:00006e80       ??_C@_05DNEBIAHO@1?$CDINF?$AA@ 000000018004ae80     libucrt:cfout.obj
 0002:00006e88       ??_C@_06IMKFLFPG@1?$CDQNAN?$AA@ 000000018004ae88     libucrt:cfout.obj
 0002:00006e90       ??_C@_06PGGFOGJG@1?$CDSNAN?$AA@ 000000018004ae90     libucrt:cfout.obj
 0002:00006e98       ??_C@_05PHHOCPM@1?$CDIND?$AA@ 000000018004ae98     libucrt:cfout.obj
 0002:00006ea0       ??_C@_05HGHHAHAP@log10?$AA@ 000000018004aea0     libucrt:fpexcept.obj
 0002:00007110       ??_C@_1BA@BALFACEM@?$AAC?$AAO?$AAN?$AAO?$AAU?$AAT?$AA$?$AA?$AA@ 000000018004b110     libucrt:initcon.obj
 0002:00007120       __log10_256_lead           000000018004b120     libucrt:log10_256_lead_tail_table.obj
 0002:00007930       __log10_256_tail           000000018004b930     libucrt:log10_256_lead_tail_table.obj
 0002:00008140       __log_F_inv_qword          000000018004c140     libucrt:log_f_inv_qword_table.obj
 0002:00008950       ??_C@_1BK@DBDEIDLH@?$AAK?$AAE?$AAR?$AAN?$AAE?$AAL?$AA3?$AA2?$AA?4?$AAD?$AAL?$AAL?$AA?$AA@ 000000018004c950     DelayImp:delayhlp.obj
 0002:00008970       ??_C@_0BI@OMNLIJDB@AcquireSRWLockExclusive?$AA@ 000000018004c970     DelayImp:delayhlp.obj
 0002:00008988       ??_C@_0BI@HMIEPCNJ@ReleaseSRWLockExclusive?$AA@ 000000018004c988     DelayImp:delayhlp.obj
 0002:000089a0       __pfnDliFailureHook2       000000018004c9a0     DelayImp:delayhk1.obj
 0002:000089b0       _load_config_used          000000018004c9b0     LIBCMT:loadcfg.obj
 0002:00008a50       ??_C@_1FO@NMGOCIBE@?$AAC?$AA?3?$AA?2?$AAx?$AAa?$AAm?$AAp?$AAp?$AA?2?$AAh?$AAt?$AAd?$AAo?$AAc?$AAs?$AA?2?$AAs?$AAp?$AAa?$AA?2?$AAs?$AAp?$AAa?$AA?2?$AAn?$AAo?$AAd?$AAe?$AA_?$AAm?$AAo?$AAd@ 000000018004ca50     addon.obj
 0002:00008ab0       ??_C@_1FM@LOELJOFK@?$AAs?$AAi?$AAz?$AAe?$AA?5?$AA?$DM?$AA?$DN?$AA?5?$AAi?$AAm?$AAp?$AA?3?$AA?3?$AAk?$AAM?$AAa?$AAx?$AAL?$AAe?$AAn?$AAg?$AAt?$AAh?$AA?5?$AA?$CG?$AA?$CG?$AA?5?$AA?$CC?$AAt?$AAo?$AAo?$AA?5@ 000000018004cab0     addon.obj
 0002:00008b10       ??_C@_0BN@EPMABAF@First?5arg?5should?5be?5a?5Buffer?$AA@ 000000018004cb10     addon.obj
 0002:00008b30       ??_C@_0CC@NHECKMAN@Could?5not?5convert?5the?5given?5font@ 000000018004cb30     addon.obj
 0002:00008b58       ??_C@_07ONPFMHHK@convert?$AA@ 000000018004cb58     addon.obj
 0002:00008b60       ??_C@_0BB@LOHIFOB@?4?4?2csrc?2addon?4cc?$AA@ 000000018004cb60     addon.obj
 0002:00008b74       ??_C@_05ONJGPJEO@addon?$AA@ 000000018004cb74     addon.obj
 0002:00008b80       ??_C@_0BD@OLBABOEK@vector?$DMT?$DO?5too?5long?$AA@ 000000018004cb80     glyph.obj
 0002:00008ba0       ??_C@_1LO@IELJHOFG@?$AAc?$AA?3?$AA?2?$AAx?$AAa?$AAm?$AAp?$AAp?$AA?2?$AAh?$AAt?$AAd?$AAo?$AAc?$AAs?$AA?2?$AAs?$AAp?$AAa?$AA?2?$AAs?$AAp?$AAa?$AA?2?$AAn?$AAo?$AAd?$AAe?$AA_?$AAm?$AAo?$AAd@ 000000018004cba0     font.obj
 0002:00008c60       ??_C@_1BG@GNOBELO@?$AAv?$AAa?$AAl?$AAu?$AAe?$AA?5?$AA?$DN?$AA?$DN?$AA?5?$AA1?$AA?$AA@ 000000018004cc60     font.obj
 0002:00008c78       ??_C@_0BE@JONHPENG@map?1set?$DMT?$DO?5too?5long?$AA@ 000000018004cc78     font.obj
 0002:00008ca0       ?kKnownTags@woff2@@3QBIB   000000018004cca0     table_tags.obj
 0002:00045978       __pfnDliNotifyHook2        0000000180089978     win_delay_load_hook.obj
 0002:00095e20       ??_C@_0BM@NIJEAGPP@Font?5normalization?5failed?4?6?$AA@ 00000001800d9e20     normalize.obj
 0002:00095e40       ??_C@_0BJ@MEPOFKNI@Failed?5to?5fix?5checksums?6?$AA@ 00000001800d9e40     normalize.obj
 0002:00095e59       ??_C@_00CNPNBAHC@?$AA@     00000001800d9e59     woff2_enc.obj
 0002:00095e5c       ??_C@_01CLKCMJKC@?5?$AA@   00000001800d9e5c     woff2_enc.obj
 0002:00095e60       ??_C@_05GAMJOPOA@?5the?5?$AA@ 00000001800d9e60     woff2_enc.obj
 0002:00095e68       ??_C@_02MDINNEEG@s?5?$AA@  00000001800d9e68     woff2_enc.obj
 0002:00095e6c       ??_C@_04ECIHFDID@?5of?5?$AA@ 00000001800d9e6c     woff2_enc.obj
 0002:00095e74       ??_C@_05OMGAMCPJ@?5and?5?$AA@ 00000001800d9e74     woff2_enc.obj
 0002:00095e7c       ??_C@_02KEGNLNML@?0?5?$AA@ 00000001800d9e7c     woff2_enc.obj
 0002:00095e80       ??_C@_04GJPPFNOH@?5in?5?$AA@ 00000001800d9e80     woff2_enc.obj
 0002:00095e88       ??_C@_04MKEOLIJC@?5to?5?$AA@ 00000001800d9e88     woff2_enc.obj
 0002:00095e90       ??_C@_02NLCGALIE@e?5?$AA@  00000001800d9e90     woff2_enc.obj
 0002:00095e94       ??_C@_01BJJEKLCA@?$CC?$AA@ 00000001800d9e94     woff2_enc.obj
 0002:00095e98       ??_C@_01LFCBOECM@?4?$AA@   00000001800d9e98     woff2_enc.obj
 0002:00095e9c       ??_C@_02HKLCKPBO@?$CC?$DO?$AA@ 00000001800d9e9c     woff2_enc.obj
 0002:00095ea0       ??_C@_01EEMJAFIK@?6?$AA@   00000001800d9ea0     woff2_enc.obj
 0002:00095ea4       ??_C@_01LBDDMOBJ@?$FN?$AA@ 00000001800d9ea4     woff2_enc.obj
 0002:00095ea8       ??_C@_05POFHKGEO@?5for?5?$AA@ 00000001800d9ea8     woff2_enc.obj
 0002:00095eb0       ??_C@_03KCBIAKGI@?5a?5?$AA@ 00000001800d9eb0     woff2_enc.obj
 0002:00095eb4       ??_C@_06NBDJBOAO@?5that?5?$AA@ 00000001800d9eb4     woff2_enc.obj
 0002:00095ebc       ??_C@_02KHOJGJKF@?4?5?$AA@ 00000001800d9ebc     woff2_enc.obj
 0002:00095ec0       ??_C@_06BIDGLIKJ@?5with?5?$AA@ 00000001800d9ec0     woff2_enc.obj
 0002:00095ec8       ??_C@_01GEODFPGF@?8?$AA@   00000001800d9ec8     woff2_enc.obj
 0002:00095ecc       ??_C@_06EGFPNNHB@?5from?5?$AA@ 00000001800d9ecc     woff2_enc.obj
 0002:00095ed4       ??_C@_04KHJHGPBD@?5by?5?$AA@ 00000001800d9ed4     woff2_enc.obj
 0002:00095edc       ??_C@_06BCCEPMPI@?4?5The?5?$AA@ 00000001800d9edc     woff2_enc.obj
 0002:00095ee4       ??_C@_04EMJEACDL@?5on?5?$AA@ 00000001800d9ee4     woff2_enc.obj
 0002:00095eec       ??_C@_04LILFEFCL@?5as?5?$AA@ 00000001800d9eec     woff2_enc.obj
 0002:00095ef4       ??_C@_04HNABGNME@?5is?5?$AA@ 00000001800d9ef4     woff2_enc.obj
 0002:00095efc       ??_C@_04KOBKGEOJ@ing?5?$AA@ 00000001800d9efc     woff2_enc.obj
 0002:00095f04       ??_C@_02NMOLBIHC@?6?7?$AA@ 00000001800d9f04     woff2_enc.obj
 0002:00095f08       ??_C@_01JLIPDDHJ@?3?$AA@   00000001800d9f08     woff2_enc.obj
 0002:00095f0c       ??_C@_03IBJGAIM@ed?5?$AA@  00000001800d9f0c     woff2_enc.obj
 0002:00095f10       ??_C@_01ODHLEDKK@?$CI?$AA@ 00000001800d9f10     woff2_enc.obj
 0002:00095f14       ??_C@_04LNPKFDKO@?5at?5?$AA@ 00000001800d9f14     woff2_enc.obj
 0002:00095f1c       ??_C@_03GBOPBPCF@ly?5?$AA@ 00000001800d9f1c     woff2_enc.obj
 0002:00095f20       ??_C@_02ILLPBGAO@?$DN?$CC?$AA@ 00000001800d9f20     woff2_enc.obj
 0002:00095f24       ??_C@_05JMFPLAMM@?4com?1?$AA@ 00000001800d9f24     woff2_enc.obj
 0002:00095f30       ??_C@_08FEFOBDIG@?5of?5the?5?$AA@ 00000001800d9f30     woff2_enc.obj
 0002:00095f40       ??_C@_07CNMFFCB@?4?5This?5?$AA@ 00000001800d9f40     woff2_enc.obj
 0002:00095f48       ??_C@_01IHBHIGKO@?0?$AA@   00000001800d9f48     woff2_enc.obj
 0002:00095f4c       ??_C@_05MKKKJBDN@?5not?5?$AA@ 00000001800d9f4c     woff2_enc.obj
 0002:00095f54       ??_C@_03BALCLPEO@er?5?$AA@ 00000001800d9f54     woff2_enc.obj
 0002:00095f58       ??_C@_03IJGIKGGD@al?5?$AA@ 00000001800d9f58     woff2_enc.obj
 0002:00095f5c       ??_C@_02PGMIOCEL@?$DN?8?$AA@ 00000001800d9f5c     woff2_enc.obj
 0002:00095f60       ??_C@_04KHAHMMEH@ful?5?$AA@ 00000001800d9f60     woff2_enc.obj
 0002:00095f68       ??_C@_04DIDDMPPH@ive?5?$AA@ 00000001800d9f68     woff2_enc.obj
 0002:00095f70       ??_C@_05NKGAJEJJ@less?5?$AA@ 00000001800d9f70     woff2_enc.obj
 0002:00095f78       ??_C@_04NHPJBLID@est?5?$AA@ 00000001800d9f78     woff2_enc.obj
 0002:00095f80       ??_C@_04HCOFHAEP@ize?5?$AA@ 00000001800d9f80     woff2_enc.obj
 0002:00095f88       ??_C@_02DMJCNICK@?B?$KA?$AA@ 00000001800d9f88     woff2_enc.obj
 0002:00095f8c       ??_C@_04LNGNEKHL@ous?5?$AA@ 00000001800d9f8c     woff2_enc.obj
 0002:00095f98       ??_C@_0BN@HEAHNNMF@Font?5transformation?5failed?4?6?$AA@ 00000001800d9f98     woff2_enc.obj
 0002:00095fb8       ??_C@_0CD@OCNFMKNP@Parsing?5of?5the?5input?5font?5failed@ 00000001800d9fb8     woff2_enc.obj
 0002:00095fe0       ??_C@_0CH@EOJHPIKI@Compression?5of?5combined?5table?5fa@ 00000001800d9fe0     woff2_enc.obj
 0002:00096008       ??_C@_0CK@GMDJIFKF@Compression?5of?5extended?5metadata@ 00000001800da008     woff2_enc.obj
 0002:00096038       ??_C@_0DF@MEPEAJOB@Result?5allocation?5was?5too?5small?5@ 00000001800da038     woff2_enc.obj
 0002:00096070       ??_C@_0CH@JJNHMEMJ@Missing?5table?5index?5for?5offset?50@ 00000001800da070     woff2_enc.obj
 0002:00096098       ??_C@_0DK@GDAEJMMO@Mismatch?5between?5computed?5and?5ac@ 00000001800da098     woff2_enc.obj
 0002:000960d8       ??_C@_0BG@BBKNOMOH@invalid?5map?$DMK?0?5T?$DO?5key?$AA@ 00000001800da0d8     woff2_enc.obj
 0002:000960f0       ??_C@_0BA@JFNIOLAK@string?5too?5long?$AA@ 00000001800da0f0     woff2_enc.obj
 0002:00096100       ??_C@_0BI@CFPLBAOH@invalid?5string?5position?$AA@ 00000001800da100     woff2_enc.obj
 0002:00096120       ??_C@_1MC@CEHFLECN@?$AAc?$AA?3?$AA?2?$AAx?$AAa?$AAm?$AAp?$AAp?$AA?2?$AAh?$AAt?$AAd?$AAo?$AAc?$AAs?$AA?2?$AAs?$AAp?$AAa?$AA?2?$AAs?$AAp?$AAa?$AA?2?$AAn?$AAo?$AAd?$AAe?$AA_?$AAm?$AAo?$AAd@ 00000001800da120     backward_references.obj
 0002:000961f0       ?kDistanceShortCodeBitCost@?1??BackwardReferenceScoreUsingLastDistance@brotli@@YANNHH@Z@4QBNB 00000001800da1f0     backward_references.obj
 0002:00096270       ?kLimits@?EG@???$CreateBackwardReferences@V?$HashLongestMatch@$0P@$07$03$0BA@$0A@$0A@@brotli@@$0A@$0A@@brotli@@YAX_K0PEBE0PEBM0_KNHPEAV?$HashLongestMatch@$0P@$07$03$0BA@$0A@$0A@@1@PEAH5PEAUCommand@1@5@Z@4QBHB 00000001800da270     backward_references.obj
 0002:00096270       ?kLimits@?EG@???$CreateBackwardReferences@V?$HashLongestMatchQuickly@$0BA@$00@brotli@@$0A@$0A@@brotli@@YAX_K0PEBE0PEBM0_KNHPEAV?$HashLongestMatchQuickly@$0BA@$00@1@PEAH5PEAUCommand@1@5@Z@4QBHB 00000001800da270     backward_references.obj
 0002:00096270       ?kLimits@?EG@???$CreateBackwardReferences@V?$HashLongestMatch@$0O@$03$03$03$0A@$0A@@brotli@@$0A@$0A@@brotli@@YAX_K0PEBE0PEBM0_KNHPEAV?$HashLongestMatch@$0O@$03$03$03$0A@$0A@@1@PEAH5PEAUCommand@1@5@Z@4QBHB 00000001800da270     backward_references.obj
 0002:00096270       ?kLimits@?EG@???$CreateBackwardReferences@V?$HashLongestMatch@$0P@$06$03$09$0A@$0A@@brotli@@$0A@$0A@@brotli@@YAX_K0PEBE0PEBM0_KNHPEAV?$HashLongestMatch@$0P@$06$03$09$0A@$0A@@1@PEAH5PEAUCommand@1@5@Z@4QBHB 00000001800da270     backward_references.obj
 0002:00096270       ?kLimits@?EG@???$CreateBackwardReferences@V?$HashLongestMatch@$0P@$07$03$0BA@$00$00@brotli@@$00$00@brotli@@YAX_K0PEBE0PEBM0_KNHPEAV?$HashLongestMatch@$0P@$07$03$0BA@$00$00@1@PEAH5PEAUCommand@1@5@Z@4QBHB 00000001800da270     backward_references.obj
 0002:00096270       ?kLimits@?EG@???$CreateBackwardReferences@V?$HashLongestMatchQuickly@$0BB@$03@brotli@@$0A@$0A@@brotli@@YAX_K0PEBE0PEBM0_KNHPEAV?$HashLongestMatchQuickly@$0BB@$03@1@PEAH5PEAUCommand@1@5@Z@4QBHB 00000001800da270     backward_references.obj
 0002:00096270       ?kLimits@?EG@???$CreateBackwardReferences@V?$HashLongestMatch@$0P@$05$03$09$0A@$0A@@brotli@@$0A@$0A@@brotli@@YAX_K0PEBE0PEBM0_KNHPEAV?$HashLongestMatch@$0P@$05$03$09$0A@$0A@@1@PEAH5PEAUCommand@1@5@Z@4QBHB 00000001800da270     backward_references.obj
 0002:00096270       ?kLimits@?EG@???$CreateBackwardReferences@V?$HashLongestMatch@$0O@$04$03$03$0A@$0A@@brotli@@$0A@$0A@@brotli@@YAX_K0PEBE0PEBM0_KNHPEAV?$HashLongestMatch@$0O@$04$03$03$0A@$0A@@1@PEAH5PEAUCommand@1@5@Z@4QBHB 00000001800da270     backward_references.obj
 0002:00096270       ?kLimits@?EG@???$CreateBackwardReferences@V?$HashLongestMatch@$0P@$07$01$0BA@$00$0A@@brotli@@$00$0A@@brotli@@YAX_K0PEBE0PEBM0_KNHPEAV?$HashLongestMatch@$0P@$07$01$0BA@$00$0A@@1@PEAH5PEAUCommand@1@5@Z@4QBHB 00000001800da270     backward_references.obj
 0002:000962e0       ??_C@_1MG@BDCDFND@?$AAc?$AA?3?$AA?2?$AAx?$AAa?$AAm?$AAp?$AAp?$AA?2?$AAh?$AAt?$AAd?$AAo?$AAc?$AAs?$AA?2?$AAs?$AAp?$AAa?$AA?2?$AAs?$AAp?$AAa?$AA?2?$AAn?$AAo?$AAd?$AAe?$AA_?$AAm?$AAo?$AAd@ 00000001800da2e0     brotli_bit_stream.obj
 0002:000963a8       ??_C@_1CM@FMBMFIGD@?$AAb?$AAi?$AAt?$AAs?$AA?5?$AA?$DM?$AA?5?$AA1?$AAU?$AAL?$AAL?$AA?5?$AA?$DM?$AA?$DM?$AA?5?$AAn?$AA_?$AAb?$AAi?$AAt?$AAs?$AA?$AA@ 00000001800da3a8     brotli_bit_stream.obj
 0002:000963d8       ??_C@_1BO@BHPGHFMF@?$AA?$CI?$AAp?$AAo?$AAs?$AA?5?$AA?$CG?$AA?5?$AA7?$AA?$CJ?$AA?5?$AA?$DN?$AA?$DN?$AA?5?$AA0?$AA?$AA@ 00000001800da3d8     brotli_bit_stream.obj
 0002:00096420       ??_C@_0BB@MOGOBHAF@list?$DMT?$DO?5too?5long?$AA@ 00000001800da420     encode.obj
 0002:00096438       ??_7BrotliIn@brotli@@6B@   00000001800da438     encode.obj
 0002:00096438       ??_7BrotliOut@brotli@@6B@  00000001800da438     encode.obj
 0002:000964d0       ??_7BrotliMemOut@brotli@@6B@ 00000001800da4d0     streams.obj
 0002:000964e0       ??_7BrotliMemIn@brotli@@6B@ 00000001800da4e0     streams.obj
 0002:000964f0       ??_C@_08HCOMDCCD@iojs?4exe?$AA@ 00000001800da4f0     win_delay_load_hook.obj
 0002:00096500       ??_C@_08JDDNMFDB@node?4exe?$AA@ 00000001800da500     win_delay_load_hook.obj
 0002:0009650c       __real@3f800000            00000001800da50c     literal_cost.obj
 0002:00096510       __real@3f9db22d0e560419    00000001800da510     literal_cost.obj
 0002:00096518       __real@3f9dbf487fcb923a    00000001800da518     literal_cost.obj
 0002:00096520       __real@3fa47ae147ae147b    00000001800da520     backward_references.obj
 0002:00096528       __real@3fb1eb851eb851ec    00000001800da528     block_splitter.obj
 0002:00096530       __real@3fc999999999999a    00000001800da530     backward_references.obj
 0002:00096538       __real@3fd3333333333333    00000001800da538     backward_references.obj
 0002:00096540       __real@3fd6666666666666    00000001800da540     literal_cost.obj
 0002:00096548       __real@3fe0000000000000    00000001800da548     literal_cost.obj
 0002:00096550       __real@3fe6666666666666    00000001800da550     literal_cost.obj
 0002:00096558       __real@3fe8000000000000    00000001800da558     encode.obj
 0002:00096560       __real@3fe8a3d70a3d70a4    00000001800da560     block_splitter.obj
 0002:00096568       __real@3fef0a3d70a3d70a    00000001800da568     backward_references.obj
 0002:00096570       __real@3fefae147ae147ae    00000001800da570     encode.obj
 0002:00096578       __real@3ff199999999999a    00000001800da578     normalize.obj
 0002:00096580       __real@3ff3333333333333    00000001800da580     woff2_enc.obj
 0002:00096588       __real@4000000000000000    00000001800da588     block_splitter.obj
 0002:00096590       __real@4002666666666666    00000001800da590     backward_references.obj
 0002:00096598       __real@4008000000000000    00000001800da598     backward_references.obj
 0002:000965a0       __real@400e000000000000    00000001800da5a0     backward_references.obj
 0002:000965a8       __real@4010000000000000    00000001800da5a8     backward_references.obj
 0002:000965b0       __real@401599999999999a    00000001800da5b0     backward_references.obj
 0002:000965b8       __real@401c000000000000    00000001800da5b8     backward_references.obj
 0002:000965c0       __real@401fae147ae147ae    00000001800da5c0     encode.obj
 0002:000965c8       __real@40203ae147ae147b    00000001800da5c8     encode.obj
 0002:000965d0       __real@4028000000000000    00000001800da5d0     block_splitter.obj
 0002:000965d8       __real@402a000000000000    00000001800da5d8     encode.obj
 0002:000965e0       __real@402b000000000000    00000001800da5e0     block_splitter.obj
 0002:000965e8       __real@402d333333333333    00000001800da5e8     block_splitter.obj
 0002:000965f0       __real@4034000000000000    00000001800da5f0     metablock.obj
 0002:000965f8       __real@403c19999999999a    00000001800da5f8     block_splitter.obj
 0002:00096600       __real@4059000000000000    00000001800da600     metablock.obj
 0002:00096608       __real@4079000000000000    00000001800da608     metablock.obj
 0002:00096610       __real@407f400000000000    00000001800da610     metablock.obj
 0002:00096618       __real@409f400000000000    00000001800da618     literal_cost.obj
 0002:00096620       __real@40c4000000000000    00000001800da620     woff2_enc.obj
 0002:00096628       __real@43e0000000000000    00000001800da628     normalize.obj
 0002:00096630       __real@43f0000000000000    00000001800da630     encode.obj
 0002:00096638       __real@547d42aea2879f2e    00000001800da638     block_splitter.obj
 0002:00096640       __real@5f800000            00000001800da640     encode.obj
 0002:00096648       __real@bfe3333333333333    00000001800da648     backward_references.obj
 0002:00096650       __real@bff0000000000000    00000001800da650     backward_references.obj
 0002:00096660       __xmm@00000001000000010000000100000001 00000001800da660     entropy_encode.obj
 0002:00096670       __xmm@00000003000000020000000100000000 00000001800da670     brotli_bit_stream.obj
 0002:00096680       __xmm@3f50624dd2f1a9fc3f50624dd2f1a9fc 00000001800da680     backward_references.obj
 0002:00096690       __xmm@3f8a9fbe76c8b4393f9374bc6a7ef9db 00000001800da690     backward_references.obj
 0002:000966a0       __xmm@3fa374bc6a7ef9db3fb999999999999a 00000001800da6a0     backward_references.obj
 0002:000966b0       __xmm@40000000400000004000000040000000 00000001800da6b0     entropy_encode.obj
 0002:00096718       _tls_used                  00000001800da718     LIBCMT:tlssup.obj
 0002:00096740       ??_R4exception@std@@6B@    00000001800da740     libcpmt:xthrow.obj
 0002:00096768       ??_R3exception@std@@8      00000001800da768     libcpmt:xthrow.obj
 0002:00096780       ??_R2exception@std@@8      00000001800da780     libcpmt:xthrow.obj
 0002:00096790       ??_R1A@?0A@EA@exception@std@@8 00000001800da790     libcpmt:xthrow.obj
 0002:000967b8       ??_R4bad_alloc@std@@6B@    00000001800da7b8     libcpmt:xthrow.obj
 0002:000967e0       ??_R3bad_alloc@std@@8      00000001800da7e0     libcpmt:xthrow.obj
 0002:000967f8       ??_R2bad_alloc@std@@8      00000001800da7f8     libcpmt:xthrow.obj
 0002:00096810       ??_R1A@?0A@EA@bad_alloc@std@@8 00000001800da810     libcpmt:xthrow.obj
 0002:00096838       ??_R4logic_error@std@@6B@  00000001800da838     libcpmt:xthrow.obj
 0002:00096860       ??_R3logic_error@std@@8    00000001800da860     libcpmt:xthrow.obj
 0002:00096878       ??_R2logic_error@std@@8    00000001800da878     libcpmt:xthrow.obj
 0002:00096890       ??_R1A@?0A@EA@logic_error@std@@8 00000001800da890     libcpmt:xthrow.obj
 0002:000968b8       ??_R4length_error@std@@6B@ 00000001800da8b8     libcpmt:xthrow.obj
 0002:000968e0       ??_R3length_error@std@@8   00000001800da8e0     libcpmt:xthrow.obj
 0002:000968f8       ??_R2length_error@std@@8   00000001800da8f8     libcpmt:xthrow.obj
 0002:00096918       ??_R1A@?0A@EA@length_error@std@@8 00000001800da918     libcpmt:xthrow.obj
 0002:00096940       ??_R4out_of_range@std@@6B@ 00000001800da940     libcpmt:xthrow.obj
 0002:00096968       ??_R3out_of_range@std@@8   00000001800da968     libcpmt:xthrow.obj
 0002:00096980       ??_R2out_of_range@std@@8   00000001800da980     libcpmt:xthrow.obj
 0002:000969a0       ??_R1A@?0A@EA@out_of_range@std@@8 00000001800da9a0     libcpmt:xthrow.obj
 0002:000969c8       ??_R4type_info@@6B@        00000001800da9c8     LIBCMT:std_type_info_static.obj
 0002:000969f0       ??_R3type_info@@8          00000001800da9f0     LIBCMT:std_type_info_static.obj
 0002:00096a08       ??_R2type_info@@8          00000001800daa08     LIBCMT:std_type_info_static.obj
 0002:00096a18       ??_R1A@?0A@EA@type_info@@8 00000001800daa18     LIBCMT:std_type_info_static.obj
 0002:00096a40       ??_R4bad_array_new_length@std@@6B@ 00000001800daa40     LIBCMT:throw_bad_alloc.obj
 0002:00096a68       ??_R3bad_array_new_length@std@@8 00000001800daa68     LIBCMT:throw_bad_alloc.obj
 0002:00096a80       ??_R2bad_array_new_length@std@@8 00000001800daa80     LIBCMT:throw_bad_alloc.obj
 0002:00096aa0       ??_R1A@?0A@EA@bad_array_new_length@std@@8 00000001800daaa0     LIBCMT:throw_bad_alloc.obj
 0002:00096ac8       ??_R4bad_exception@std@@6B@ 00000001800daac8     libvcruntime:frame.obj
 0002:00096af0       ??_R3bad_exception@std@@8  00000001800daaf0     libvcruntime:frame.obj
 0002:00096b08       ??_R2bad_exception@std@@8  00000001800dab08     libvcruntime:frame.obj
 0002:00096b20       ??_R1A@?0A@EA@bad_exception@std@@8 00000001800dab20     libvcruntime:frame.obj
 0002:00096fb0       __rtc_iaa                  00000001800dafb0     LIBCMT:_initsect_.obj
 0002:00096fb8       __rtc_izz                  00000001800dafb8     LIBCMT:_initsect_.obj
 0002:00096fc0       __rtc_taa                  00000001800dafc0     LIBCMT:_initsect_.obj
 0002:00096fc8       __rtc_tzz                  00000001800dafc8     LIBCMT:_initsect_.obj
 0002:0009b640       _TI2?AVbad_alloc@std@@     00000001800df640     libcpmt:xthrow.obj
 0002:0009b660       _CTA2?AVbad_alloc@std@@    00000001800df660     libcpmt:xthrow.obj
 0002:0009b678       _CT??_R0?AVbad_alloc@std@@@8??0bad_alloc@std@@QEAA@AEBV01@@Z24 00000001800df678     libcpmt:xthrow.obj
 0002:0009b6a0       _CT??_R0?AVexception@std@@@8??0exception@std@@QEAA@AEBV01@@Z24 00000001800df6a0     libcpmt:xthrow.obj
 0002:0009b6c8       _CT??_R0?AVlogic_error@std@@@8??0logic_error@std@@QEAA@AEBV01@@Z24 00000001800df6c8     libcpmt:xthrow.obj
 0002:0009b6f0       _TI3?AVlength_error@std@@  00000001800df6f0     libcpmt:xthrow.obj
 0002:0009b710       _CTA3?AVlength_error@std@@ 00000001800df710     libcpmt:xthrow.obj
 0002:0009b730       _CT??_R0?AVlength_error@std@@@8??0length_error@std@@QEAA@AEBV01@@Z24 00000001800df730     libcpmt:xthrow.obj
 0002:0009b758       _TI3?AVout_of_range@std@@  00000001800df758     libcpmt:xthrow.obj
 0002:0009b778       _CTA3?AVout_of_range@std@@ 00000001800df778     libcpmt:xthrow.obj
 0002:0009b798       _CT??_R0?AVout_of_range@std@@@8??0out_of_range@std@@QEAA@AEBV01@@Z24 00000001800df798     libcpmt:xthrow.obj
 0002:0009b7c0       _TI3?AVbad_array_new_length@std@@ 00000001800df7c0     LIBCMT:throw_bad_alloc.obj
 0002:0009b7e0       _CTA3?AVbad_array_new_length@std@@ 00000001800df7e0     LIBCMT:throw_bad_alloc.obj
 0002:0009b800       _CT??_R0?AVbad_array_new_length@std@@@8??0bad_array_new_length@std@@QEAA@AEBV01@@Z24 00000001800df800     LIBCMT:throw_bad_alloc.obj
 0002:0009b828       _TI2?AVbad_exception@std@@ 00000001800df828     libvcruntime:frame.obj
 0002:0009b848       _CTA2?AVbad_exception@std@@ 00000001800df848     libvcruntime:frame.obj
 0002:0009b860       _CT??_R0?AVbad_exception@std@@@8??0bad_exception@std@@QEAA@AEBV01@@Z24 00000001800df860     libvcruntime:frame.obj
 0002:0009b884       __DELAY_IMPORT_DESCRIPTOR_node_exe 00000001800df884     node:node.exe
 0002:0009b8a4       __NULL_DELAY_IMPORT_DESCRIPTOR 00000001800df8a4     node:node.exe
 0002:0009b9b0       \177node_NULL_THUNK_DATA_DLN 00000001800df9b0     node:node.exe
 0002:0009c1c8       \177node_NULL_THUNK_DATA_DLB 00000001800e01c8     node:node.exe
 0002:0009c300       __IMPORT_DESCRIPTOR_KERNEL32 00000001800e0300     kernel32:KERNEL32.dll
 0002:0009c314       __NULL_IMPORT_DESCRIPTOR   00000001800e0314     kernel32:KERNEL32.dll
 0003:00000000       _Init_global_epoch         00000001800e1000     LIBCMT:thread_safe_statics.obj
 0003:00000008       __security_cookie          00000001800e1008     LIBCMT:gs_cookie.obj
 0003:00000010       __security_cookie_complement 00000001800e1010     LIBCMT:gs_cookie.obj
 0003:00000018       __scrt_native_dllmain_reason 00000001800e1018     LIBCMT:utility.obj
 0003:00000020       __isa_available            00000001800e1020     LIBCMT:_cpu_disp_.obj
 0003:00000024       __isa_enabled              00000001800e1024     LIBCMT:_cpu_disp_.obj
 0003:00000028       __memcpy_nt_iters          00000001800e1028     LIBCMT:_cpu_disp_.obj
 0003:00000040       _iob                       00000001800e1040     libucrt:_file.obj
 0003:00000148       __abort_behavior           00000001800e1148     libucrt:abort.obj
 0003:00000160       __badioinfo                00000001800e1160     libucrt:ioinit.obj
 0003:000001a0       __acrt_initial_locale_data 00000001800e11a0     libucrt:nlsdata.obj
 0003:000002f8       __acrt_initial_locale_pointers 00000001800e12f8     libucrt:nlsdata.obj
 0003:00000308       __acrt_wide_c_locale_string 00000001800e1308     libucrt:nlsdata.obj
 0003:00000310       __acrt_initial_multibyte_data 00000001800e1310     libucrt:mbctype.obj
 0003:00000538       __acrt_current_multibyte_data 00000001800e1538     libucrt:mbctype.obj
 0003:00000640       _mbctype                   00000001800e1640     libucrt:mbctype.obj
 0003:00000750       _mbcasemap                 00000001800e1750     libucrt:mbctype.obj
 0003:00000850       _pwctype                   00000001800e1850     libucrt:ctype.obj
 0003:00000858       __globallocalestatus       00000001800e1858     libucrt:glstatus.obj
 0003:00000860       __acrt_lconv_c             00000001800e1860     libucrt:localeconv.obj
 0003:000008f8       __acrt_lconv_static_decimal 00000001800e18f8     libucrt:localeconv.obj
 0003:000008fc       __acrt_lconv_static_W_decimal 00000001800e18fc     libucrt:localeconv.obj
 0003:00000910       __dcrt_lowio_console_output_handle 00000001800e1910     libucrt:initcon.obj
 0003:00000920       _fltused                   00000001800e1920     LIBCMT:fltused.obj
 0003:00000970       ??_R0?AVbad_alloc@std@@@8  00000001800e1970     libcpmt:xthrow.obj
 0003:00000998       ??_R0?AVexception@std@@@8  00000001800e1998     libcpmt:xthrow.obj
 0003:000009c0       ??_R0?AVlogic_error@std@@@8 00000001800e19c0     libcpmt:xthrow.obj
 0003:000009e8       ??_R0?AVlength_error@std@@@8 00000001800e19e8     libcpmt:xthrow.obj
 0003:00000a10       ??_R0?AVout_of_range@std@@@8 00000001800e1a10     libcpmt:xthrow.obj
 0003:00000a38       ??_R0?AVtype_info@@@8      00000001800e1a38     LIBCMT:std_type_info_static.obj
 0003:00000a58       ??_R0?AVbad_array_new_length@std@@@8 00000001800e1a58     LIBCMT:throw_bad_alloc.obj
 0003:00000a88       ??_R0?AVbad_exception@std@@@8 00000001800e1a88     libvcruntime:frame.obj
 0003:00000ab0       __imp_?Value@External@v8@@QEBAPEAXXZ 00000001800e1ab0     node:node.exe
 0003:00000ab8       __imp_?New@External@v8@@SA?AV?$Local@VExternal@v8@@@2@PEAVIsolate@2@PEAX@Z 00000001800e1ab8     node:node.exe
 0003:00000ac0       __imp_?ThrowException@Isolate@v8@@QEAA?AV?$Local@VValue@v8@@@2@V32@@Z 00000001800e1ac0     node:node.exe
 0003:00000ac8       __imp_?GetCurrentContext@Isolate@v8@@QEAA?AV?$Local@VContext@v8@@@2@XZ 00000001800e1ac8     node:node.exe
 0003:00000ad0       __imp_?GetCurrent@Isolate@v8@@SAPEAV12@XZ 00000001800e1ad0     node:node.exe
 0003:00000ad8       __imp_?CreateHandle@HandleScope@v8@@KAPEAPEAVObject@internal@2@PEAVIsolate@42@PEAV342@@Z 00000001800e1ad8     node:node.exe
 0003:00000ae0       __imp_?CreateHandle@HandleScope@v8@@CAPEAPEAVObject@internal@2@PEAVHeapObject@42@PEAV342@@Z 00000001800e1ae0     node:node.exe
 0003:00000ae8       __imp_??1HandleScope@v8@@QEAA@XZ 00000001800e1ae8     node:node.exe
 0003:00000af0       __imp_??0HandleScope@v8@@QEAA@PEAVIsolate@1@@Z 00000001800e1af0     node:node.exe
 0003:00000af8       __imp_?Error@Exception@v8@@SA?AV?$Local@VValue@v8@@@2@V?$Local@VString@v8@@@2@@Z 00000001800e1af8     node:node.exe
 0003:00000b00       __imp_?TypeError@Exception@v8@@SA?AV?$Local@VValue@v8@@@2@V?$Local@VString@v8@@@2@@Z 00000001800e1b00     node:node.exe
 0003:00000b08       __imp_?GetFunction@FunctionTemplate@v8@@QEAA?AV?$MaybeLocal@VFunction@v8@@@2@V?$Local@VContext@v8@@@2@@Z 00000001800e1b08     node:node.exe
 0003:00000b10       __imp_?New@FunctionTemplate@v8@@SA?AV?$Local@VFunctionTemplate@v8@@@2@PEAVIsolate@2@P6AXAEBV?$FunctionCallbackInfo@VValue@v8@@@2@@ZV?$Local@VValue@v8@@@2@V?$Local@VSignature@v8@@@2@H@Z 00000001800e1b10     node:node.exe
 0003:00000b18       __imp_?ToLocalEmpty@V8@v8@@CAXXZ 00000001800e1b18     node:node.exe
 0003:00000b20       __imp_?Escape@EscapableHandleScope@v8@@AEAAPEAPEAVObject@internal@2@PEAPEAV342@@Z 00000001800e1b20     node:node.exe
 0003:00000b28       __imp_??0EscapableHandleScope@v8@@QEAA@PEAVIsolate@1@@Z 00000001800e1b28     node:node.exe
 0003:00000b30       __imp_?NewFromUtf8@String@v8@@SA?AV?$MaybeLocal@VString@v8@@@2@PEAVIsolate@2@PEBDW4NewStringType@2@H@Z 00000001800e1b30     node:node.exe
 0003:00000b38       __imp_?SlowGetInternalField@Object@v8@@AEAA?AV?$Local@VValue@v8@@@2@H@Z 00000001800e1b38     node:node.exe
 0003:00000b40       __imp_?SetInternalField@Object@v8@@QEAAXHV?$Local@VValue@v8@@@2@@Z 00000001800e1b40     node:node.exe
 0003:00000b48       __imp_?Set@Object@v8@@QEAA?AV?$Maybe@_N@2@V?$Local@VContext@v8@@@2@V?$Local@VValue@v8@@@2@1@Z 00000001800e1b48     node:node.exe
 0003:00000b50       __imp_?SetInternalFieldCount@ObjectTemplate@v8@@QEAAXH@Z 00000001800e1b50     node:node.exe
 0003:00000b58       __imp_?NewInstance@ObjectTemplate@v8@@QEAA?AV?$MaybeLocal@VObject@v8@@@2@V?$Local@VContext@v8@@@2@@Z 00000001800e1b58     node:node.exe
 0003:00000b60       __imp_?New@ObjectTemplate@v8@@SA?AV?$Local@VObjectTemplate@v8@@@2@PEAVIsolate@2@V?$Local@VFunctionTemplate@v8@@@2@@Z 00000001800e1b60     node:node.exe
 0003:00000b68       __imp_node_module_register 00000001800e1b68     node:node.exe
 0003:00000b70       __imp_?HasInstance@Buffer@node@@YA_NV?$Local@VObject@v8@@@v8@@@Z 00000001800e1b70     node:node.exe
 0003:00000b78       __imp_?New@Buffer@node@@YA?AV?$MaybeLocal@VObject@v8@@@v8@@PEAVIsolate@4@PEAD_K@Z 00000001800e1b78     node:node.exe
 0003:00000b80       __imp_?Data@Buffer@node@@YAPEADV?$Local@VObject@v8@@@v8@@@Z 00000001800e1b80     node:node.exe
 0003:00000b88       __imp_?Length@Buffer@node@@YA_KV?$Local@VObject@v8@@@v8@@@Z 00000001800e1b88     node:node.exe
 0003:00000b90       __imp_?ToObject@Value@v8@@QEBA?AV?$Local@VObject@v8@@@2@XZ 00000001800e1b90     node:node.exe
 0003:00000b98       \177node_NULL_THUNK_DATA_DLA 00000001800e1b98     node:node.exe
 0003:00000ba0       __hmod__node_exe           00000001800e1ba0     node:node.exe
 0003:00000ba8       ?nothrow@std@@3Unothrow_t@1@B 00000001800e1ba8     libcpmt:nothrow.obj
 0003:00001170       __scrt_current_native_startup_state 00000001800e2170     LIBCMT:utility.obj
 0003:00001178       __scrt_native_startup_lock 00000001800e2178     LIBCMT:utility.obj
 0003:000011b4       __scrt_debugger_hook_flag  00000001800e21b4     LIBCMT:utility_desktop.obj
 0003:000011b8       _tls_index                 00000001800e21b8     LIBCMT:tlssup.obj
 0003:000011c0       ?__type_info_root_node@@3U__type_info_node@@A 00000001800e21c0     LIBCMT:tncleanup.obj
 0003:000011d0       ?_OptionsStorage@?1??__local_stdio_scanf_options@@9@4_KA 00000001800e21d0     LIBCMT:default_local_stdio_options.obj
 0003:000011d8       __favor                    00000001800e21d8     LIBCMT:_cpu_disp_.obj
 0003:00001248       __pPurecall                00000001800e2248     libvcruntime:purevirt_data.obj
 0003:000012c8       ?g_OutOfMemoryExceptionCallback@@3P6APEAXXZEA 00000001800e22c8     libvcruntime:frame.obj
 0003:00001300       ?pArgList@UnDecorator@@0PEAVReplicator@@EA 00000001800e2300     libvcruntime:undname.obj
 0003:00001308       ?pZNameList@UnDecorator@@0PEAVReplicator@@EA 00000001800e2308     libvcruntime:undname.obj
 0003:00001310       ?pTemplateArgList@UnDecorator@@0PEAVReplicator@@EA 00000001800e2310     libvcruntime:undname.obj
 0003:00001318       ?gName@UnDecorator@@0PEBDEB 00000001800e2318     libvcruntime:undname.obj
 0003:00001320       ?name@UnDecorator@@0PEBDEB 00000001800e2320     libvcruntime:undname.obj
 0003:00001328       ?outputString@UnDecorator@@0PEADEA 00000001800e2328     libvcruntime:undname.obj
 0003:00001330       ?maxStringLength@UnDecorator@@0HA 00000001800e2330     libvcruntime:undname.obj
 0003:00001334       ?disableFlags@UnDecorator@@0KA 00000001800e2334     libvcruntime:undname.obj
 0003:00001338       ?fExplicitTemplateParams@UnDecorator@@0_NA 00000001800e2338     libvcruntime:undname.obj
 0003:00001339       ?fGetTemplateArgumentList@UnDecorator@@0_NA 00000001800e2339     libvcruntime:undname.obj
 0003:00001340       ?m_pGetParameter@UnDecorator@@0P6APEADJ@ZEA 00000001800e2340     libvcruntime:undname.obj
 0003:00001378       _nstream                   00000001800e2378     libucrt:_file.obj
 0003:00001380       __piob                     00000001800e2380     libucrt:_file.obj
 0003:00001388       _cflush                    00000001800e2388     libucrt:_file.obj
 0003:000014b8       _environ_table             00000001800e24b8     libucrt:environment_initialization.obj
 0003:000014c0       _wenviron_table            00000001800e24c0     libucrt:environment_initialization.obj
 0003:000014c8       __dcrt_initial_wide_environment 00000001800e24c8     libucrt:environment_initialization.obj
 0003:000014d0       __dcrt_initial_narrow_environment 00000001800e24d0     libucrt:environment_initialization.obj
 0003:000014d8       __acrt_atexit_table        00000001800e24d8     libucrt:onexit.obj
 0003:000014f0       __acrt_at_quick_exit_table 00000001800e24f0     libucrt:onexit.obj
 0003:000016e0       __pioinfo                  00000001800e26e0     libucrt:ioinit.obj
 0003:00001ae0       _nhandle                   00000001800e2ae0     libucrt:ioinit.obj
 0003:00001af0       __acrt_stdout_buffer       00000001800e2af0     libucrt:_sftbuf.obj
 0003:00001af8       __acrt_stderr_buffer       00000001800e2af8     libucrt:_sftbuf.obj
 0003:00001b00       __acrt_locale_changed_data 00000001800e2b00     libucrt:wsetlocale.obj
 0003:00001b08       __acrt_current_locale_data 00000001800e2b08     libucrt:nlsdata.obj
 0003:00001d1c       __mbcodepage               00000001800e2d1c     libucrt:mbctype.obj
 0003:00001d20       __ismbcodepage             00000001800e2d20     libucrt:mbctype.obj
 0003:00001d28       __mbulinfo                 00000001800e2d28     libucrt:mbctype.obj
 0003:00001d38       __mblocalename             00000001800e2d38     libucrt:mbctype.obj
 0003:00001d44       __argc                     00000001800e2d44     libucrt:argv_data.obj
 0003:00001d48       __argv                     00000001800e2d48     libucrt:argv_data.obj
 0003:00001d50       __wargv                    00000001800e2d50     libucrt:argv_data.obj
 0003:00001d58       _acmdln                    00000001800e2d58     libucrt:argv_data.obj
 0003:00001d60       _wcmdln                    00000001800e2d60     libucrt:argv_data.obj
 0003:00001d68       _pgmptr                    00000001800e2d68     libucrt:argv_data.obj
 0003:00001d70       __acrt_heap                00000001800e2d70     libucrt:heap_handle.obj
 0003:00001d84       __acrt_lconv_static_null   00000001800e2d84     libucrt:localeconv.obj
 0003:00001d88       __acrt_lconv_static_W_null 00000001800e2d88     libucrt:localeconv.obj
 0003:00001d8c       __fma3_is_available        00000001800e2d8c     libucrt:fma3_available.obj
 0003:00001d90       __use_fma3_lib             00000001800e2d90     libucrt:fma3_available.obj
 0003:00001d98       ?DloadKernel32@@3PEAUHINSTANCE__@@EA 00000001800e2d98     DelayImp:delayhlp.obj
 0003:00001da0       ?DloadAcquireSRWLockExclusive@@3P6AXPEA_K@ZEA 00000001800e2da0     DelayImp:delayhlp.obj
 0003:00001da8       ?DloadReleaseSRWLockExclusive@@3P6AXPEA_K@ZEA 00000001800e2da8     DelayImp:delayhlp.obj
 0003:00001db0       ?DloadSrwLock@@3_KA        00000001800e2db0     DelayImp:delayhlp.obj
 0003:00001db8       ?DloadSectionLockCount@@3KA 00000001800e2db8     DelayImp:delayhlp.obj
 0003:00001dbc       ?DloadSectionOldProtection@@3KA 00000001800e2dbc     DelayImp:delayhlp.obj
 0003:00001dc0       ?DloadSectionCommitPermanent@@3KA 00000001800e2dc0     DelayImp:delayhlp.obj
 0003:00001dc8       ?_OptionsStorage@?1??__local_stdio_printf_options@@9@4_KA 00000001800e2dc8     normalize.obj
 0003:00001dd0       ?static_dictionary_@BrotliCompressor@brotli@@0PEAVStaticDictionary@2@EA 00000001800e2dd0     encode.obj
 0003:00001de8       __scrt_ucrt_dll_is_in_use  00000001800e2de8     <common>
 0003:00001df0       __dyn_tls_init_callback    00000001800e2df0     <common>
 0006:00000000       _tls_start                 00000001800e8000     LIBCMT:tlssup.obj
 0006:00000004       _Init_thread_epoch         00000001800e8004     LIBCMT:thread_safe_statics.obj
 0006:00000008       _tls_end                   00000001800e8008     LIBCMT:tlssup.obj

 entry point at        0001:0002da64

 Static symbols

 0000:fff14000       .debug$S                   0000000180000000     node:node.exe
 0000:fff14000       .debug$S                   0000000180000000     node:node.exe
 0000:fff14000       .debug$S                   0000000180000000     node:node.exe
 0000:fff14000       .debug$S                   0000000180000000     node:node.exe
 0000:fff14000       .debug$S                   0000000180000000     node:node.exe
 0000:fff14000       .debug$S                   0000000180000000     node:node.exe
 0000:fff14000       .debug$S                   0000000180000000     addon.exp
 0000:fff14000       .debug$S                   0000000180000000     kernel32:KERNEL32.dll
 0000:fff14000       .debug$S                   0000000180000000     kernel32:KERNEL32.dll
 0000:fff14000       .debug$S                   0000000180000000     kernel32:KERNEL32.dll
 0000:fff14000       .debug$S                   0000000180000000     kernel32:KERNEL32.dll
 0000:fff14000       .debug$S                   0000000180000000     kernel32:KERNEL32.dll
 0000:fff14000       .debug$S                   0000000180000000     kernel32:KERNEL32.dll
 0000:fff14000       .debug$S                   0000000180000000     kernel32:KERNEL32.dll
 0000:fff14000       .debug$S                   0000000180000000     kernel32:KERNEL32.dll
 0000:fff14000       .debug$S                   0000000180000000     kernel32:KERNEL32.dll
 0000:fff14000       .debug$S                   0000000180000000     kernel32:KERNEL32.dll
 0000:fff14000       .debug$S                   0000000180000000     kernel32:KERNEL32.dll
 0000:fff14000       .debug$S                   0000000180000000     kernel32:KERNEL32.dll
 0000:fff14000       .debug$S                   0000000180000000     kernel32:KERNEL32.dll
 0000:fff14000       .debug$S                   0000000180000000     kernel32:KERNEL32.dll
 0000:fff14000       .debug$S                   0000000180000000     kernel32:KERNEL32.dll
 0000:fff14000       .debug$S                   0000000180000000     kernel32:KERNEL32.dll
 0000:fff14000       .debug$S                   0000000180000000     node:node.exe
 0000:fff14000       .debug$S                   0000000180000000     kernel32:KERNEL32.dll
 0000:fff14000       .debug$S                   0000000180000000     kernel32:KERNEL32.dll
 0000:fff14000       .debug$S                   0000000180000000     kernel32:KERNEL32.dll
 0000:fff14000       .debug$S                   0000000180000000     node:node.exe
 0000:fff14000       .debug$S                   0000000180000000     kernel32:KERNEL32.dll
 0000:fff14000       .debug$S                   0000000180000000     kernel32:KERNEL32.dll
 0000:fff14000       .debug$S                   0000000180000000     kernel32:KERNEL32.dll
 0000:fff14000       .debug$S                   0000000180000000     node:node.exe
 0000:fff14000       .debug$S                   0000000180000000     kernel32:KERNEL32.dll
 0000:fff14000       .debug$S                   0000000180000000     kernel32:KERNEL32.dll
 0000:fff14000       .debug$S                   0000000180000000     kernel32:KERNEL32.dll
 0000:fff14000       .debug$S                   0000000180000000     node:node.exe
 0000:fff14000       .debug$S                   0000000180000000     kernel32:KERNEL32.dll
 0000:fff14000       .debug$S                   0000000180000000     kernel32:KERNEL32.dll
 0000:fff14000       .debug$S                   0000000180000000     kernel32:KERNEL32.dll
 0000:fff14000       .debug$S                   0000000180000000     kernel32:KERNEL32.dll
 0000:fff14000       .debug$S                   0000000180000000     kernel32:KERNEL32.dll
 0000:fff14000       .debug$S                   0000000180000000     kernel32:KERNEL32.dll
 0000:fff14000       .debug$S                   0000000180000000     kernel32:KERNEL32.dll
 0000:fff14000       .debug$S                   0000000180000000     kernel32:KERNEL32.dll
 0000:fff14000       .debug$S                   0000000180000000     kernel32:KERNEL32.dll
 0000:fff14000       .debug$S                   0000000180000000     kernel32:KERNEL32.dll
 0000:fff14000       .debug$S                   0000000180000000     kernel32:KERNEL32.dll
 0000:fff14000       .debug$S                   0000000180000000     kernel32:KERNEL32.dll
 0000:fff14000       .debug$S                   0000000180000000     kernel32:KERNEL32.dll
 0000:fff14000       .debug$S                   0000000180000000     kernel32:KERNEL32.dll
 0000:fff14000       .debug$S                   0000000180000000     kernel32:KERNEL32.dll
 0000:fff14000       .debug$S                   0000000180000000     kernel32:KERNEL32.dll
 0000:fff14000       .debug$S                   0000000180000000     kernel32:KERNEL32.dll
 0000:fff14000       .debug$S                   0000000180000000     kernel32:KERNEL32.dll
 0000:fff14000       .debug$S                   0000000180000000     kernel32:KERNEL32.dll
 0000:fff14000       .debug$S                   0000000180000000     kernel32:KERNEL32.dll
 0000:fff14000       .debug$S                   0000000180000000     kernel32:KERNEL32.dll
 0000:fff14000       .debug$S                   0000000180000000     kernel32:KERNEL32.dll
 0000:fff14000       .debug$S                   0000000180000000     kernel32:KERNEL32.dll
 0000:fff14000       .debug$S                   0000000180000000     kernel32:KERNEL32.dll
 0000:fff14000       .debug$S                   0000000180000000     kernel32:KERNEL32.dll
 0000:fff14000       .debug$S                   0000000180000000     kernel32:KERNEL32.dll
 0000:fff14000       .debug$S                   0000000180000000     kernel32:KERNEL32.dll
 0000:fff14000       .debug$S                   0000000180000000     kernel32:KERNEL32.dll
 0000:fff14000       .debug$S                   0000000180000000     node:node.exe
 0000:fff14000       .debug$S                   0000000180000000     node:node.exe
 0000:fff14000       .debug$S                   0000000180000000     kernel32:KERNEL32.dll
 0000:fff14000       .debug$S                   0000000180000000     node:node.exe
 0000:fff14000       .debug$S                   0000000180000000     kernel32:KERNEL32.dll
 0000:fff14000       .debug$S                   0000000180000000     kernel32:KERNEL32.dll
 0000:fff14000       .debug$S                   0000000180000000     kernel32:KERNEL32.dll
 0000:fff14000       .debug$S                   0000000180000000     kernel32:KERNEL32.dll
 0000:fff14000       .debug$S                   0000000180000000     kernel32:KERNEL32.dll
 0000:fff14000       .debug$S                   0000000180000000     kernel32:KERNEL32.dll
 0000:fff14000       .debug$S                   0000000180000000     node:node.exe
 0000:fff14000       .debug$S                   0000000180000000     kernel32:KERNEL32.dll
 0000:fff14000       .debug$S                   0000000180000000     node:node.exe
 0000:fff14000       .debug$S                   0000000180000000     kernel32:KERNEL32.dll
 0000:fff14000       .debug$S                   0000000180000000     kernel32:KERNEL32.dll
 0000:fff14000       .debug$S                   0000000180000000     kernel32:KERNEL32.dll
 0000:fff14000       .debug$S                   0000000180000000     kernel32:KERNEL32.dll
 0000:fff14000       .debug$S                   0000000180000000     kernel32:KERNEL32.dll
 0000:fff14000       .debug$S                   0000000180000000     kernel32:KERNEL32.dll
 0000:fff14000       .debug$S                   0000000180000000     kernel32:KERNEL32.dll
 0000:fff14000       .debug$S                   0000000180000000     kernel32:KERNEL32.dll
 0000:fff14000       .debug$S                   0000000180000000     kernel32:KERNEL32.dll
 0000:fff14000       .debug$S                   0000000180000000     kernel32:KERNEL32.dll
 0000:fff14000       .debug$S                   0000000180000000     kernel32:KERNEL32.dll
 0000:fff14000       .debug$S                   0000000180000000     kernel32:KERNEL32.dll
 0000:fff14000       .debug$S                   0000000180000000     kernel32:KERNEL32.dll
 0000:fff14000       .debug$S                   0000000180000000     kernel32:KERNEL32.dll
 0000:fff14000       .debug$S                   0000000180000000     kernel32:KERNEL32.dll
 0000:fff14000       .debug$S                   0000000180000000     node:node.exe
 0000:fff14000       .debug$S                   0000000180000000     kernel32:KERNEL32.dll
 0000:fff14000       .debug$S                   0000000180000000     kernel32:KERNEL32.dll
 0000:fff14000       .debug$S                   0000000180000000     kernel32:KERNEL32.dll
 0000:fff14000       .debug$S                   0000000180000000     kernel32:KERNEL32.dll
 0000:fff14000       .debug$S                   0000000180000000     kernel32:KERNEL32.dll
 0000:fff14000       .debug$S                   0000000180000000     kernel32:KERNEL32.dll
 0000:fff14000       .debug$S                   0000000180000000     kernel32:KERNEL32.dll
 0000:fff14000       .debug$S                   0000000180000000     kernel32:KERNEL32.dll
 0000:fff14000       .debug$S                   0000000180000000     kernel32:KERNEL32.dll
 0000:fff14000       .debug$S                   0000000180000000     kernel32:KERNEL32.dll
 0000:fff14000       .debug$S                   0000000180000000     kernel32:KERNEL32.dll
 0000:fff14000       .debug$S                   0000000180000000     kernel32:KERNEL32.dll
 0000:fff14000       .debug$S                   0000000180000000     kernel32:KERNEL32.dll
 0000:fff14000       .debug$S                   0000000180000000     kernel32:KERNEL32.dll
 0000:fff14000       .debug$S                   0000000180000000     kernel32:KERNEL32.dll
 0000:fff14000       .debug$S                   0000000180000000     kernel32:KERNEL32.dll
 0000:fff14000       .debug$S                   0000000180000000     kernel32:KERNEL32.dll
 0000:fff14000       .debug$S                   0000000180000000     kernel32:KERNEL32.dll
 0000:fff14000       .debug$S                   0000000180000000     kernel32:KERNEL32.dll
 0000:fff14000       .debug$S                   0000000180000000     kernel32:KERNEL32.dll
 0000:fff14000       .debug$S                   0000000180000000     kernel32:KERNEL32.dll
 0000:fff14000       .debug$S                   0000000180000000     node:node.exe
 0000:fff14000       .debug$S                   0000000180000000     node:node.exe
 0000:fff14000       .debug$S                   0000000180000000     node:node.exe
 0000:fff14000       .debug$S                   0000000180000000     node:node.exe
 0000:fff14000       .debug$S                   0000000180000000     node:node.exe
 0000:fff14000       .debug$S                   0000000180000000     node:node.exe
 0000:fff14000       .debug$S                   0000000180000000     node:node.exe
 0000:fff14000       .debug$S                   0000000180000000     node:node.exe
 0000:fff14000       .debug$S                   0000000180000000     node:node.exe
 0000:fff14000       .debug$S                   0000000180000000     node:node.exe
 0000:fff14000       .debug$S                   0000000180000000     node:node.exe
 0000:fff14000       .debug$S                   0000000180000000     node:node.exe
 0000:fff14000       .debug$S                   0000000180000000     node:node.exe
 0000:fff14000       .debug$S                   0000000180000000     node:node.exe
 0000:fff14000       .debug$S                   0000000180000000     node:node.exe
 0000:fff14000       .debug$S                   0000000180000000     node:node.exe
 0000:fff14000       .debug$S                   0000000180000000     node:node.exe
 0001:00000000       ?FunctionCallbackWrapper@imp@Nan@@YAXAEBV?$FunctionCallbackInfo@VValue@v8@@@v8@@@Z 0000000180001000 f   addon.obj
 0001:000005b0       _register_addon            00000001800015b0 f   addon.obj
 0001:00000f30       ?StorePoints@?A0x97bb6148@woff2@@YA_NAEBVGlyph@2@PEA_KPEAE_K@Z 0000000180001f30 f   glyph.obj
 0001:00006180       ?WriteNormalizedLoca@?A0x2d59e7ae@woff2@@YA_NHHPEAUFont@2@@Z 0000000180007180 f   normalize.obj
 0001:00006570       ?MakeEditableBuffer@?A0x2d59e7ae@woff2@@YA_NPEAUFont@2@H@Z 0000000180007570 f   normalize.obj
 0001:00006aa0       ?ComputeHeaderChecksum@?A0x2d59e7ae@woff2@@YAIAEBUFont@2@@Z 0000000180007aa0 f   normalize.obj
 0001:00006d70       ?MarkTransformed@?A0x2d59e7ae@woff2@@YA_NPEAUFont@2@@Z 0000000180007d70 f   normalize.obj
 0001:00007250       ?WriteBytes@?A0x41905820@woff2@@YAXPEAV?$vector@EV?$allocator@E@std@@@std@@AEBV34@@Z 0000000180008250 f   transform.obj
 0001:000073d0       ?WriteUShort@?A0x41905820@woff2@@YAXPEAV?$vector@EV?$allocator@E@std@@@std@@H@Z 00000001800083d0 f   transform.obj
 0001:000074e0       ?WriteLong@?A0x41905820@woff2@@YAXPEAV?$vector@EV?$allocator@E@std@@@std@@H@Z 00000001800084e0 f   transform.obj
 0001:000076e0       ?GetTransformedGlyfBytes@GlyfEncoder@?A0x41905820@woff2@@QEAAXPEAV?$vector@EV?$allocator@E@std@@@std@@@Z 00000001800086e0 f   transform.obj
 0001:00007840       ?ShouldWriteSimpleGlyphBbox@GlyfEncoder@?A0x41905820@woff2@@AEAA_NAEBVGlyph@3@@Z 0000000180008840 f   transform.obj
 0001:00007950       ?WriteSimpleGlyph@GlyfEncoder@?A0x41905820@woff2@@AEAAXHAEBVGlyph@3@@Z 0000000180008950 f   transform.obj
 0001:00007bb0       ?WriteBbox@GlyfEncoder@?A0x41905820@woff2@@AEAAXHAEBVGlyph@3@@Z 0000000180008bb0 f   transform.obj
 0001:00007c20       ?WriteTriplet@GlyfEncoder@?A0x41905820@woff2@@AEAAX_NHH@Z 0000000180008c20 f   transform.obj
 0001:00009150       ?Compress@?A0x683ef156@woff2@@YA_NPEBE_KPEAEPEAIW4Mode@BrotliParams@brotli@@@Z 000000018000a150 f   woff2_enc.obj
 0001:000091e0       ?StoreTableEntry@?A0x683ef156@woff2@@YAXAEBUTable@2@PEA_KPEAE@Z 000000018000a1e0 f   woff2_enc.obj
 0001:00009280       ?TableEntrySize@?A0x683ef156@woff2@@YA_KAEBUTable@2@@Z 000000018000a280 f   woff2_enc.obj
 0001:00009320       ?ComputeWoff2Length@?A0x683ef156@woff2@@YA_KAEBUFontCollection@2@AEBV?$vector@UTable@woff2@@V?$allocator@UTable@woff2@@@std@@@std@@V?$map@IGU?$less@I@std@@V?$allocator@U?$pair@$$CBIG@std@@@2@@5@_K@Z 000000018000a320 f   woff2_enc.obj
 0001:00009590       ?ComputeUncompressedLength@?A0x683ef156@woff2@@YA_KAEBUFont@2@@Z 000000018000a590 f   woff2_enc.obj
 0001:00009640       ?ComputeUncompressedLength@?A0x683ef156@woff2@@YA_KAEBUFontCollection@2@@Z 000000018000a640 f   woff2_enc.obj
 0001:000096f0       ?ComputeTotalTransformLength@?A0x683ef156@woff2@@YA_KAEBUFont@2@@Z 000000018000a6f0 f   woff2_enc.obj
 0001:0000b430       ?FindMatchLengthWithLimit@brotli@@YAHPEBE0_K@Z 000000018000c430 f   backward_references.obj
 0001:0000b590       ?GetLengthCode@brotli@@YAXHHHPEAGPEA_K@Z 000000018000c590 f   backward_references.obj
 0001:0000bbe4       $LN69                      000000018000cbe4     backward_references.obj
 0001:00013950       ?HuffmanBitCost@brotli@@YAHPEBEH@Z 0000000180014950 f   block_splitter.obj
 0001:00014040       ?BitCost@brotli@@YAMHH@Z   0000000180015040 f   block_splitter.obj
 0001:0001ee20       ?HuffmanBitCost@brotli@@YAHPEBEH@Z 000000018001fe20 f   brotli_bit_stream.obj
 0001:000238e0       ?GetLengthCode@brotli@@YAXHHHPEAGPEA_K@Z 00000001800248e0 f   encode.obj
 0001:000247ac       $LN411                     00000001800257ac     encode.obj
 0001:000248e0       ?BitsEntropy@brotli@@YANPEBHH@Z 00000001800258e0 f   encode.obj
 0001:00024fdc       $LN301                     0000000180025fdc     encode.obj
 0001:00026cf0       ?SortHuffmanTree@?A0x1969e686@brotli@@YA_NAEBUHuffmanTree@12@0@Z 0000000180027cf0 f   entropy_encode.obj
 0001:00026d00       ?SetDepth@?A0x1969e686@brotli@@YAXAEBUHuffmanTree@12@PEAU312@PEAEH@Z 0000000180027d00 f   entropy_encode.obj
 0001:0002a080       ?DecideMultiByteStatsLevel@brotli@@YAH_K00PEBE@Z 000000018002b080 f   literal_cost.obj
 0001:0002a8a0       ?BitsEntropy@brotli@@YANPEBHH@Z 000000018002b8a0 f   metablock.obj
 0001:0002cbf0       ?load_exe_hook@@YAP6A_JXZIPEAUDelayLoadInfo@@@Z 000000018002dbf0 f   win_delay_load_hook.obj
 0001:0002d0d0       $$000000                   000000018002e0d0     LIBCMT:_amdsecgs_.obj
 0001:0002d310       capture_current_context    000000018002e310 f   LIBCMT:gs_report.obj
 0001:0002d380       capture_previous_context   000000018002e380 f   LIBCMT:gs_report.obj
 0001:0002d3f4       ?__scrt_initialize_thread_safe_statics@@YAHXZ 000000018002e3f4 f   LIBCMT:thread_safe_statics.obj
 0001:0002d514       ?__scrt_uninitialize_thread_safe_statics@@YAXXZ 000000018002e514 f   LIBCMT:thread_safe_statics.obj
 0001:0002d718       ?dllmain_crt_dispatch@@YAHQEAUHINSTANCE__@@KQEAX@Z 000000018002e718 f   LIBCMT:dll_dllmain.obj
 0001:0002d768       ?dllmain_crt_process_attach@@YAHQEAUHINSTANCE__@@QEAX@Z 000000018002e768 f   LIBCMT:dll_dllmain.obj
 0001:0002d894       ?dllmain_crt_process_detach@@YAH_N@Z 000000018002e894 f   LIBCMT:dll_dllmain.obj
 0001:0002d918       ?dllmain_dispatch@@YAHQEAUHINSTANCE__@@KQEAX@Z 000000018002e918 f   LIBCMT:dll_dllmain.obj
 0001:0002da10       ?dllmain_raw@@YAHQEAUHINSTANCE__@@KQEAX@Z 000000018002ea10 f   LIBCMT:dll_dllmain.obj
 0001:0002e3f0       $$000000                   000000018002f3f0     libvcruntime:memcpy.obj
 0001:0002e497       MoveSmall                  000000018002f497     libvcruntime:memcpy.obj
 0001:0002ea04       ?try_get_function@@YAPEAXW4function_id@?A0x679b24ab@@QEBDQEBW4module_id@2@2@Z 000000018002fa04 f   libvcruntime:winapi_downlevel.obj
 0001:0002f770       $$000000                   0000000180030770     libvcruntime:memset.obj
 0001:0002f85c       MsetTab                    000000018003085c     libvcruntime:memset.obj
 0001:0002fd4c       ?CatchIt@@YAXPEAUEHExceptionRecord@@PEA_KPEAU_CONTEXT@@PEAU_xDISPATCHER_CONTEXT@@PEBU_s_FuncInfo@@PEBU_s_HandlerType@@PEBU_s_CatchableType@@PEBU_s_TryBlockMapEntry@@H1EE@Z 0000000180030d4c f   libvcruntime:frame.obj
 0001:0002fe10       ?ExFilterRethrow@@YAHPEAU_EXCEPTION_POINTERS@@PEAUEHExceptionRecord@@PEAH@Z 0000000180030e10 f   libvcruntime:frame.obj
 0001:0002fe98       ?FindHandler@@YAXPEAUEHExceptionRecord@@PEA_KPEAU_CONTEXT@@PEAU_xDISPATCHER_CONTEXT@@PEBU_s_FuncInfo@@EH1@Z 0000000180030e98 f   libvcruntime:frame.obj
 0001:00030368       ?FindHandlerForForeignException@@YAXPEAUEHExceptionRecord@@PEA_KPEAU_CONTEXT@@PEAU_xDISPATCHER_CONTEXT@@PEBU_s_FuncInfo@@HH1@Z 0000000180031368 f   libvcruntime:frame.obj
 0001:000305d4       ?IsInExceptionSpec@@YAEPEAUEHExceptionRecord@@PEBU_s_ESTypeList@@@Z 00000001800315d4 f   libvcruntime:frame.obj
 0001:00031100       $$000000                   0000000180032100     libvcruntime:_jmpuwind_.obj
 0001:00031200       $$000000                   0000000180032200     libvcruntime:handlers.obj
 0001:00031260       ??$common_assert_to_message_box@_W@@YAXQEB_W0IQEAX@Z 0000000180032260 f   libucrt:assert.obj
 0001:00031324       ??$common_assert_to_message_box_build_string@_W@@YAXQEA_W_KQEB_W2IQEAX@Z 0000000180032324 f   libucrt:assert.obj
 0001:00031af8       ??$common_assert_to_stderr@_W@@YAXQEB_W0I@Z 0000000180032af8 f   libucrt:assert.obj
 0001:00031c68       ?get_assert_format@@YAPEB_W_W@Z 0000000180032c68 f   libucrt:assert.obj
 0001:000327c0       ??R<lambda_0a64b6a4deda75c01876f29c44fc5eb3>@@QEBAHXZ 00000001800337c0 f   libucrt:output.obj
 0001:000328b0       ??R<lambda_dd75445284c072d0bd3768540cc698fa>@@QEBAHXZ 00000001800338b0 f   libucrt:output.obj
 0001:00035b48       ?atexit_exception_filter@@YAHK@Z 0000000180036b48 f   libucrt:exit.obj
 0001:00035b54       ?common_exit@@YAXHW4_crt_exit_cleanup_mode@@W4_crt_exit_return_mode@@@Z 0000000180036b54 f   libucrt:exit.obj
 0001:00035cc0       ?exit_or_terminate_process@@YAXI@Z 0000000180036cc0 f   libucrt:exit.obj
 0001:00035d0c       ?try_cor_exit_process@@YAXI@Z 0000000180036d0c f   libucrt:exit.obj
 0001:00035da4       ??$parse_command_line@D@@YAXPEADPEAPEAD0PEA_K2@Z 0000000180036da4 f   libucrt:argv_parsing.obj
 0001:0003613c       ??$common_initialize_environment_nolock@D@@YAHXZ 000000018003713c f   libucrt:environment_initialization.obj
 0001:000361a8       ??$create_environment@D@@YAQEAPEADQEAD@Z 00000001800371a8 f   libucrt:environment_initialization.obj
 0001:000362a4       ??$free_environment@D@@YAXQEAPEAD@Z 00000001800372a4 f   libucrt:environment_initialization.obj
 0001:000362a4       ??$free_environment@_W@@YAXQEAPEA_W@Z 00000001800372a4 f   libucrt:environment_initialization.obj
 0001:000362e8       ??$uninitialize_environment_internal@D@@YAXAEAPEAPEAD@Z 00000001800372e8 f   libucrt:environment_initialization.obj
 0001:00036304       ??$uninitialize_environment_internal@_W@@YAXAEAPEAPEA_W@Z 0000000180037304 f   libucrt:environment_initialization.obj
 0001:0003653c       ??R<lambda_4e60a939b0d047cfe11ddc22648dfba9>@@QEBAHXZ 000000018003753c f   libucrt:onexit.obj
 0001:000367ec       initialize_global_variables 00000001800377ec f   libucrt:initialization.obj
 0001:00036800       initialize_c               0000000180037800 f   libucrt:initialization.obj
 0001:00036824       uninitialize_environment   0000000180037824 f   libucrt:initialization.obj
 0001:00036834       initialize_pointers        0000000180037834 f   libucrt:initialization.obj
 0001:00036888       uninitialize_vcruntime     0000000180037888 f   libucrt:initialization.obj
 0001:00036890       uninitialize_allocated_memory 0000000180037890 f   libucrt:initialization.obj
 0001:000376ec       ??$common_xtox@K_W@@YAHKQEA_W_KI_N@Z 00000001800386ec f   libucrt:xtoa.obj
 0001:00037798       ??$common_xtox_s@K_W@@YAHKQEA_W_KI_N@Z 0000000180038798 f   libucrt:xtoa.obj
 0001:00037a5c       ??$message_box_wait_thread@_W@@YAKQEAX@Z 0000000180038a5c f   libucrt:crtmbox.obj
 0001:00037c70       common_flush_all           0000000180038c70 f   libucrt:fflush.obj
 0001:00037dd8       ??R<lambda_b721fa326cdb32351d23dfa67958c160>@@QEBAHXZ 0000000180038dd8 f   libucrt:setvbuf.obj
 0001:000383c4       ?construct_ptd_array@@YAXQEAU__acrt_ptd@@@Z 00000001800393c4 f   libucrt:per_thread_data.obj
 0001:00038494       ?destroy_fls@@YAXPEAX@Z    0000000180039494 f   libucrt:per_thread_data.obj
 0001:000384b4       ?destroy_ptd_array@@YAXQEAU__acrt_ptd@@@Z 00000001800394b4 f   libucrt:per_thread_data.obj
 0001:000385ac       ?replace_current_thread_locale_nolock@@YAXQEAU__acrt_ptd@@QEAU__crt_locale_data@@@Z 00000001800395ac f   libucrt:per_thread_data.obj
 0001:000387ec       ?try_get_function@@YAPEAXW4function_id@?A0x63058377@@QEBDQEBW4module_id@2@2@Z 00000001800397ec f   libucrt:winapi_thunks.obj
 0001:0003910c       ?initialize_inherited_file_handles_nolock@@YAXXZ 000000018003a10c f   libucrt:ioinit.obj
 0001:000391f8       ?initialize_stdio_handles_nolock@@YAXXZ 000000018003a1f8 f   libucrt:ioinit.obj
 0001:000393e4       ?internal_isupper_l@@YA_NHQEAU__crt_locale_pointers@@@Z 000000018003a3e4 f   libucrt:tolower_toupper.obj
 0001:00039d18       ?fp_format_a@@YAHQEBNPEAD_KQEAD2H_NIQEAU__crt_locale_pointers@@@Z 000000018003ad18 f   libucrt:cvt.obj
 0001:0003a078       ?fp_format_e@@YAHQEBNQEAD_K12H_NIQEAU__crt_locale_pointers@@@Z 000000018003b078 f   libucrt:cvt.obj
 0001:0003a148       ?fp_format_e_internal@@YAHQEAD_KH_NIQEAU_strflt@@2QEAU__crt_locale_pointers@@@Z 000000018003b148 f   libucrt:cvt.obj
 0001:0003a324       ?fp_format_f_internal@@YAHQEAD_KHQEAU_strflt@@_NQEAU__crt_locale_pointers@@@Z 000000018003b324 f   libucrt:cvt.obj
 0001:0003a46c       ?fp_format_g@@YAHQEBNQEAD_K12H_NIQEAU__crt_locale_pointers@@@Z 000000018003b46c f   libucrt:cvt.obj
 0001:0003a5a4       ?fp_format_nan_or_infinity@@YAHW4__acrt_fp_class@@_NPEAD_K1@Z 000000018003b5a4 f   libucrt:cvt.obj
 0001:0003ac60       _call_matherr              000000018003bc60 f   libucrt:libm_error.obj
 0001:0003acc8       _exception_enabled         000000018003bcc8 f   libucrt:libm_error.obj
 0001:0003aec8       ?write_double_translated_ansi_nolock@@YA?AUwrite_result@?A0x9c548279@@HQEBDI@Z 000000018003bec8 f   libucrt:write.obj
 0001:0003b0d0       ?write_text_ansi_nolock@@YA?AUwrite_result@?A0x9c548279@@HQEBDI@Z 000000018003c0d0 f   libucrt:write.obj
 0001:0003b1d8       ?write_text_utf16le_nolock@@YA?AUwrite_result@?A0x9c548279@@HQEBDI@Z 000000018003c1d8 f   libucrt:write.obj
 0001:0003b2f4       ?write_text_utf8_nolock@@YA?AUwrite_result@?A0x9c548279@@HQEBDI@Z 000000018003c2f4 f   libucrt:write.obj
 0001:0003b838       ??$write_buffer_nolock@D@@YA_NDV__crt_stdio_stream@@@Z 000000018003c838 f   libucrt:_flsbuf.obj
 0001:0003b93c       ??$write_buffer_nolock@_W@@YA_N_WV__crt_stdio_stream@@@Z 000000018003c93c f   libucrt:_flsbuf.obj
 0001:0003bcd4       ?<helper_func_cdecl>@<lambda_2feae5270eb4d0d5532525f423405775>@@CAHPEBX0@Z 000000018003ccd4 f   libucrt:argv_wildcards.obj
 0001:0003bce8       ??$common_expand_argv_wildcards@D@@YAHQEAPEADQEAPEAPEAD@Z 000000018003cce8 f   libucrt:argv_wildcards.obj
 0001:0003bef4       ??$copy_and_add_argument_to_buffer@D@@YAHQEBD0_KAEAV?$argument_list@D@?A0xca0879c4@@@Z 000000018003cef4 f   libucrt:argv_wildcards.obj
 0001:0003c004       ??$expand_argument_wildcards@D@@YAHQEAD0AEAV?$argument_list@D@?A0xca0879c4@@@Z 000000018003d004 f   libucrt:argv_wildcards.obj
 0001:0003c2b8       ??R<lambda_ad1ced32f4ac17aa236e5ef05d6b3b7c>@@QEBAXXZ 000000018003d2b8 f   libucrt:mbctype.obj
 0001:0003c4d0       ?getSystemCP@@YAHH@Z       000000018003d4d0 f   libucrt:mbctype.obj
 0001:0003c550       ?setSBCS@@YAXPEAU__crt_multibyte_data@@@Z 000000018003d550 f   libucrt:mbctype.obj
 0001:0003c5e0       ?setSBUpLow@@YAXPEAU__crt_multibyte_data@@@Z 000000018003d5e0 f   libucrt:mbctype.obj
 0001:0003c7c4       ?setmbcp_internal@@YAHH_N@Z 000000018003d7c4 f   libucrt:mbctype.obj
 0001:0003cd0c       ?x_ismbbtype_l@@YAHPEAU__crt_locale_pointers@@IHH@Z 000000018003dd0c f   libucrt:ismbbyte.obj
 0001:0003cdc0       initialize_environment     000000018003ddc0 f   libucrt:initialization.obj
 0001:0003cdc0       uninitialize_c             000000018003ddc0 f   libucrt:initialization.obj
 0001:0003cdc0       initialize_global_state_isolation 000000018003ddc0 f   libucrt:initialization.obj
 0001:0003cdc0       report_memory_leaks        000000018003ddc0 f   libucrt:initialization.obj
 0001:0003cdc0       uninitialize_global_state_isolation 000000018003ddc0 f   libucrt:initialization.obj
 0001:0003d7c8       ?GetTableIndexFromLocaleName@@YAHPEB_W@Z 000000018003e7c8 f   libucrt:lcidtoname_downlevel.obj
 0001:0003dd10       ?__acrt_LCMapStringA_stat@@YAHPEAU__crt_locale_pointers@@PEB_WKPEBDHPEADHHH@Z 000000018003ed10 f   libucrt:lcmapstringa.obj
 0001:0003fa0c       memcpy_s                   0000000180040a0c f   libucrt:cfout.obj
 0001:0003fc6c       ?free_crt_array_internal@@YAXQEAPEBX_K@Z 0000000180040c6c f   libucrt:inittime.obj
 0001:000403b0       ??$common_lseek@_J@@YA_JH_JH@Z 00000001800413b0 f   libucrt:lseek.obj
 0001:000404a0       ??$common_lseek_nolock@_J@@YA_JH_JH@Z 00000001800414a0 f   libucrt:lseek.obj
 0001:00040610       ?shortsort@@YAXPEAD0_KP6AHPEBX2@Z@Z 0000000180041610 f   libucrt:qsort.obj
 0001:00040c28       ?initialize_multibyte@@YAHXZ 0000000180041c28 f   libucrt:multibyte_initializer.obj
 0001:00041030       $$000000                   0000000180042030     libucrt:log10.obj
 0001:000415e0       $$000000                   00000001800425e0     libucrt:fpsr.obj
 0001:000417cc       common_control87           00000001800427cc f   libucrt:ieee.obj
 0001:00041b00       _log_special_common        0000000180042b00 f   libucrt:log_special.obj
 0001:000423b0       $$000000                   00000001800433b0     LIBCMT:_chkstk_.obj
 0001:00042560       $$000000                   0000000180043560     libvcruntime:memcmp.obj
 0001:00042640       $$000000                   0000000180043640     LIBCMT:_guard_dispatch_.obj
 0001:00042660       ?catch$0@?0???2@YAPEAX_KAEBUnothrow_t@std@@@Z@4HA 0000000180043660 f   LIBCMT:new_scalar_nothrow.obj
 0001:0004266d       __catch$??2@YAPEAX_KAEBUnothrow_t@std@@@Z$0 000000018004366d f   LIBCMT:new_scalar_nothrow.obj
 0001:0004267b       ?fin$0@?0??dllmain_crt_process_attach@@YAHQEAUHINSTANCE__@@QEAX@Z@4HA 000000018004367b f   LIBCMT:dll_dllmain.obj
 0001:00042692       ?fin$0@?0??dllmain_crt_process_detach@@YAH_N@Z@4HA 0000000180043692 f   LIBCMT:dll_dllmain.obj
 0001:000426ae       ?filt$0@?0??dllmain_dispatch@@YAHQEAUHINSTANCE__@@KQEAX@Z@4HA 00000001800436ae f   LIBCMT:dll_dllmain.obj
 0001:000426e4       __scrt_is_nonwritable_in_current_image$filt$0 00000001800436e4 f   LIBCMT:utility.obj
 0001:000426fc       _CallSETranslator$filt$0   00000001800436fc f   libvcruntime:trnsctrl.obj
 0001:00042748       __CxxCallCatchBlock$filt$0 0000000180043748 f   libvcruntime:frame.obj
 0001:0004276d       __CxxCallCatchBlock$fin$1  000000018004376d f   libvcruntime:frame.obj
 0001:000427e5       __DestructExceptionObject$filt$0 00000001800437e5 f   libvcruntime:frame.obj
 0001:000427fd       __FrameUnwindToState$filt$0 00000001800437fd f   libvcruntime:frame.obj
 0001:00042813       __FrameUnwindToState$fin$1 0000000180043813 f   libvcruntime:frame.obj
 0001:00042836       ?fin$0@?0???$?RV<lambda_aa279a7bcb127014629d5b1d62c7325d>@@AEAV<lambda_0a64b6a4deda75c01876f29c44fc5eb3>@@V<lambda_3323e69fbefe9d1a11713e670d47cdfa>@@@?$__crt_seh_guarded_call@H@@QEAAH$$QEAV<lambda_aa279a7bcb127014629d5b1d62c7325d>@@AEAV<lambda_0a64b6a4deda75c01876f29c44fc5eb3>@@$$QEAV<lambda_3323e69fbefe9d1a11713e670d47cdfa>@@@Z@4HA 0000000180043836 f   libucrt:output.obj
 0001:00042836       ?fin$0@?0???$?RV<lambda_7a5ef57ff966f610505f1d28a3d40618>@@AEAV<lambda_b721fa326cdb32351d23dfa67958c160>@@V<lambda_5e0fb27672408a07956fe59e48ccb2aa>@@@?$__crt_seh_guarded_call@H@@QEAAH$$QEAV<lambda_7a5ef57ff966f610505f1d28a3d40618>@@AEAV<lambda_b721fa326cdb32351d23dfa67958c160>@@$$QEAV<lambda_5e0fb27672408a07956fe59e48ccb2aa>@@@Z@4HA 0000000180043836 f   libucrt:setvbuf.obj
 0001:00042836       ?fin$0@?0???$?RV<lambda_7b91131dde12e1c3dfc74ff76b3f2eac>@@AEAV<lambda_dd75445284c072d0bd3768540cc698fa>@@V<lambda_16bc4ecb55b4718497c16bceaea2ceaf>@@@?$__crt_seh_guarded_call@H@@QEAAH$$QEAV<lambda_7b91131dde12e1c3dfc74ff76b3f2eac>@@AEAV<lambda_dd75445284c072d0bd3768540cc698fa>@@$$QEAV<lambda_16bc4ecb55b4718497c16bceaea2ceaf>@@@Z@4HA 0000000180043836 f   libucrt:output.obj
 0001:00042851       _query_new_handler$fin$0   0000000180043851 f   libucrt:new_handler.obj
 0001:00042867       ?filt$0@?0??common_exit@@YAXHW4_crt_exit_cleanup_mode@@W4_crt_exit_return_mode@@@Z@4HA 0000000180043867 f   libucrt:exit.obj
 0001:00042882       ?fin$1@?0??common_exit@@YAXHW4_crt_exit_cleanup_mode@@W4_crt_exit_return_mode@@@Z@4HA 0000000180043882 f   libucrt:exit.obj
 0001:0004289b       ?fin$0@?0???$?RV<lambda_e24bbb7b643b32fcea6fa61b31d4c984>@@AEAV<lambda_275893d493268fdec8709772e3fcec0e>@@V<lambda_9d71df4d7cf3f480f8d633942495c3b0>@@@?$__crt_seh_guarded_call@H@@QEAAH$$QEAV<lambda_e24bbb7b643b32fcea6fa61b31d4c984>@@AEAV<lambda_275893d493268fdec8709772e3fcec0e>@@$$QEAV<lambda_9d71df4d7cf3f480f8d633942495c3b0>@@@Z@4HA 000000018004389b f   libucrt:onexit.obj
 0001:000428b8       common_flush_all$fin$0     00000001800438b8 f   libucrt:fflush.obj
 0001:000428d2       common_flush_all$fin$1     00000001800438d2 f   libucrt:fflush.obj
 0001:000428eb       fclose$fin$0               00000001800438eb f   libucrt:fclose.obj
 0001:000428eb       fflush$fin$0               00000001800438eb f   libucrt:fflush.obj
 0001:00042903       raise$fin$0                0000000180043903 f   libucrt:signal.obj
 0001:00042927       ?fin$0@?0???$?RV<lambda_c36588078e9f5dfd39652860aa6b3aaf>@@AEAV<lambda_ec61778202f4f5fc7e7711acc23c3bca>@@V<lambda_dc9d2797ccde5d239b4a0efae8ebd7db>@@@?$__crt_seh_guarded_call@P6AXH@Z@@QEAAP6AXH@Z$$QEAV<lambda_c36588078e9f5dfd39652860aa6b3aaf>@@AEAV<lambda_ec61778202f4f5fc7e7711acc23c3bca>@@$$QEAV<lambda_dc9d2797ccde5d239b4a0efae8ebd7db>@@@Z@4HA 0000000180043927 f   libucrt:signal.obj
 0001:00042927       ?fin$0@?0???$?RV<lambda_46352004c1216016012b18bd6f87e700>@@AEAV<lambda_3bd07e1a1191394380780325891bf33f>@@V<lambda_334532d3f185bcaa59b5be82d7d22bff>@@@?$__crt_seh_guarded_call@X@@QEAAX$$QEAV<lambda_46352004c1216016012b18bd6f87e700>@@AEAV<lambda_3bd07e1a1191394380780325891bf33f>@@$$QEAV<lambda_334532d3f185bcaa59b5be82d7d22bff>@@@Z@4HA 0000000180043927 f   libucrt:per_thread_data.obj
 0001:00042927       ?fin$0@?0???$?RV<lambda_b8c45f8f788dd370798f47cfe8ac3a86>@@AEAV<lambda_4e60a939b0d047cfe11ddc22648dfba9>@@V<lambda_332c3edc96d0294ec56c57d38c1cdfd5>@@@?$__crt_seh_guarded_call@H@@QEAAH$$QEAV<lambda_b8c45f8f788dd370798f47cfe8ac3a86>@@AEAV<lambda_4e60a939b0d047cfe11ddc22648dfba9>@@$$QEAV<lambda_332c3edc96d0294ec56c57d38c1cdfd5>@@@Z@4HA 0000000180043927 f   libucrt:onexit.obj
 0001:00042927       ?fin$0@?0???$?RV<lambda_5e887d1dcbef67a5eb4283622ba103bf>@@AEAV<lambda_4466841279450cc726390878d4a41900>@@V<lambda_341c25c0346d94847f1f3c463c57e077>@@@?$__crt_seh_guarded_call@X@@QEAAX$$QEAV<lambda_5e887d1dcbef67a5eb4283622ba103bf>@@AEAV<lambda_4466841279450cc726390878d4a41900>@@$$QEAV<lambda_341c25c0346d94847f1f3c463c57e077>@@@Z@4HA 0000000180043927 f   libucrt:per_thread_data.obj
 0001:00042927       ?fin$0@?0???$?RV<lambda_72d1df2b273a38828b1ce30cbf4cdab5>@@AEAV<lambda_876a65b173b8412d3a47c70a915b0cf4>@@V<lambda_41932305e351933ebe8f8be3ed8bb5dc>@@@?$__crt_seh_guarded_call@X@@QEAAX$$QEAV<lambda_72d1df2b273a38828b1ce30cbf4cdab5>@@AEAV<lambda_876a65b173b8412d3a47c70a915b0cf4>@@$$QEAV<lambda_41932305e351933ebe8f8be3ed8bb5dc>@@@Z@4HA 0000000180043927 f   libucrt:per_thread_data.obj
 0001:00042927       ?fin$0@?0???$?RV<lambda_fb3a7dec4e47f37f22dae91bb15c9095>@@AEAV<lambda_698284760c8add0bfb0756c19673e34b>@@V<lambda_dfb8eca1e75fef3034a8fb18dd509707>@@@?$__crt_seh_guarded_call@X@@QEAAX$$QEAV<lambda_fb3a7dec4e47f37f22dae91bb15c9095>@@AEAV<lambda_698284760c8add0bfb0756c19673e34b>@@$$QEAV<lambda_dfb8eca1e75fef3034a8fb18dd509707>@@@Z@4HA 0000000180043927 f   libucrt:per_thread_data.obj
 0001:00042927       ?fin$0@?0???$?RV<lambda_99476a1ad63dd22509b5d3e65b0ffc95>@@AEAV<lambda_ad1ced32f4ac17aa236e5ef05d6b3b7c>@@V<lambda_f7424dd8d45958661754dc4f2697e9c3>@@@?$__crt_seh_guarded_call@X@@QEAAX$$QEAV<lambda_99476a1ad63dd22509b5d3e65b0ffc95>@@AEAV<lambda_ad1ced32f4ac17aa236e5ef05d6b3b7c>@@$$QEAV<lambda_f7424dd8d45958661754dc4f2697e9c3>@@@Z@4HA 0000000180043927 f   libucrt:mbctype.obj
 0001:00042941       _fcloseall$fin$0           0000000180043941 f   libucrt:closeall.obj
 0001:0004295a       __acrt_uninitialize_locale$fin$0 000000018004395a f   libucrt:wsetlocale.obj
 0001:0004295a       __acrt_update_thread_locale_data$fin$0 000000018004395a f   libucrt:locale_refcounting.obj
 0001:00042973       ?fin$0@?0???$common_lseek@_J@@YA_JH_JH@Z@4HA 0000000180043973 f   libucrt:lseek.obj
 0001:00042973       _write$fin$0               0000000180043973 f   libucrt:write.obj
 0001:0004298a       __acrt_update_thread_multibyte_data$fin$0 000000018004398a f   libucrt:mbctype.obj
 0001:000429a3       __acrt_lowio_ensure_fh_exists$fin$0 00000001800439a3 f   libucrt:osfinfo.obj
 0001:000429a3       __acrt_initialize_lowio$fin$0 00000001800439a3 f   libucrt:ioinit.obj
 0001:000429bc       _ctrlfp$filt$0             00000001800439bc f   libucrt:fpctrl.obj
 0001:000429bc       common_control87$filt$0    00000001800439bc f   libucrt:ieee.obj
 0001:000429e8       ?fin$0@?0???$?RV<lambda_bfedae4ebbf01fab1bb6dcc6a9e276e0>@@AEAV<lambda_2fe9b910cf3cbf4a0ab98a02ba45b3ec>@@V<lambda_237c231691f317818eb88cc1d5d642d6>@@@?$__crt_seh_guarded_call@H@@QEAAH$$QEAV<lambda_bfedae4ebbf01fab1bb6dcc6a9e276e0>@@AEAV<lambda_2fe9b910cf3cbf4a0ab98a02ba45b3ec>@@$$QEAV<lambda_237c231691f317818eb88cc1d5d642d6>@@@Z@4HA 00000001800439e8 f   libucrt:close.obj
 0001:000429e8       ?fin$0@?0???$?RV<lambda_b521505b218e5242e90febf6bfebc422>@@AEAV<lambda_6978c1fb23f02e42e1d9e99668cc68aa>@@V<lambda_314360699dd331753a4119843814e9a7>@@@?$__crt_seh_guarded_call@H@@QEAAH$$QEAV<lambda_b521505b218e5242e90febf6bfebc422>@@AEAV<lambda_6978c1fb23f02e42e1d9e99668cc68aa>@@$$QEAV<lambda_314360699dd331753a4119843814e9a7>@@@Z@4HA 00000001800439e8 f   libucrt:commit.obj
 0001:00042a10       _IsNonwritableInCurrentImage$filt$0 0000000180043a10 f   LIBCMT:pesect.obj
 0002:000002b8       ?__scrt_initialize_tss_var@@3P6AHXZEA 00000001800442b8     LIBCMT:thread_safe_statics.obj
 0002:000003e0       GS_ExceptionPointers       00000001800443e0     LIBCMT:gs_report.obj
 0002:00000470       $cppxdata$??2@YAPEAX_KAEBUnothrow_t@std@@@Z 0000000180044470     LIBCMT:new_scalar_nothrow.obj
 0002:000004e0       ?ExceptionTemplate@?1??_CxxThrowException@@9@4UEHExceptionRecord@@B 00000001800444e0     libvcruntime:throw.obj
 0002:00000520       ?module_names@?A0x679b24ab@@3QBQEB_WB 0000000180044520     libvcruntime:winapi_downlevel.obj
 0002:000005f0       ?candidate_modules@?1??try_get_FlsAlloc@@YAP6AKP6AXPEAX@Z@ZXZ@4QBW4module_id@?A0x679b24ab@@B 00000001800445f0     libvcruntime:winapi_downlevel.obj
 0002:00000608       ?candidate_modules@?1??try_get_FlsFree@@YAP6AHK@ZXZ@4QBW4module_id@?A0x679b24ab@@B 0000000180044608     libvcruntime:winapi_downlevel.obj
 0002:00000618       ?candidate_modules@?1??try_get_FlsGetValue@@YAP6APEAXK@ZXZ@4QBW4module_id@?A0x679b24ab@@B 0000000180044618     libvcruntime:winapi_downlevel.obj
 0002:00000630       ?candidate_modules@?1??try_get_FlsSetValue@@YAP6AHKPEAX@ZXZ@4QBW4module_id@?A0x679b24ab@@B 0000000180044630     libvcruntime:winapi_downlevel.obj
 0002:00000648       ?candidate_modules@?1??try_get_InitializeCriticalSectionEx@@YAP6AHPEAU_RTL_CRITICAL_SECTION@@KK@ZXZ@4QBW4module_id@?A0x679b24ab@@B 0000000180044648     libvcruntime:winapi_downlevel.obj
 0002:00000670       ?ExceptionTemplate@?1??_UnwindNestedFrames@@9@4U_EXCEPTION_RECORD@@B 0000000180044670     libvcruntime:trnsctrl.obj
 0002:00000740       ?tokenTable@@3QBQEBDB      0000000180044740     libvcruntime:undname.obj
 0002:000007b0       ?nameTable@@3QBQEBDB       00000001800447b0     libvcruntime:undname.obj
 0002:00000a38       ?rttiTable@@3QBQEBDB       0000000180044a38     libvcruntime:undname.obj
 0002:00001420       ?ln_lead_table@?1??log2@@9@9 0000000180045420     libucrt:log2.obj
 0002:00001630       ?ln_tail_table@?1??log2@@9@9 0000000180045630     libucrt:log2.obj
 0002:000019a0       __acrt_initializers        00000001800459a0     libucrt:initialization.obj
 0002:00001a90       errtable                   0000000180045a90     libucrt:errno.obj
 0002:00001c00       module_names               0000000180045c00     libucrt:winapi_thunks.obj
 0002:00002130       ?candidate_modules@?1??try_get_FlsAlloc@@YAP6AKP6AXPEAX@Z@ZXZ@4QBW4module_id@?A0x63058377@@B 0000000180046130     libucrt:winapi_thunks.obj
 0002:00002138       ?candidate_modules@?1??try_get_FlsFree@@YAP6AHK@ZXZ@4QBW4module_id@?A0x63058377@@B 0000000180046138     libucrt:winapi_thunks.obj
 0002:00002140       ?candidate_modules@?1??try_get_FlsGetValue@@YAP6APEAXK@ZXZ@4QBW4module_id@?A0x63058377@@B 0000000180046140     libucrt:winapi_thunks.obj
 0002:00002148       ?candidate_modules@?1??try_get_FlsSetValue@@YAP6AHKPEAX@ZXZ@4QBW4module_id@?A0x63058377@@B 0000000180046148     libucrt:winapi_thunks.obj
 0002:00002150       ?candidate_modules@?1??try_get_GetActiveWindow@@YAP6APEAUHWND__@@XZXZ@4QBW4module_id@?A0x63058377@@B 0000000180046150     libucrt:winapi_thunks.obj
 0002:00002168       ?candidate_modules@?1??try_get_GetCurrentPackageId@@YAP6AJPEAIPEAE@ZXZ@4QBW4module_id@?A0x63058377@@B 0000000180046168     libucrt:winapi_thunks.obj
 0002:00002188       ?candidate_modules@?1??try_get_GetLastActivePopup@@YAP6APEAUHWND__@@PEAU2@@ZXZ@4QBW4module_id@?A0x63058377@@B 0000000180046188     libucrt:winapi_thunks.obj
 0002:000021a8       ?candidate_modules@?1??try_get_GetProcessWindowStation@@YAP6APEAUHWINSTA__@@XZXZ@4QBW4module_id@?A0x63058377@@B 00000001800461a8     libucrt:winapi_thunks.obj
 0002:000021c8       ?candidate_modules@?1??try_get_GetUserObjectInformationW@@YAP6AHPEAXH0KPEAK@ZXZ@4QBW4module_id@?A0x63058377@@B 00000001800461c8     libucrt:winapi_thunks.obj
 0002:000021f0       ?candidate_modules@?1??try_get_InitializeCriticalSectionEx@@YAP6AHPEAU_RTL_CRITICAL_SECTION@@KK@ZXZ@4QBW4module_id@?A0x63058377@@B 00000001800461f0     libucrt:winapi_thunks.obj
 0002:000021f8       ?candidate_modules@?1??try_get_LCMapStringEx@@YAP6AHPEB_WK0HPEA_WHPEAU_nlsversioninfo@@PEAX_J@ZXZ@4QBW4module_id@?A0x63058377@@B 00000001800461f8     libucrt:winapi_thunks.obj
 0002:00002210       ?candidate_modules@?1??try_get_LocaleNameToLCID@@YAP6AKPEB_WK@ZXZ@4QBW4module_id@?A0x63058377@@B 0000000180046210     libucrt:winapi_thunks.obj
 0002:00002230       ?candidate_modules@?1??try_get_MessageBoxA@@YAP6AHPEAUHWND__@@PEBD1I@ZXZ@4QBW4module_id@?A0x63058377@@B 0000000180046230     libucrt:winapi_thunks.obj
 0002:00002248       ?candidate_modules@?1??try_get_MessageBoxW@@YAP6AHPEAUHWND__@@PEB_W1I@ZXZ@4QBW4module_id@?A0x63058377@@B 0000000180046248     libucrt:winapi_thunks.obj
 0002:00002940       _mb_locale_names           0000000180046940     libucrt:mbctype.obj
 0002:000031b0       LcidToLocaleNameTable      00000001800471b0     libucrt:lcidtoname_downlevel.obj
 0002:00004c10       LocaleNameToIndexTable     0000000180048c10     libucrt:lcidtoname_downlevel.obj
 0002:00006eb0       __real_ninf                000000018004aeb0     libucrt:log10.obj
 0002:00006ec0       __real_inf                 000000018004aec0     libucrt:log10.obj
 0002:00006ed0       __real_neg_qnan            000000018004aed0     libucrt:log10.obj
 0002:00006ee0       __real_qnanbit             000000018004aee0     libucrt:log10.obj
 0002:00006ef0       __int_1023                 000000018004aef0     libucrt:log10.obj
 0002:00006f00       __mask_001                 000000018004af00     libucrt:log10.obj
 0002:00006f10       __mask_mant                000000018004af10     libucrt:log10.obj
 0002:00006f20       __mask_mant_top8           000000018004af20     libucrt:log10.obj
 0002:00006f30       __mask_mant9               000000018004af30     libucrt:log10.obj
 0002:00006f40       __real_log10_e             000000018004af40     libucrt:log10.obj
 0002:00006f50       __real_log10_e_lead        000000018004af50     libucrt:log10.obj
 0002:00006f60       __real_log10_e_tail        000000018004af60     libucrt:log10.obj
 0002:00006f70       __real_log10_2_lead        000000018004af70     libucrt:log10.obj
 0002:00006f80       __real_log10_2_tail        000000018004af80     libucrt:log10.obj
 0002:00006f90       __real_two                 000000018004af90     libucrt:log10.obj
 0002:00006fa0       __real_one                 000000018004afa0     libucrt:log10.obj
 0002:00006fb0       __real_half                000000018004afb0     libucrt:log10.obj
 0002:00006fc0       __mask_100                 000000018004afc0     libucrt:log10.obj
 0002:00006fd0       __real_1_over_512          000000018004afd0     libucrt:log10.obj
 0002:00006fe0       __real_1_over_2            000000018004afe0     libucrt:log10.obj
 0002:00006ff0       __real_1_over_3            000000018004aff0     libucrt:log10.obj
 0002:00007000       __real_1_over_4            000000018004b000     libucrt:log10.obj
 0002:00007010       __real_1_over_5            000000018004b010     libucrt:log10.obj
 0002:00007020       __real_1_over_6            000000018004b020     libucrt:log10.obj
 0002:00007030       __real_neg_1023            000000018004b030     libucrt:log10.obj
 0002:00007040       __mask_2045                000000018004b040     libucrt:log10.obj
 0002:00007050       __real_threshold           000000018004b050     libucrt:log10.obj
 0002:00007060       __real_near_one_lt         000000018004b060     libucrt:log10.obj
 0002:00007070       __real_near_one_gt         000000018004b070     libucrt:log10.obj
 0002:00007080       __real_min_norm            000000018004b080     libucrt:log10.obj
 0002:00007090       __real_notsign             000000018004b090     libucrt:log10.obj
 0002:000070a0       __real_ca1                 000000018004b0a0     libucrt:log10.obj
 0002:000070b0       __real_ca2                 000000018004b0b0     libucrt:log10.obj
 0002:000070c0       __real_ca3                 000000018004b0c0     libucrt:log10.obj
 0002:000070d0       __real_ca4                 000000018004b0d0     libucrt:log10.obj
 0002:000070e0       __mask_lower               000000018004b0e0     libucrt:log10.obj
 0002:000070f0       __flag_x_zero              000000018004b0f0     libucrt:log10.obj
 0002:000070f4       __flag_x_neg               000000018004b0f4     libucrt:log10.obj
 0002:000070f8       __flag_x_nan               000000018004b0f8     libucrt:log10.obj
 0002:00007100       __real@433fffffffffffff    000000018004b100     libucrt:fpsr.obj
 0002:00007108       __real@c33fffffffffffff    000000018004b108     libucrt:fpsr.obj
 0002:00008c90       ?kDsigTableTag@woff2@@3IB  000000018004cc90     font.obj
 0002:00008c94       ?piecewise_construct@std@@3Upiecewise_construct_t@1@B 000000018004cc94     font.obj
 0002:00008c95       ?piecewise_construct@std@@3Upiecewise_construct_t@1@B 000000018004cc95     normalize.obj
 0002:00008c96       ?piecewise_construct@std@@3Upiecewise_construct_t@1@B 000000018004cc96     transform.obj
 0002:00008c97       ?piecewise_construct@std@@3Upiecewise_construct_t@1@B 000000018004cc97     woff2_enc.obj
 0002:00008c98       ?piecewise_construct@std@@3Upiecewise_construct_t@1@B 000000018004cc98     backward_references.obj
 0002:00008c99       ?piecewise_construct@std@@3Upiecewise_construct_t@1@B 000000018004cc99     block_splitter.obj
 0002:00008c9a       ?piecewise_construct@std@@3Upiecewise_construct_t@1@B 000000018004cc9a     encode.obj
 0002:00008c9b       ?piecewise_construct@std@@3Upiecewise_construct_t@1@B 000000018004cc9b     encode_parallel.obj
 0002:00008c9c       ?kMinInputBlockBits@brotli@@3HB 000000018004cc9c     encode.obj
 0002:00008d9c       ?kMaxInputBlockBits@brotli@@3HB 000000018004cd9c     encode.obj
 0002:00008da0       ?kBrotliDictionary@@3QBEB  000000018004cda0     woff2_enc.obj
 0002:00026d40       ?kTransforms@brotli@@3QBUTransform@1@B 000000018006ad40     woff2_enc.obj
 0002:00027898       ?piecewise_construct@std@@3Upiecewise_construct_t@1@B 000000018006b898     metablock.obj
 0002:000278a0       ?kBlockLengthPrefixCode@brotli@@3QBUPrefixCodeRange@1@B 000000018006b8a0     woff2_enc.obj
 0002:00027970       ?kBrotliDictionary@@3QBEB  000000018006b970     backward_references.obj
 0002:00045910       ?kBrotliDictionaryOffsetsByLength@@3QBHB 0000000180089910     backward_references.obj
 0002:00045980       ?copybase@brotli@@3PAHA    0000000180089980     backward_references.obj
 0002:000459e0       ?kTransforms@brotli@@3QBUTransform@1@B 00000001800899e0     backward_references.obj
 0002:00046540       ?kStaticDictionaryHash@brotli@@3QBGB 000000018008a540     backward_references.obj
 0002:00056540       ?kDistanceCacheOffset@brotli@@3QBHB 000000018009a540     backward_references.obj
 0002:00056580       ?kBlockLengthPrefixCode@brotli@@3QBUPrefixCodeRange@1@B 000000018009a580     backward_references.obj
 0002:00056650       ?insextra@brotli@@3PAHA    000000018009a650     backward_references.obj
 0002:000566b0       ?insbase@brotli@@3PAHA     000000018009a6b0     backward_references.obj
 0002:00056710       ?copyextra@brotli@@3PAHA   000000018009a710     backward_references.obj
 0002:00056770       ?kDistanceCacheIndex@brotli@@3QBHB 000000018009a770     backward_references.obj
 0002:000567b0       ?kLog2Table@brotli@@3QBMB  000000018009a7b0     block_splitter.obj
 0002:00056bb0       ?kBlockLengthPrefixCode@brotli@@3QBUPrefixCodeRange@1@B 000000018009abb0     block_splitter.obj
 0002:00056c80       ?kSigned3BitContextLookup@brotli@@3QBEB 000000018009ac80     brotli_bit_stream.obj
 0002:00056d80       ?kUTF8ContextLookup@brotli@@3QBEB 000000018009ad80     brotli_bit_stream.obj
 0002:00056f80       ?kBlockLengthPrefixCode@brotli@@3QBUPrefixCodeRange@1@B 000000018009af80     brotli_bit_stream.obj
 0002:00057050       ?kBrotliDictionary@@3QBEB  000000018009b050     encode.obj
 0002:00074ff0       ?kBrotliDictionaryOffsetsByLength@@3QBHB 00000001800b8ff0     encode.obj
 0002:00075060       ?kBrotliDictionarySizeBitsByLength@@3QBHB 00000001800b9060     encode.obj
 0002:000750d0       ?copybase@brotli@@3PAHA    00000001800b90d0     encode.obj
 0002:00075130       ?kLog2Table@brotli@@3QBMB  00000001800b9130     encode.obj
 0002:00075530       ?kTransforms@brotli@@3QBUTransform@1@B 00000001800b9530     encode.obj
 0002:00076090       ?kBlockLengthPrefixCode@brotli@@3QBUPrefixCodeRange@1@B 00000001800ba090     encode.obj
 0002:00076160       ?insextra@brotli@@3PAHA    00000001800ba160     encode.obj
 0002:000761c0       ?insbase@brotli@@3PAHA     00000001800ba1c0     encode.obj
 0002:00076220       ?copyextra@brotli@@3PAHA   00000001800ba220     encode.obj
 0002:00076280       ?kBrotliDictionary@@3QBEB  00000001800ba280     encode_parallel.obj
 0002:00094220       ?kBrotliDictionaryOffsetsByLength@@3QBHB 00000001800d8220     encode_parallel.obj
 0002:00094290       ?kBrotliDictionarySizeBitsByLength@@3QBHB 00000001800d8290     encode_parallel.obj
 0002:00094300       ?copybase@brotli@@3PAHA    00000001800d8300     encode_parallel.obj
 0002:00094360       ?kTransforms@brotli@@3QBUTransform@1@B 00000001800d8360     encode_parallel.obj
 0002:00094ec0       ?kBlockLengthPrefixCode@brotli@@3QBUPrefixCodeRange@1@B 00000001800d8ec0     encode_parallel.obj
 0002:00094f90       ?insextra@brotli@@3PAHA    00000001800d8f90     encode_parallel.obj
 0002:00094ff0       ?insbase@brotli@@3PAHA     00000001800d8ff0     encode_parallel.obj
 0002:00095050       ?copyextra@brotli@@3PAHA   00000001800d9050     encode_parallel.obj
 0002:000950b0       ?kBlockLengthPrefixCode@brotli@@3QBUPrefixCodeRange@1@B 00000001800d90b0     entropy_encode.obj
 0002:00095180       ?kSigned3BitContextLookup@brotli@@3QBEB 00000001800d9180     histogram.obj
 0002:00095280       ?kUTF8ContextLookup@brotli@@3QBEB 00000001800d9280     histogram.obj
 0002:00095480       ?kBlockLengthPrefixCode@brotli@@3QBUPrefixCodeRange@1@B 00000001800d9480     histogram.obj
 0002:00095550       ?kLog2Table@brotli@@3QBMB  00000001800d9550     literal_cost.obj
 0002:00095950       ?kLog2Table@brotli@@3QBMB  00000001800d9950     metablock.obj
 0002:00095d50       ?kBlockLengthPrefixCode@brotli@@3QBUPrefixCodeRange@1@B 00000001800d9d50     metablock.obj
 0002:000962b0       ?cells@?6??CombineLengthCodes@brotli@@YAHHHH@Z@4QBHB 00000001800da2b0     backward_references.obj
 0002:000962b0       ?cells@?6??CombineLengthCodes@brotli@@YAHHHH@Z@4QBHB 00000001800da2b0     encode.obj
 0002:000963f8       ?kHuffmanBitLengthHuffmanCodeSymbols@?1??StoreHuffmanTreeOfHuffmanTreeToBitMask@brotli@@YAXHPEBEPEAHPEAE@Z@4QBEB 00000001800da3f8     brotli_bit_stream.obj
 0002:00096400       ?kStorageOrder@?1??StoreHuffmanTreeOfHuffmanTreeToBitMask@brotli@@YAXHPEBEPEAHPEAE@Z@4QBEB 00000001800da400     brotli_bit_stream.obj
 0002:00096414       ?kHuffmanBitLengthHuffmanCodeBitLengths@?1??StoreHuffmanTreeOfHuffmanTreeToBitMask@brotli@@YAXHPEBEPEAHPEAE@Z@4QBEB 00000001800da414     brotli_bit_stream.obj
 0002:00096450       ?kLut@?1??ReverseBits@?A0x1969e686@brotli@@YAGHG@Z@4QB_KB 00000001800da450     entropy_encode.obj
 0002:00096fd0       $unwind$?FunctionCallbackWrapper@imp@Nan@@YAXAEBV?$FunctionCallbackInfo@VValue@v8@@@v8@@@Z 00000001800dafd0     addon.obj
 0002:00096fe0       $unwind$?New@?$Factory@VFunctionTemplate@v8@@@imp@Nan@@SA?AV?$Local@VFunctionTemplate@v8@@@v8@@P6AXAEBV?$FunctionCallbackInfo@VValue@v8@@@3@@ZV?$Local@VValue@v8@@@5@V?$Local@VSignature@v8@@@5@@Z 00000001800dafe0     addon.obj
 0002:00096ff4       $unwind$?convert@@YAXAEBV?$FunctionCallbackInfo@VValue@v8@@@Nan@@@Z 00000001800daff4     addon.obj
 0002:0009700c       $unwind$?Init@@YAXV?$Local@VObject@v8@@@v8@@@Z 00000001800db00c     addon.obj
 0002:0009701c       $unwind$?allocate@?$_Wrap_alloc@V?$allocator@E@std@@@std@@QEAAPEAE_K@Z 00000001800db01c     glyph.obj
 0002:0009701c       $unwind$?_Reserve@?$vector@UHistogramPair@brotli@@V?$allocator@UHistogramPair@brotli@@@std@@@std@@IEAAX_K@Z 00000001800db01c     block_splitter.obj
 0002:0009701c       $unwind$?state_case_size@?$output_processor@_WV?$string_output_adapter@_W@__crt_stdio_output@@V?$standard_base@_WV?$string_output_adapter@_W@__crt_stdio_output@@@2@@__crt_stdio_output@@AEAA_NXZ 00000001800db01c     libucrt:output.obj
 0002:0009701c       $unwind$__scrt_dllmain_crt_thread_detach 00000001800db01c     LIBCMT:utility.obj
 0002:0009701c       $unwind$__scrt_dllmain_crt_thread_attach 00000001800db01c     LIBCMT:utility.obj
 0002:0009701c       $unwind$_invoke_watson     00000001800db01c     libucrt:invalid_parameter.obj
 0002:0009701c       $unwind$?deallocate@?$_Wrap_alloc@V?$allocator@U?$Histogram@$0CAI@@brotli@@@std@@@std@@QEAAXPEAU?$Histogram@$0CAI@@brotli@@_K@Z 00000001800db01c     block_splitter.obj
 0002:0009701c       $unwind$?deallocate@?$_Wrap_alloc@V?$allocator@U?$Histogram@$0CMA@@brotli@@@std@@@std@@QEAAXPEAU?$Histogram@$0CMA@@brotli@@_K@Z 00000001800db01c     block_splitter.obj
 0002:0009701c       $unwind$?deallocate@?$_Wrap_alloc@V?$allocator@U?$Histogram@$0BAA@@brotli@@@std@@@std@@QEAAXPEAU?$Histogram@$0BAA@@brotli@@_K@Z 00000001800db01c     block_splitter.obj
 0002:0009701c       $unwind$__vcrt_freefls     00000001800db01c     libvcruntime:per_thread_data.obj
 0002:0009701c       $unwind$?deallocate@?$_Wrap_alloc@V?$allocator@V?$vector@UPoint@Glyph@woff2@@V?$allocator@UPoint@Glyph@woff2@@@std@@@std@@@std@@@std@@QEAAXPEAV?$vector@UPoint@Glyph@woff2@@V?$allocator@UPoint@Glyph@woff2@@@std@@@2@_K@Z 00000001800db01c     glyph.obj
 0002:0009701c       $unwind$_msize             00000001800db01c     libucrt:msize.obj
 0002:0009701c       $unwind$?deallocate@?$_Wrap_alloc@V?$allocator@UHuffmanTree@?A0x1969e686@brotli@@@std@@@std@@QEAAXPEAUHuffmanTree@?A0x1969e686@brotli@@_K@Z 00000001800db01c     entropy_encode.obj
 0002:0009701c       $unwind$?deallocate@?$_Wrap_alloc@V?$allocator@UPoint@Glyph@woff2@@@std@@@std@@QEAAXPEAUPoint@Glyph@woff2@@_K@Z 00000001800db01c     glyph.obj
 0002:0009701c       $unwind$_fileno            00000001800db01c     libucrt:fileno.obj
 0002:0009701c       $unwind$??$uninitialize_environment_internal@_W@@YAXAEAPEAPEA_W@Z 00000001800db01c     libucrt:environment_initialization.obj
 0002:0009701c       $unwind$__scrt_dllmain_uninitialize_c 00000001800db01c     LIBCMT:utility.obj
 0002:0009701c       $unwind$?allocate@?$_Wrap_alloc@V?$allocator@V?$vector@EV?$allocator@E@std@@@std@@@std@@@std@@QEAAPEAV?$vector@EV?$allocator@E@std@@@2@_K@Z 00000001800db01c     glyph.obj
 0002:0009701c       $unwind$__scrt_dllmain_after_initialize_c 00000001800db01c     LIBCMT:utility.obj
 0002:0009701c       $unwind$?allocate@?$_Wrap_alloc@V?$allocator@G@std@@@std@@QEAAPEAG_K@Z 00000001800db01c     block_splitter.obj
 0002:0009701c       $unwind$__vcrt_getptd      00000001800db01c     libvcruntime:per_thread_data.obj
 0002:0009701c       $unwind$__scrt_dllmain_before_initialize_c 00000001800db01c     LIBCMT:utility.obj
 0002:0009701c       $unwind$?deallocate@?$_Wrap_alloc@V?$allocator@E@std@@@std@@QEAAXPEAE_K@Z 00000001800db01c     glyph.obj
 0002:0009701c       $unwind$_statfp            00000001800db01c     libucrt:fpctrl.obj
 0002:0009701c       $unwind$__acrt_release_locale_ref 00000001800db01c     libucrt:locale_refcounting.obj
 0002:0009701c       $unwind$_errno             00000001800db01c     libucrt:errno.obj
 0002:0009701c       $unwind$?_Reserve@?$vector@EV?$allocator@E@std@@@std@@IEAAX_K@Z 00000001800db01c     glyph.obj
 0002:0009701c       $unwind$__doserrno         00000001800db01c     libucrt:errno.obj
 0002:0009701c       $unwind$_get_osfhandle     00000001800db01c     libucrt:osfinfo.obj
 0002:0009701c       $unwind$tolower            00000001800db01c     libucrt:tolower_toupper.obj
 0002:0009701c       $unwind$??$pop_heap@V?$_Vector_iterator@V?$_Vector_val@U?$_Simple_types@UHistogramPair@brotli@@@std@@@std@@@std@@UHistogramPairComparator@brotli@@@std@@YAXV?$_Vector_iterator@V?$_Vector_val@U?$_Simple_types@UHistogramPair@brotli@@@std@@@std@@@0@0UHistogramPairComparator@brotli@@@Z 00000001800db01c     block_splitter.obj
 0002:0009701c       $unwind$__scrt_acquire_startup_lock 00000001800db01c     LIBCMT:utility.obj
 0002:0009701c       $unwind$__vcrt_initialize  00000001800db01c     libvcruntime:initialization.obj
 0002:0009701c       $unwind$__acrt_initialize_command_line 00000001800db01c     libucrt:argv_data.obj
 0002:0009701c       $unwind$?state_case_size@?$output_processor@_WV?$stream_output_adapter@_W@__crt_stdio_output@@V?$standard_base@_WV?$stream_output_adapter@_W@__crt_stdio_output@@@2@@__crt_stdio_output@@AEAA_NXZ 00000001800db01c     libucrt:output.obj
 0002:0009701c       $unwind$atexit             00000001800db01c     LIBCMT:utility.obj
 0002:0009701c       $unwind$__pctype_func      00000001800db01c     libucrt:ctype.obj
 0002:0009701c       $unwind$?initialize_multibyte@@YAHXZ 00000001800db01c     libucrt:multibyte_initializer.obj
 0002:0009701c       $unwind$?validate_stream_is_ansi_if_required@?$__acrt_stdio_char_traits@D@@SA_NQEAU_iobuf@@@Z 00000001800db01c     libucrt:output.obj
 0002:0009701c       $unwind$?dllmain_crt_dispatch@@YAHQEAUHINSTANCE__@@KQEAX@Z 00000001800db01c     LIBCMT:dll_dllmain.obj
 0002:0009701c       $unwind$__dcrt_terminate_console_output 00000001800db01c     libucrt:initcon.obj
 0002:0009701c       $unwind$_set_error_mode    00000001800db01c     libucrt:set_error_mode.obj
 0002:0009701c       $unwind$__vcrt_uninitialize_ptd 00000001800db01c     libvcruntime:per_thread_data.obj
 0002:0009701c       $unwind$?deallocate@?$_Wrap_alloc@V?$allocator@UHistogramPair@brotli@@@std@@@std@@QEAAXPEAUHistogramPair@brotli@@_K@Z 00000001800db01c     block_splitter.obj
 0002:0009701c       $unwind$?_Reserve@?$vector@HV?$allocator@H@std@@@std@@IEAAX_K@Z 00000001800db01c     block_splitter.obj
 0002:0009701c       $unwind$__FrameUnwindFilter 00000001800db01c     libvcruntime:frame.obj
 0002:0009701c       $unwind$_stricmp           00000001800db01c     libucrt:stricmp.obj
 0002:0009701c       $unwind$__vcrt_initialize_ptd 00000001800db01c     libvcruntime:per_thread_data.obj
 0002:0009701c       $unwind$?deallocate@?$_Wrap_alloc@V?$allocator@V?$vector@EV?$allocator@E@std@@@std@@@std@@@std@@QEAAXPEAV?$vector@EV?$allocator@E@std@@@2@_K@Z 00000001800db01c     glyph.obj
 0002:0009701c       $unwind$?__scrt_uninitialize_thread_safe_statics@@YAXXZ 00000001800db01c     LIBCMT:thread_safe_statics.obj
 0002:0009701c       $unwind$?deallocate@?$_Wrap_alloc@V?$allocator@H@std@@@std@@QEAAXPEAH_K@Z 00000001800db01c     block_splitter.obj
 0002:0009701c       $unwind$_getfpcontrolword  00000001800db01c     libucrt:_fenvutils.obj
 0002:0009701c       $unwind$?state_case_size@?$output_processor@DV?$stream_output_adapter@D@__crt_stdio_output@@V?$standard_base@DV?$stream_output_adapter@D@__crt_stdio_output@@@2@@__crt_stdio_output@@AEAA_NXZ 00000001800db01c     libucrt:output.obj
 0002:0009701c       $unwind$??$uninitialize_environment_internal@D@@YAXAEAPEAPEAD@Z 00000001800db01c     libucrt:environment_initialization.obj
 0002:0009701c       $unwind$__vcrt_uninitialize 00000001800db01c     libvcruntime:initialization.obj
 0002:0009701c       $unwind$?__GetCurrentState@@YAHPEA_KPEAU_xDISPATCHER_CONTEXT@@PEBU_s_FuncInfo@@@Z 00000001800db01c     libvcruntime:ehstate.obj
 0002:0009701c       $unwind$?allocate@?$_Wrap_alloc@U?$_Wrap_alloc@V?$allocator@V?$_List_unchecked_iterator@V?$_List_val@U?$_List_simple_types@U?$pair@$$CBV?$basic_string@DU?$char_traits@D@std@@V?$allocator@D@2@@std@@H@std@@@std@@@std@@@std@@@std@@@std@@@std@@QEAAPEAV?$_List_unchecked_iterator@V?$_List_val@U?$_List_simple_types@U?$pair@$$CBV?$basic_string@DU?$char_traits@D@std@@V?$allocator@D@2@@std@@H@std@@@std@@@std@@@2@_K@Z 00000001800db01c     encode.obj
 0002:0009701c       $unwind$__acrt_uninitialize_critical 00000001800db01c     libucrt:initialization.obj
 0002:0009701c       $unwind$__vcrt_uninitialize_critical 00000001800db01c     libvcruntime:initialization.obj
 0002:0009701c       $unwind$??$_Push_heap_unchecked@PEAUHistogramPair@brotli@@UHistogramPairComparator@2@@std@@YAXPEAUHistogramPair@brotli@@0AEAUHistogramPairComparator@2@@Z 00000001800db01c     block_splitter.obj
 0002:0009701c       $unwind$?deallocate@?$_Wrap_alloc@V?$allocator@G@std@@@std@@QEAAXPEAG_K@Z 00000001800db01c     block_splitter.obj
 0002:0009701c       $unwind$__acrt_thread_attach 00000001800db01c     libucrt:initialization.obj
 0002:0009701c       $unwind$_getfpstatusword   00000001800db01c     libucrt:_fenvutils.obj
 0002:0009701c       $unwind$__vcrt_thread_attach 00000001800db01c     libvcruntime:initialization.obj
 0002:0009701c       $unwind$_isatty            00000001800db01c     libucrt:isatty.obj
 0002:0009701c       $unwind$?deallocate@?$_Wrap_alloc@V?$allocator@UFont@woff2@@@std@@@std@@QEAAXPEAUFont@woff2@@_K@Z 00000001800db01c     font.obj
 0002:0009701c       $unwind$uninitialize_environment 00000001800db01c     libucrt:initialization.obj
 0002:0009701c       $unwind$abort              00000001800db01c     libucrt:abort.obj
 0002:0009701c       $unwind$_GetImageBase      00000001800db01c     libvcruntime:trnsctrl.obj
 0002:0009701c       $unwind$?allocate@?$_Wrap_alloc@V?$allocator@U?$Histogram@$0CAI@@brotli@@@std@@@std@@QEAAPEAU?$Histogram@$0CAI@@brotli@@_K@Z 00000001800db01c     block_splitter.obj
 0002:0009701c       $unwind$__acrt_initialize_heap 00000001800db01c     libucrt:heap_handle.obj
 0002:0009701c       $unwind$?allocate@?$_Wrap_alloc@V?$allocator@U?$Histogram@$0CMA@@brotli@@@std@@@std@@QEAAPEAU?$Histogram@$0CMA@@brotli@@_K@Z 00000001800db01c     block_splitter.obj
 0002:0009701c       $unwind$_GetThrowImageBase 00000001800db01c     libvcruntime:trnsctrl.obj
 0002:0009701c       $unwind$__acrt_uninitialize_ptd 00000001800db01c     libucrt:per_thread_data.obj
 0002:0009701c       $unwind$?deallocate@?$_Wrap_alloc@V?$allocator@UTable@woff2@@@std@@@std@@QEAAXPEAUTable@woff2@@_K@Z 00000001800db01c     woff2_enc.obj
 0002:0009701c       $unwind$?allocate@?$_Wrap_alloc@V?$allocator@U?$Histogram@$0BAA@@brotli@@@std@@@std@@QEAAPEAU?$Histogram@$0BAA@@brotli@@_K@Z 00000001800db01c     block_splitter.obj
 0002:0009701c       $unwind$__acrt_initialize_ptd 00000001800db01c     libucrt:per_thread_data.obj
 0002:0009701c       $unwind$?_Deallocate@std@@YAXPEAX_K1@Z 00000001800db01c     glyph.obj
 0002:0009701c       $unwind$__vcrt_thread_detach 00000001800db01c     libvcruntime:initialization.obj
 0002:0009701c       $unwind$?allocate@?$_Wrap_alloc@U?$_Wrap_alloc@V?$allocator@V?$_List_unchecked_iterator@V?$_List_val@U?$_List_simple_types@U?$pair@$$CBIH@std@@@std@@@std@@@std@@@std@@@std@@@std@@QEAAPEAV?$_List_unchecked_iterator@V?$_List_val@U?$_List_simple_types@U?$pair@$$CBIH@std@@@std@@@std@@@2@_K@Z 00000001800db01c     encode.obj
 0002:0009701c       $unwind$__scrt_initialize_default_local_stdio_options 00000001800db01c     LIBCMT:default_local_stdio_options.obj
 0002:0009701c       $unwind$?deallocate@?$_Wrap_alloc@V?$allocator@I@std@@@std@@QEAAXPEAI_K@Z 00000001800db01c     font.obj
 0002:0009701c       $unwind$?allocate@?$_Wrap_alloc@V?$allocator@H@std@@@std@@QEAAPEAH_K@Z 00000001800db01c     block_splitter.obj
 0002:0009701c       $unwind$_set_errno_from_matherr 00000001800db01c     libucrt:fpexcept.obj
 0002:0009701c       $unwind$__acrt_thread_detach 00000001800db01c     libucrt:initialization.obj
 0002:0009701c       $unwind$__acrt_DownlevelLocaleNameToLCID 00000001800db01c     libucrt:lcidtoname_downlevel.obj
 0002:0009701c       $unwind$__scrt_dllmain_uninitialize_critical 00000001800db01c     LIBCMT:utility.obj
 0002:0009701c       $unwind$__dcrt_uninitialize_environments_nolock 00000001800db01c     libucrt:environment_initialization.obj
 0002:0009701c       $unwind$__GSHandlerCheck   00000001800db01c     LIBCMT:_gshandler_.obj
 0002:0009701c       $unwind$initialize_c       00000001800db01c     libucrt:initialization.obj
 0002:0009701c       $unwind$?_Reserve@?$vector@IV?$allocator@I@std@@@std@@IEAAX_K@Z 00000001800db01c     font.obj
 0002:0009701c       $unwind$__report_rangecheckfailure 00000001800db01c     LIBCMT:gs_report.obj
 0002:0009701c       $unwind$?deallocate@?$_Wrap_alloc@U?$_Wrap_alloc@V?$allocator@V?$_List_unchecked_iterator@V?$_List_val@U?$_List_simple_types@U?$pair@$$CBIH@std@@@std@@@std@@@std@@@std@@@std@@@std@@QEAAXPEAV?$_List_unchecked_iterator@V?$_List_val@U?$_List_simple_types@U?$pair@$$CBIH@std@@@std@@@std@@@2@_K@Z 00000001800db01c     encode.obj
 0002:0009701c       $unwind$?deallocate@?$_Wrap_alloc@U?$_Wrap_alloc@V?$allocator@V?$_List_unchecked_iterator@V?$_List_val@U?$_List_simple_types@U?$pair@$$CBV?$basic_string@DU?$char_traits@D@std@@V?$allocator@D@2@@std@@H@std@@@std@@@std@@@std@@@std@@@std@@@std@@QEAAXPEAV?$_List_unchecked_iterator@V?$_List_val@U?$_List_simple_types@U?$pair@$$CBV?$basic_string@DU?$char_traits@D@std@@V?$allocator@D@2@@std@@H@std@@@std@@@std@@@2@_K@Z 00000001800db01c     encode.obj
 0002:0009701c       $unwind$__acrt_initialize_multibyte 00000001800db01c     libucrt:mbctype.obj
 0002:00097024       $unwind$?ReadCompositeGlyphData@woff2@@YA_NPEAVBuffer@1@PEAVGlyph@1@@Z 00000001800db024     glyph.obj
 0002:00097024       $unwind$??$type_case_integer_parse_into_buffer@_K@?$output_processor@_WV?$string_output_adapter@_W@__crt_stdio_output@@V?$standard_base@_WV?$string_output_adapter@_W@__crt_stdio_output@@@2@@__crt_stdio_output@@AEAAX_KI_N@Z 00000001800db024     libucrt:output.obj
 0002:00097024       $unwind$??$type_case_integer_parse_into_buffer@I@?$output_processor@_WV?$stream_output_adapter@_W@__crt_stdio_output@@V?$standard_base@_WV?$stream_output_adapter@_W@__crt_stdio_output@@@2@@__crt_stdio_output@@AEAAXII_N@Z 00000001800db024     libucrt:output.obj
 0002:00097024       $unwind$??$type_case_integer_parse_into_buffer@_K@?$output_processor@_WV?$stream_output_adapter@_W@__crt_stdio_output@@V?$standard_base@_WV?$stream_output_adapter@_W@__crt_stdio_output@@@2@@__crt_stdio_output@@AEAAX_KI_N@Z 00000001800db024     libucrt:output.obj
 0002:00097024       $unwind$??$type_case_integer_parse_into_buffer@I@?$output_processor@DV?$stream_output_adapter@D@__crt_stdio_output@@V?$standard_base@DV?$stream_output_adapter@D@__crt_stdio_output@@@2@@__crt_stdio_output@@AEAAXII_N@Z 00000001800db024     libucrt:output.obj
 0002:00097024       $unwind$??$type_case_integer_parse_into_buffer@_K@?$output_processor@DV?$stream_output_adapter@D@__crt_stdio_output@@V?$standard_base@DV?$stream_output_adapter@D@__crt_stdio_output@@@2@@__crt_stdio_output@@AEAAX_KI_N@Z 00000001800db024     libucrt:output.obj
 0002:00097024       $unwind$?FindMatchLengthWithLimit@brotli@@YAHPEBE0_K@Z 00000001800db024     backward_references.obj
 0002:00097024       $unwind$??$type_case_integer_parse_into_buffer@I@?$output_processor@_WV?$string_output_adapter@_W@__crt_stdio_output@@V?$standard_base@_WV?$string_output_adapter@_W@__crt_stdio_output@@@2@@__crt_stdio_output@@AEAAXII_N@Z 00000001800db024     libucrt:output.obj
 0002:00097024       $unwind$?ComputeTotalTransformLength@?A0x683ef156@woff2@@YA_KAEBUFont@2@@Z 00000001800db024     woff2_enc.obj
 0002:0009702c       $unwind$?ReadGlyph@woff2@@YA_NPEBE_KPEAVGlyph@1@@Z 00000001800db02c     glyph.obj
 0002:0009703c       $chain$1$?ReadGlyph@woff2@@YA_NPEBE_KPEAVGlyph@1@@Z 00000001800db03c     glyph.obj
 0002:00097054       $chain$3$?ReadGlyph@woff2@@YA_NPEBE_KPEAVGlyph@1@@Z 00000001800db054     glyph.obj
 0002:0009706c       $chain$4$?ReadGlyph@woff2@@YA_NPEBE_KPEAVGlyph@1@@Z 00000001800db06c     glyph.obj
 0002:0009707c       $chain$6$?ReadGlyph@woff2@@YA_NPEBE_KPEAVGlyph@1@@Z 00000001800db07c     glyph.obj
 0002:0009707c       $chain$9$?ReadGlyph@woff2@@YA_NPEBE_KPEAVGlyph@1@@Z 00000001800db07c     glyph.obj
 0002:0009709c       $chain$7$?ReadGlyph@woff2@@YA_NPEBE_KPEAVGlyph@1@@Z 00000001800db09c     glyph.obj
 0002:000970b4       $chain$8$?ReadGlyph@woff2@@YA_NPEBE_KPEAVGlyph@1@@Z 00000001800db0b4     glyph.obj
 0002:000970c4       $unwind$?StorePoints@?A0x97bb6148@woff2@@YA_NAEBVGlyph@2@PEA_KPEAE_K@Z 00000001800db0c4     glyph.obj
 0002:000970dc       $unwind$??$_Buffered_rotate_unchecked@PEAUHuffmanTree@?A0x1969e686@brotli@@_JU123@@std@@YAPEAUHuffmanTree@?A0x1969e686@brotli@@PEAU123@00_J1AEAV?$_Temp_iterator@UHuffmanTree@?A0x1969e686@brotli@@@0@@Z 00000001800db0dc     entropy_encode.obj
 0002:000970dc       $unwind$?StoreGlyph@woff2@@YA_NAEBVGlyph@1@PEAEPEA_K@Z 00000001800db0dc     glyph.obj
 0002:000970f0       $unwind$??$common_xtox@K_W@@YAHKQEA_W_KI_N@Z 00000001800db0f0     libucrt:xtoa.obj
 0002:000970f0       $unwind$_callnewh          00000001800db0f0     libucrt:new_handler.obj
 0002:000970f0       $unwind$??_Glength_error@std@@UEAAPEAXI@Z 00000001800db0f0     libcpmt:xthrow.obj
 0002:000970f0       $unwind$?replace_current_thread_locale_nolock@@YAXQEAU__acrt_ptd@@QEAU__crt_locale_data@@@Z 00000001800db0f0     libucrt:per_thread_data.obj
 0002:000970f0       $unwind$?push_back@?$vector@UTable@woff2@@V?$allocator@UTable@woff2@@@std@@@std@@QEAAXAEBUTable@woff2@@@Z 00000001800db0f0     woff2_enc.obj
 0002:000970f0       $unwind$??_Glogic_error@std@@UEAAPEAXI@Z 00000001800db0f0     libcpmt:xthrow.obj
 0002:000970f0       $unwind$??_Gbad_array_new_length@std@@UEAAPEAXI@Z 00000001800db0f0     LIBCMT:throw_bad_alloc.obj
 0002:000970f0       $unwind$?__SetUnwindTryBlock@@YAXPEA_KPEAU_xDISPATCHER_CONTEXT@@PEBU_s_FuncInfo@@H@Z 00000001800db0f0     libvcruntime:ehstate.obj
 0002:000970f0       $unwind$?try_cor_exit_process@@YAXI@Z 00000001800db0f0     libucrt:exit.obj
 0002:000970f0       $unwind$_close_nolock      00000001800db0f0     libucrt:close.obj
 0002:000970f0       $unwind$??_Gbad_alloc@std@@UEAAPEAXI@Z 00000001800db0f0     libcpmt:xthrow.obj
 0002:000970f0       $unwind$??_Gexception@std@@UEAAPEAXI@Z 00000001800db0f0     libcpmt:xthrow.obj
 0002:000970f0       $unwind$?_Buy@?$vector@EV?$allocator@E@std@@@std@@IEAA_N_K@Z 00000001800db0f0     font.obj
 0002:000970f0       $unwind$_fclose_nolock     00000001800db0f0     libucrt:fclose.obj
 0002:000970f0       $unwind$??_Gout_of_range@std@@UEAAPEAXI@Z 00000001800db0f0     libcpmt:xthrow.obj
 0002:000970f0       $unwind$strncpy_s          00000001800db0f0     libucrt:strncpy_s.obj
 0002:000970f0       $unwind$??1BlockSplitCode@brotli@@QEAA@XZ 00000001800db0f0     brotli_bit_stream.obj
 0002:000970f0       $unwind$??0_LocaleUpdate@@QEAA@QEAU__crt_locale_pointers@@@Z 00000001800db0f0     libucrt:output.obj
 0002:000970f0       $unwind$__acrt_get_parent_window 00000001800db0f0     libucrt:winapi_thunks.obj
 0002:000970f0       $unwind$wcsncat_s          00000001800db0f0     libucrt:wcsncat_s.obj
 0002:000970f0       $unwind$?internal_isupper_l@@YA_NHQEAU__crt_locale_pointers@@@Z 00000001800db0f0     libucrt:tolower_toupper.obj
 0002:000970f0       $unwind$__acrt_stdio_begin_temporary_buffering_nolock 00000001800db0f0     libucrt:_sftbuf.obj
 0002:000970f0       $unwind$?_Buy@?$vector@U?$Histogram@$0CAI@@brotli@@V?$allocator@U?$Histogram@$0CAI@@brotli@@@std@@@std@@IEAA_N_K@Z 00000001800db0f0     block_splitter.obj
 0002:000970f0       $unwind$?PrefixEncodeCopyDistance@brotli@@YAXHHHPEAGPEAI@Z 00000001800db0f0     encode.obj
 0002:000970f0       $unwind$?_Buy@?$vector@U?$Histogram@$0BAA@@brotli@@V?$allocator@U?$Histogram@$0BAA@@brotli@@@std@@@std@@IEAA_N_K@Z 00000001800db0f0     block_splitter.obj
 0002:000970f0       $unwind$??$common_initialize_environment_nolock@D@@YAHXZ 00000001800db0f0     libucrt:environment_initialization.obj
 0002:000970f0       $unwind$?resize@?$vector@HV?$allocator@H@std@@@std@@QEAAX_K@Z 00000001800db0f0     block_splitter.obj
 0002:000970f0       $unwind$?ExFilterRethrow@@YAHPEAU_EXCEPTION_POINTERS@@PEAUEHExceptionRecord@@PEAH@Z 00000001800db0f0     libvcruntime:frame.obj
 0002:000970f0       $unwind$__acrt_getptd      00000001800db0f0     libucrt:per_thread_data.obj
 0002:000970f0       $unwind$__acrt_uninitialize_lowio 00000001800db0f0     libucrt:ioinit.obj
 0002:000970f0       $unwind$__acrt_FlsGetValue 00000001800db0f0     libucrt:winapi_thunks.obj
 0002:000970f0       $unwind$_FindAndUnlinkFrame 00000001800db0f0     libvcruntime:trnsctrl.obj
 0002:000970f0       $unwind$?type_case_c_tchar@?$output_processor@DV?$stream_output_adapter@D@__crt_stdio_output@@V?$standard_base@DV?$stream_output_adapter@D@__crt_stdio_output@@@2@@__crt_stdio_output@@AEAA_ND@Z 00000001800db0f0     libucrt:output.obj
 0002:000970f0       $unwind$__acrt_FlsFree     00000001800db0f0     libucrt:winapi_thunks.obj
 0002:000970f0       $unwind$__acrt_FlsAlloc    00000001800db0f0     libucrt:winapi_thunks.obj
 0002:000970f0       $unwind$??0Font@woff2@@QEAA@$$QEAU01@@Z 00000001800db0f0     font.obj
 0002:000970f0       $unwind$__acrt_invoke_user_matherr 00000001800db0f0     libucrt:matherr.obj
 0002:000970f0       $unwind$_realloc_base      00000001800db0f0     libucrt:realloc_base.obj
 0002:000970f0       $unwind$??1MetaBlockSplit@brotli@@QEAA@XZ 00000001800db0f0     encode.obj
 0002:000970f0       $unwind$?Write@BrotliMemOut@brotli@@UEAA_NPEBX_K@Z 00000001800db0f0     streams.obj
 0002:000970f0       $unwind$?force_decimal_point@__crt_stdio_output@@YAXPEADQEAU__crt_locale_pointers@@@Z 00000001800db0f0     libucrt:output.obj
 0002:000970f0       $unwind$??_Gbad_exception@std@@UEAAPEAXI@Z 00000001800db0f0     libvcruntime:frame.obj
 0002:000970f0       $unwind$?erase@?$basic_string@DU?$char_traits@D@std@@V?$allocator@D@2@@std@@QEAAAEAV12@_K0@Z 00000001800db0f0     woff2_enc.obj
 0002:000970f0       $unwind$?resize@?$vector@GV?$allocator@G@std@@@std@@QEAAX_K@Z 00000001800db0f0     brotli_bit_stream.obj
 0002:000970f0       $unwind$?WriteBbox@GlyfEncoder@?A0x41905820@woff2@@AEAAXHAEBVGlyph@3@@Z 00000001800db0f0     transform.obj
 0002:000970f0       $unwind$_updatetlocinfoEx_nolock 00000001800db0f0     libucrt:locale_refcounting.obj
 0002:000970f0       $unwind$?_Maxlen@?$_Temp_iterator@UHuffmanTree@?A0x1969e686@brotli@@@std@@QEAA_JXZ 00000001800db0f0     entropy_encode.obj
 0002:000970f0       $unwind$__acrt_errno_map_os_error 00000001800db0f0     libucrt:errno.obj
 0002:000970f0       $unwind$__vcrt_FlsGetValue 00000001800db0f0     libvcruntime:winapi_downlevel.obj
 0002:000970f0       $unwind$?DloadGetSRWLockFunctionPointers@@YAEXZ 00000001800db0f0     DelayImp:delayhlp.obj
 0002:000970f0       $unwind$__vcrt_FlsFree     00000001800db0f0     libvcruntime:winapi_downlevel.obj
 0002:000970f0       $unwind$?DloadAcquireSectionWriteAccess@@YAXXZ 00000001800db0f0     DelayImp:delayhlp.obj
 0002:000970f0       $unwind$__vcrt_FlsAlloc    00000001800db0f0     libvcruntime:winapi_downlevel.obj
 0002:000970f0       $unwind$?resize@?$vector@EV?$allocator@E@std@@@std@@QEAAX_K@Z 00000001800db0f0     glyph.obj
 0002:000970fc       $unwind$?type_case_s@?$output_processor@_WV?$stream_output_adapter@_W@__crt_stdio_output@@V?$standard_base@_WV?$stream_output_adapter@_W@__crt_stdio_output@@@2@@__crt_stdio_output@@AEAA_NXZ 00000001800db0fc     libucrt:output.obj
 0002:000970fc       $unwind$?type_case_Z@?$output_processor@_WV?$stream_output_adapter@_W@__crt_stdio_output@@V?$standard_base@_WV?$stream_output_adapter@_W@__crt_stdio_output@@@2@@__crt_stdio_output@@AEAA_NXZ 00000001800db0fc     libucrt:output.obj
 0002:000970fc       $unwind$?type_case_n@?$output_processor@_WV?$stream_output_adapter@_W@__crt_stdio_output@@V?$standard_base@_WV?$stream_output_adapter@_W@__crt_stdio_output@@@2@@__crt_stdio_output@@AEAA_NXZ 00000001800db0fc     libucrt:output.obj
 0002:000970fc       $unwind$_exception_enabled 00000001800db0fc     libucrt:libm_error.obj
 0002:000970fc       $unwind$__vcrt_FlsSetValue 00000001800db0fc     libvcruntime:winapi_downlevel.obj
 0002:000970fc       $unwind$?resize@?$vector@UPoint@Glyph@woff2@@V?$allocator@UPoint@Glyph@woff2@@@std@@@std@@QEAAX_K@Z 00000001800db0fc     glyph.obj
 0002:000970fc       $unwind$?resize@?$vector@V?$vector@UPoint@Glyph@woff2@@V?$allocator@UPoint@Glyph@woff2@@@std@@@std@@V?$allocator@V?$vector@UPoint@Glyph@woff2@@V?$allocator@UPoint@Glyph@woff2@@@std@@@std@@@2@@std@@QEAAX_K@Z 00000001800db0fc     glyph.obj
 0002:000970fc       $unwind$?free_crt_array_internal@@YAXQEAPEBX_K@Z 00000001800db0fc     libucrt:inittime.obj
 0002:000970fc       $unwind$__vcrt_getptd_noexit 00000001800db0fc     libvcruntime:per_thread_data.obj
 0002:000970fc       $unwind$__acrt_stdio_flush_and_write_narrow_nolock 00000001800db0fc     libucrt:_flsbuf.obj
 0002:000970fc       $unwind$__acrt_stdio_flush_and_write_wide_nolock 00000001800db0fc     libucrt:_flsbuf.obj
 0002:000970fc       $unwind$?_Erase@?$_Tree@V?$_Tset_traits@HU?$less@H@std@@V?$allocator@H@2@$0A@@std@@@std@@IEAAXPEAU?$_Tree_node@HPEAX@2@@Z 00000001800db0fc     block_splitter.obj
 0002:000970fc       $unwind$?_Erase@?$_Tree@V?$_Tmap_traits@HHU?$less@H@std@@V?$allocator@U?$pair@$$CBHH@std@@@2@$0A@@std@@@std@@IEAAXPEAU?$_Tree_node@U?$pair@$$CBHH@std@@PEAX@2@@Z 00000001800db0fc     block_splitter.obj
 0002:000970fc       $unwind$__acrt_stdio_flush_nolock 00000001800db0fc     libucrt:fflush.obj
 0002:000970fc       $unwind$memcpy_s           00000001800db0fc     libucrt:cfout.obj
 0002:000970fc       $unwind$__acrt_FlsSetValue 00000001800db0fc     libucrt:winapi_thunks.obj
 0002:000970fc       $unwind$?type_case_Z@?$output_processor@_WV?$string_output_adapter@_W@__crt_stdio_output@@V?$standard_base@_WV?$string_output_adapter@_W@__crt_stdio_output@@@2@@__crt_stdio_output@@AEAA_NXZ 00000001800db0fc     libucrt:output.obj
 0002:000970fc       $unwind$?__scrt_initialize_thread_safe_statics@@YAHXZ 00000001800db0fc     LIBCMT:thread_safe_statics.obj
 0002:000970fc       $unwind$_initterm_e        00000001800db0fc     libucrt:initterm.obj
 0002:000970fc       $unwind$?type_case_s@?$output_processor@_WV?$string_output_adapter@_W@__crt_stdio_output@@V?$standard_base@_WV?$string_output_adapter@_W@__crt_stdio_output@@@2@@__crt_stdio_output@@AEAA_NXZ 00000001800db0fc     libucrt:output.obj
 0002:000970fc       $unwind$__acrt_LocaleNameToLCID 00000001800db0fc     libucrt:winapi_thunks.obj
 0002:000970fc       $unwind$?resize@?$vector@U?$Histogram@$0CAI@@brotli@@V?$allocator@U?$Histogram@$0CAI@@brotli@@@std@@@std@@QEAAX_K@Z 00000001800db0fc     block_splitter.obj
 0002:000970fc       $unwind$_Init_thread_wait  00000001800db0fc     LIBCMT:thread_safe_statics.obj
 0002:000970fc       $unwind$?type_case_n@?$output_processor@DV?$stream_output_adapter@D@__crt_stdio_output@@V?$standard_base@DV?$stream_output_adapter@D@__crt_stdio_output@@@2@@__crt_stdio_output@@AEAA_NXZ 00000001800db0fc     libucrt:output.obj
 0002:000970fc       $unwind$?resize@?$vector@U?$Histogram@$0BAA@@brotli@@V?$allocator@U?$Histogram@$0BAA@@brotli@@@std@@@std@@QEAAX_K@Z 00000001800db0fc     block_splitter.obj
 0002:000970fc       $unwind$__acrt_getptd_noexit 00000001800db0fc     libucrt:per_thread_data.obj
 0002:000970fc       $unwind$?_Erase@?$_Tree@V?$_Tmap_traits@EEU?$less@E@std@@V?$allocator@U?$pair@$$CBEE@std@@@2@$0A@@std@@@std@@IEAAXPEAU?$_Tree_node@U?$pair@$$CBEE@std@@PEAX@2@@Z 00000001800db0fc     block_splitter.obj
 0002:000970fc       $unwind$??$_Insert@AEAU?$pair@$$CBIH@std@@V?$_List_unchecked_iterator@V?$_List_val@U?$_List_simple_types@U?$pair@$$CBIH@std@@@std@@@std@@@2@@?$_Hash@V?$_Umap_traits@IHV?$_Uhash_compare@IU?$hash@I@std@@U?$equal_to@I@2@@std@@V?$allocator@U?$pair@$$CBIH@std@@@2@$0A@@std@@@std@@IEAA?AU?$pair@V?$_List_iterator@V?$_List_val@U?$_List_simple_types@U?$pair@$$CBIH@std@@@std@@@std@@@std@@_N@1@AEAU?$pair@$$CBIH@1@V?$_List_unchecked_iterator@V?$_List_val@U?$_List_simple_types@U?$pair@$$CBIH@std@@@std@@@std@@@1@@Z 00000001800db0fc     encode.obj
 0002:000970fc       $unwind$?_Tidy@?$basic_string@DU?$char_traits@D@std@@V?$allocator@D@2@@std@@QEAAX_N_K@Z 00000001800db0fc     woff2_enc.obj
 0002:000970fc       $unwind$?type_case_n@?$output_processor@_WV?$string_output_adapter@_W@__crt_stdio_output@@V?$standard_base@_WV?$string_output_adapter@_W@__crt_stdio_output@@@2@@__crt_stdio_output@@AEAA_NXZ 00000001800db0fc     libucrt:output.obj
 0002:000970fc       $unwind$?_Erase@?$_Tree@V?$_Tmap_traits@IIU?$less@I@std@@V?$allocator@U?$pair@$$CBII@std@@@2@$0A@@std@@@std@@IEAAXPEAU?$_Tree_node@U?$pair@$$CBII@std@@PEAX@2@@Z 00000001800db0fc     font.obj
 0002:000970fc       $unwind$?assign@?$basic_string@DU?$char_traits@D@std@@V?$allocator@D@2@@std@@QEAAAEAV12@PEBD_K@Z 00000001800db0fc     woff2_enc.obj
 0002:000970fc       $unwind$??R<lambda_ad1ced32f4ac17aa236e5ef05d6b3b7c>@@QEBAXXZ 00000001800db0fc     libucrt:mbctype.obj
 0002:000970fc       $unwind$?_Erase@?$_Tree@V?$_Tmap_traits@IPEAUTable@Font@woff2@@U?$less@I@std@@V?$allocator@U?$pair@$$CBIPEAUTable@Font@woff2@@@std@@@5@$0A@@std@@@std@@IEAAXPEAU?$_Tree_node@U?$pair@$$CBIPEAUTable@Font@woff2@@@std@@PEAX@2@@Z 00000001800db0fc     font.obj
 0002:000970fc       $unwind$??0StaticDictionary@brotli@@QEAA@XZ 00000001800db0fc     encode.obj
 0002:000970fc       $unwind$?ComputeHeaderChecksum@?A0x2d59e7ae@woff2@@YAIAEBUFont@2@@Z 00000001800db0fc     normalize.obj
 0002:000970fc       $unwind$_RTC_Initialize    00000001800db0fc     LIBCMT:_initsect_.obj
 0002:000970fc       $unwind$_RTC_Terminate     00000001800db0fc     LIBCMT:_initsect_.obj
 0002:000970fc       $unwind$?resize@?$vector@UFont@woff2@@V?$allocator@UFont@woff2@@@std@@@std@@QEAAX_K@Z 00000001800db0fc     font.obj
 0002:000970fc       $unwind$?type_case_s@?$output_processor@DV?$stream_output_adapter@D@__crt_stdio_output@@V?$standard_base@DV?$stream_output_adapter@D@__crt_stdio_output@@@2@@__crt_stdio_output@@AEAA_NXZ 00000001800db0fc     libucrt:output.obj
 0002:000970fc       $unwind$??$common_lseek_nolock@_J@@YA_JH_JH@Z 00000001800db0fc     libucrt:lseek.obj
 0002:000970fc       $unwind$?_Erase@?$_Tree@V?$_Tmap_traits@IGU?$less@I@std@@V?$allocator@U?$pair@$$CBIG@std@@@2@$0A@@std@@@std@@IEAAXPEAU?$_Tree_node@U?$pair@$$CBIG@std@@PEAX@2@@Z 00000001800db0fc     woff2_enc.obj
 0002:000970fc       $unwind$?type_case_Z@?$output_processor@DV?$stream_output_adapter@D@__crt_stdio_output@@V?$standard_base@DV?$stream_output_adapter@D@__crt_stdio_output@@@2@@__crt_stdio_output@@AEAA_NXZ 00000001800db0fc     libucrt:output.obj
 0002:000970fc       $unwind$_DllMainCRTStartup 00000001800db0fc     LIBCMT:dll_dllmain.obj
 0002:000970fc       $unwind$__acrt_execute_uninitializers 00000001800db0fc     libucrt:shared_initialization.obj
 0002:0009710c       $unwind$??0out_of_range@std@@QEAA@AEBV01@@Z 00000001800db10c     libcpmt:xthrow.obj
 0002:0009710c       $unwind$_purecall          00000001800db10c     libvcruntime:purevirt.obj
 0002:0009710c       $unwind$?Init@Hashers@brotli@@QEAAXH@Z 00000001800db10c     encode.obj
 0002:0009710c       $unwind$??_GBrotliMemOut@brotli@@UEAAPEAXI@Z 00000001800db10c     streams.obj
 0002:0009710c       $unwind$?type_case_integer@?$output_processor@_WV?$stream_output_adapter@_W@__crt_stdio_output@@V?$standard_base@_WV?$stream_output_adapter@_W@__crt_stdio_output@@@2@@__crt_stdio_output@@AEAA_NI_N@Z 00000001800db10c     libucrt:output.obj
 0002:0009710c       $unwind$??$_Insert_at@AEAU?$pair@$$CBIUTable@Font@woff2@@@std@@PEAU?$_Tree_node@U?$pair@$$CBIUTable@Font@woff2@@@std@@PEAX@2@@?$_Tree@V?$_Tmap_traits@IUTable@Font@woff2@@U?$less@I@std@@V?$allocator@U?$pair@$$CBIUTable@Font@woff2@@@std@@@5@$0A@@std@@@std@@IEAA?AV?$_Tree_iterator@V?$_Tree_val@U?$_Tree_simple_types@U?$pair@$$CBIUTable@Font@woff2@@@std@@@std@@@std@@@1@_NPEAU?$_Tree_node@U?$pair@$$CBIUTable@Font@woff2@@@std@@PEAX@1@AEAU?$pair@$$CBIUTable@Font@woff2@@@1@1@Z 00000001800db10c     font.obj
 0002:0009710c       $unwind$feholdexcept       00000001800db10c     libucrt:feholdexcept.obj
 0002:0009710c       $unwind$__std_type_info_destroy_list 00000001800db10c     libvcruntime:std_type_info.obj
 0002:0009710c       $unwind$?load_exe_hook@@YAP6A_JXZIPEAUDelayLoadInfo@@@Z 00000001800db10c     win_delay_load_hook.obj
 0002:0009710c       $unwind$fesetenv           00000001800db10c     libucrt:fesetenv.obj
 0002:0009710c       $unwind$?state_case_normal_tchar@?$output_processor@DV?$stream_output_adapter@D@__crt_stdio_output@@V?$standard_base@DV?$stream_output_adapter@D@__crt_stdio_output@@@2@@__crt_stdio_output@@AEAA_ND@Z 00000001800db10c     libucrt:output.obj
 0002:0009710c       $unwind$__std_exception_destroy 00000001800db10c     libvcruntime:std_exception.obj
 0002:0009710c       $unwind$??$_Insert_at@AEAU?$pair@$$CBEE@std@@PEAU?$_Tree_node@U?$pair@$$CBEE@std@@PEAX@2@@?$_Tree@V?$_Tmap_traits@EEU?$less@E@std@@V?$allocator@U?$pair@$$CBEE@std@@@2@$0A@@std@@@std@@IEAA?AV?$_Tree_iterator@V?$_Tree_val@U?$_Tree_simple_types@U?$pair@$$CBEE@std@@@std@@@std@@@1@_NPEAU?$_Tree_node@U?$pair@$$CBEE@std@@PEAX@1@AEAU?$pair@$$CBEE@1@1@Z 00000001800db10c     block_splitter.obj
 0002:0009710c       $unwind$__acrt_uninitialize_stdio 00000001800db10c     libucrt:_file.obj
 0002:0009710c       $unwind$__acrt_can_show_message_box 00000001800db10c     libucrt:winapi_thunks.obj
 0002:0009710c       $unwind$__acrt_freeptd     00000001800db10c     libucrt:per_thread_data.obj
 0002:0009710c       $unwind$_Init_thread_notify 00000001800db10c     LIBCMT:thread_safe_statics.obj
 0002:0009710c       $unwind$??$_Insert_at@AEAU?$pair@$$CBIPEAUTable@Font@woff2@@@std@@PEAU?$_Tree_node@U?$pair@$$CBIPEAUTable@Font@woff2@@@std@@PEAX@2@@?$_Tree@V?$_Tmap_traits@IPEAUTable@Font@woff2@@U?$less@I@std@@V?$allocator@U?$pair@$$CBIPEAUTable@Font@woff2@@@std@@@5@$0A@@std@@@std@@IEAA?AV?$_Tree_iterator@V?$_Tree_val@U?$_Tree_simple_types@U?$pair@$$CBIPEAUTable@Font@woff2@@@std@@@std@@@std@@@1@_NPEAU?$_Tree_node@U?$pair@$$CBIPEAUTable@Font@woff2@@@std@@PEAX@1@AEAU?$pair@$$CBIPEAUTable@Font@woff2@@@1@1@Z 00000001800db10c     font.obj
 0002:0009710c       $unwind$?state_case_normal@?$output_processor@DV?$stream_output_adapter@D@__crt_stdio_output@@V?$standard_base@DV?$stream_output_adapter@D@__crt_stdio_output@@@2@@__crt_stdio_output@@AEAA_NXZ 00000001800db10c     libucrt:output.obj
 0002:0009710c       $unwind$__vcrt_freeptd     00000001800db10c     libvcruntime:per_thread_data.obj
 0002:0009710c       $unwind$??1Hashers@brotli@@QEAA@XZ 00000001800db10c     encode.obj
 0002:0009710c       $unwind$_calloc_base       00000001800db10c     libucrt:calloc_base.obj
 0002:0009710c       $unwind$?_Reserve@?$vector@UTable@woff2@@V?$allocator@UTable@woff2@@@std@@@std@@IEAAX_K@Z 00000001800db10c     woff2_enc.obj
 0002:0009710c       $unwind$?exit_or_terminate_process@@YAXI@Z 00000001800db10c     libucrt:exit.obj
 0002:0009710c       $unwind$_Init_thread_footer 00000001800db10c     LIBCMT:thread_safe_statics.obj
 0002:0009710c       $unwind$__acrt_uninitialize_winapi_thunks 00000001800db10c     libucrt:winapi_thunks.obj
 0002:0009710c       $unwind$?type_case_integer@?$output_processor@DV?$stream_output_adapter@D@__crt_stdio_output@@V?$standard_base@DV?$stream_output_adapter@D@__crt_stdio_output@@@2@@__crt_stdio_output@@AEAA_NI_N@Z 00000001800db10c     libucrt:output.obj
 0002:0009710c       $unwind$?type_case_integer@?$output_processor@_WV?$string_output_adapter@_W@__crt_stdio_output@@V?$standard_base@_WV?$string_output_adapter@_W@__crt_stdio_output@@@2@@__crt_stdio_output@@AEAA_NI_N@Z 00000001800db10c     libucrt:output.obj
 0002:0009710c       $unwind$??0length_error@std@@QEAA@AEBV01@@Z 00000001800db10c     libcpmt:xthrow.obj
 0002:0009710c       $unwind$_malloc_base       00000001800db10c     libucrt:malloc_base.obj
 0002:0009710c       $unwind$?StoreTableEntry@?A0x683ef156@woff2@@YAXAEBUTable@2@PEA_KPEAE@Z 00000001800db10c     woff2_enc.obj
 0002:0009710c       $unwind$_IsExceptionObjectToBeDestroyed 00000001800db10c     libvcruntime:trnsctrl.obj
 0002:0009710c       $unwind$?DloadReleaseSectionWriteAccess@@YAXXZ 00000001800db10c     DelayImp:delayhlp.obj
 0002:0009710c       $unwind$__acrt_uninitialize_locks 00000001800db10c     libucrt:locks.obj
 0002:0009710c       $unwind$??2@YAPEAX_K@Z     00000001800db10c     LIBCMT:new_scalar.obj
 0002:0009710c       $unwind$_Init_thread_header 00000001800db10c     LIBCMT:thread_safe_statics.obj
 0002:0009710c       $unwind$??0logic_error@std@@QEAA@AEBV01@@Z 00000001800db10c     libcpmt:xthrow.obj
 0002:0009710c       $unwind$__acrt_stdio_free_buffer_nolock 00000001800db10c     libucrt:_freebuf.obj
 0002:0009710c       $unwind$??_GBrotliIn@brotli@@UEAAPEAXI@Z 00000001800db10c     encode.obj
 0002:0009710c       $unwind$__vcrt_initialize_locks 00000001800db10c     libvcruntime:locks.obj
 0002:0009710c       $unwind$??1?$basic_string@DU?$char_traits@D@std@@V?$allocator@D@2@@std@@QEAA@XZ 00000001800db10c     woff2_enc.obj
 0002:0009710c       $unwind$__acrt_initialize_locks 00000001800db10c     libucrt:locks.obj
 0002:0009710c       $unwind$_SetImageBase      00000001800db10c     libvcruntime:trnsctrl.obj
 0002:0009710c       $unwind$__vcrt_uninitialize_locks 00000001800db10c     libvcruntime:locks.obj
 0002:0009710c       $unwind$?NormalizeWithoutFixingChecksums@woff2@@YA_NPEAUFont@1@@Z 00000001800db10c     normalize.obj
 0002:0009710c       $unwind$??$_Insert_at@AEAU?$pair@$$CBIG@std@@PEAU?$_Tree_node@U?$pair@$$CBIG@std@@PEAX@2@@?$_Tree@V?$_Tmap_traits@IGU?$less@I@std@@V?$allocator@U?$pair@$$CBIG@std@@@2@$0A@@std@@@std@@IEAA?AV?$_Tree_iterator@V?$_Tree_val@U?$_Tree_simple_types@U?$pair@$$CBIG@std@@@std@@@std@@@1@_NPEAU?$_Tree_node@U?$pair@$$CBIG@std@@PEAX@1@AEAU?$pair@$$CBIG@1@1@Z 00000001800db10c     woff2_enc.obj
 0002:0009710c       $unwind$_CreateFrameInfo   00000001800db10c     libvcruntime:trnsctrl.obj
 0002:0009710c       $unwind$??$_Insert_at@AEAU?$pair@$$CBII@std@@PEAU?$_Tree_node@U?$pair@$$CBII@std@@PEAX@2@@?$_Tree@V?$_Tmap_traits@IIU?$less@I@std@@V?$allocator@U?$pair@$$CBII@std@@@2@$0A@@std@@@std@@IEAA?AV?$_Tree_iterator@V?$_Tree_val@U?$_Tree_simple_types@U?$pair@$$CBII@std@@@std@@@std@@@1@_NPEAU?$_Tree_node@U?$pair@$$CBII@std@@PEAX@1@AEAU?$pair@$$CBII@1@1@Z 00000001800db10c     font.obj
 0002:0009710c       $unwind$??0bad_alloc@std@@QEAA@AEBV01@@Z 00000001800db10c     libcpmt:xthrow.obj
 0002:0009710c       $unwind$_onexit            00000001800db10c     LIBCMT:utility.obj
 0002:0009710c       $unwind$wcscat_s           00000001800db10c     libucrt:wcscat_s.obj
 0002:0009710c       $unwind$_set_statfp        00000001800db10c     libucrt:fpctrl.obj
 0002:0009710c       $unwind$??0exception@std@@QEAA@AEBV01@@Z 00000001800db10c     libcpmt:xthrow.obj
 0002:0009710c       $unwind$??_GBrotliMemIn@brotli@@UEAAPEAXI@Z 00000001800db10c     streams.obj
 0002:0009710c       $unwind$??_GBrotliOut@brotli@@UEAAPEAXI@Z 00000001800db10c     encode.obj
 0002:0009710c       $unwind$wcscpy_s           00000001800db10c     libucrt:wcscpy_s.obj
 0002:0009710c       $unwind$??_Gtype_info@@UEAAPEAXI@Z 00000001800db10c     LIBCMT:std_type_info_static.obj
 0002:0009710c       $unwind$??0bad_exception@std@@QEAA@AEBV01@@Z 00000001800db10c     libvcruntime:frame.obj
 0002:0009710c       $unwind$initialize_pointers 00000001800db10c     libucrt:initialization.obj
 0002:0009710c       $unwind$??0?$output_processor@_WV?$string_output_adapter@_W@__crt_stdio_output@@V?$standard_base@_WV?$string_output_adapter@_W@__crt_stdio_output@@@2@@__crt_stdio_output@@QEAA@AEBV?$string_output_adapter@_W@1@_KQEB_WQEAU__crt_locale_pointers@@QEAD@Z 00000001800db10c     libucrt:output.obj
 0002:0009710c       $unwind$__acrt_allocate_buffer_for_argv 00000001800db10c     libucrt:argv_parsing.obj
 0002:0009710c       $unwind$__acrt_update_locale_info 00000001800db10c     libucrt:locale_update.obj
 0002:0009710c       $unwind$??0?$output_processor@DV?$stream_output_adapter@D@__crt_stdio_output@@V?$standard_base@DV?$stream_output_adapter@D@__crt_stdio_output@@@2@@__crt_stdio_output@@QEAA@AEBV?$stream_output_adapter@D@1@_KQEBDQEAU__crt_locale_pointers@@QEAD@Z 00000001800db10c     libucrt:output.obj
 0002:0009710c       $unwind$__acrt_update_multibyte_info 00000001800db10c     libucrt:locale_update.obj
 0002:0009710c       $unwind$uninitialize_allocated_memory 00000001800db10c     libucrt:initialization.obj
 0002:0009710c       $unwind$__scrt_release_startup_lock 00000001800db10c     LIBCMT:utility.obj
 0002:0009710c       $unwind$__scrt_initialize_crt 00000001800db10c     LIBCMT:utility.obj
 0002:0009710c       $unwind$?__StateFromIp@@YAHPEBU_s_FuncInfo@@PEAU_xDISPATCHER_CONTEXT@@_J@Z 00000001800db10c     libvcruntime:ehstate.obj
 0002:0009710c       $unwind$strcpy_s           00000001800db10c     libucrt:strcpy_s.obj
 0002:0009710c       $unwind$??0?$output_processor@_WV?$stream_output_adapter@_W@__crt_stdio_output@@V?$standard_base@_WV?$stream_output_adapter@_W@__crt_stdio_output@@@2@@__crt_stdio_output@@QEAA@AEBV?$stream_output_adapter@_W@1@_KQEB_WQEAU__crt_locale_pointers@@QEAD@Z 00000001800db10c     libucrt:output.obj
 0002:0009710c       $unwind$__acrt_stdio_allocate_buffer_nolock 00000001800db10c     libucrt:_getbuf.obj
 0002:0009710c       $unwind$??$_Insert_at@AEAU?$pair@$$CBHH@std@@PEAU?$_Tree_node@U?$pair@$$CBHH@std@@PEAX@2@@?$_Tree@V?$_Tmap_traits@HHU?$less@H@std@@V?$allocator@U?$pair@$$CBHH@std@@@2@$0A@@std@@@std@@IEAA?AV?$_Tree_iterator@V?$_Tree_val@U?$_Tree_simple_types@U?$pair@$$CBHH@std@@@std@@@std@@@1@_NPEAU?$_Tree_node@U?$pair@$$CBHH@std@@PEAX@1@AEAU?$pair@$$CBHH@1@1@Z 00000001800db10c     block_splitter.obj
 0002:0009710c       $unwind$_clearfp           00000001800db10c     libucrt:ieee.obj
 0002:0009710c       $unwind$_SetThrowImageBase 00000001800db10c     libvcruntime:trnsctrl.obj
 0002:0009710c       $unwind$??$message_box_wait_thread@_W@@YAKQEAX@Z 00000001800db10c     libucrt:crtmbox.obj
 0002:0009710c       $unwind$fegetenv           00000001800db10c     libucrt:fegetenv.obj
 0002:0009710c       $unwind$__raise_securityfailure 00000001800db10c     LIBCMT:gs_report.obj
 0002:0009710c       $unwind$__acrt_fp_strflt_to_string 00000001800db10c     libucrt:_fptostr.obj
 0002:0009710c       $unwind$_fflush_nolock     00000001800db10c     libucrt:fflush.obj
 0002:0009710c       $unwind$__scrt_uninitialize_crt 00000001800db10c     LIBCMT:utility.obj
 0002:0009710c       $unwind$_clrfp             00000001800db10c     libucrt:fpctrl.obj
 0002:0009710c       $unwind$??0bad_array_new_length@std@@QEAA@AEBV01@@Z 00000001800db10c     LIBCMT:throw_bad_alloc.obj
 0002:0009710c       $unwind$_setfpstatusword   00000001800db10c     libucrt:_fenvutils.obj
 0002:0009710c       $unwind$?_Tidy@?$vector@EV?$allocator@E@std@@@std@@IEAAXXZ 00000001800db10c     glyph.obj
 0002:0009710c       $unwind$?__GetUnwindTryBlock@@YAHPEA_KPEAU_xDISPATCHER_CONTEXT@@PEBU_s_FuncInfo@@@Z 00000001800db10c     libvcruntime:ehstate.obj
 0002:00097114       $unwind$?_Reserve@?$vector@U?$Histogram@$0CAI@@brotli@@V?$allocator@U?$Histogram@$0CAI@@brotli@@@std@@@std@@IEAAX_K@Z 00000001800db114     block_splitter.obj
 0002:00097114       $unwind$?_Reserve@?$vector@U?$Histogram@$0BAA@@brotli@@V?$allocator@U?$Histogram@$0BAA@@brotli@@@std@@@std@@IEAAX_K@Z 00000001800db114     block_splitter.obj
 0002:00097114       $unwind$?_Reserve@?$vector@V?$vector@UPoint@Glyph@woff2@@V?$allocator@UPoint@Glyph@woff2@@@std@@@std@@V?$allocator@V?$vector@UPoint@Glyph@woff2@@V?$allocator@UPoint@Glyph@woff2@@@std@@@std@@@2@@std@@IEAAX_K@Z 00000001800db114     glyph.obj
 0002:00097114       $unwind$?_Reserve@?$vector@U?$Histogram@$0CMA@@brotli@@V?$allocator@U?$Histogram@$0CMA@@brotli@@@std@@@std@@IEAAX_K@Z 00000001800db114     block_splitter.obj
 0002:00097114       $unwind$?_Reserve@?$vector@UPoint@Glyph@woff2@@V?$allocator@UPoint@Glyph@woff2@@@std@@@std@@IEAAX_K@Z 00000001800db114     glyph.obj
 0002:00097114       $unwind$?_Reserve@?$vector@UFont@woff2@@V?$allocator@UFont@woff2@@@std@@@std@@IEAAX_K@Z 00000001800db114     font.obj
 0002:0009711c       $unwind$??R<lambda_b721fa326cdb32351d23dfa67958c160>@@QEBAHXZ 00000001800db11c     libucrt:setvbuf.obj
 0002:0009711c       $unwind$?_Reallocate@?$vector@UTable@woff2@@V?$allocator@UTable@woff2@@@std@@@std@@IEAAX_K@Z 00000001800db11c     woff2_enc.obj
 0002:0009711c       $unwind$?_Reallocate@?$vector@IV?$allocator@I@std@@@std@@IEAAX_K@Z 00000001800db11c     font.obj
 0002:0009711c       $unwind$?_Reallocate@?$vector@HV?$allocator@H@std@@@std@@IEAAX_K@Z 00000001800db11c     block_splitter.obj
 0002:0009711c       $unwind$?type_case_c_tchar@?$output_processor@_WV?$string_output_adapter@_W@__crt_stdio_output@@V?$standard_base@_WV?$string_output_adapter@_W@__crt_stdio_output@@@2@@__crt_stdio_output@@AEAA_N_W@Z 00000001800db11c     libucrt:output.obj
 0002:0009711c       $unwind$?_Reallocate@?$vector@GV?$allocator@G@std@@@std@@IEAAX_K@Z 00000001800db11c     block_splitter.obj
 0002:0009711c       $unwind$?_Reallocate@?$vector@UPoint@Glyph@woff2@@V?$allocator@UPoint@Glyph@woff2@@@std@@@std@@IEAAX_K@Z 00000001800db11c     glyph.obj
 0002:0009711c       $unwind$?_Reallocate@?$vector@EV?$allocator@E@std@@@std@@IEAAX_K@Z 00000001800db11c     glyph.obj
 0002:0009711c       $unwind$?type_case_c_tchar@?$output_processor@_WV?$stream_output_adapter@_W@__crt_stdio_output@@V?$standard_base@_WV?$stream_output_adapter@_W@__crt_stdio_output@@@2@@__crt_stdio_output@@AEAA_N_W@Z 00000001800db11c     libucrt:output.obj
 0002:0009711c       $unwind$?_Erase@?$_Tree@V?$_Tmap_traits@IUTable@Font@woff2@@U?$less@I@std@@V?$allocator@U?$pair@$$CBIUTable@Font@woff2@@@std@@@5@$0A@@std@@@std@@IEAAXPEAU?$_Tree_node@U?$pair@$$CBIUTable@Font@woff2@@@std@@PEAX@2@@Z 00000001800db11c     font.obj
 0002:0009712c       $chain$0$?_Reallocate@?$vector@EV?$allocator@E@std@@@std@@IEAAX_K@Z 00000001800db12c     glyph.obj
 0002:00097140       $chain$1$?_Reallocate@?$vector@EV?$allocator@E@std@@@std@@IEAAX_K@Z 00000001800db140     glyph.obj
 0002:00097150       $chain$2$?_Reallocate@?$vector@EV?$allocator@E@std@@@std@@IEAAX_K@Z 00000001800db150     glyph.obj
 0002:00097164       $unwind$?parse_int_from_format_string@?$output_processor@_WV?$stream_output_adapter@_W@__crt_stdio_output@@V?$standard_base@_WV?$stream_output_adapter@_W@__crt_stdio_output@@@2@@__crt_stdio_output@@AEAA_NQEAH@Z 00000001800db164     libucrt:output.obj
 0002:00097164       $unwind$?parse_int_from_format_string@?$output_processor@_WV?$string_output_adapter@_W@__crt_stdio_output@@V?$standard_base@_WV?$string_output_adapter@_W@__crt_stdio_output@@@2@@__crt_stdio_output@@AEAA_NQEAH@Z 00000001800db164     libucrt:output.obj
 0002:00097164       $unwind$?_Reallocate@?$vector@V?$vector@UPoint@Glyph@woff2@@V?$allocator@UPoint@Glyph@woff2@@@std@@@std@@V?$allocator@V?$vector@UPoint@Glyph@woff2@@V?$allocator@UPoint@Glyph@woff2@@@std@@@std@@@2@@std@@IEAAX_K@Z 00000001800db164     glyph.obj
 0002:00097178       $chain$0$?_Reallocate@?$vector@V?$vector@UPoint@Glyph@woff2@@V?$allocator@UPoint@Glyph@woff2@@@std@@@std@@V?$allocator@V?$vector@UPoint@Glyph@woff2@@V?$allocator@UPoint@Glyph@woff2@@@std@@@std@@@2@@std@@IEAAX_K@Z 00000001800db178     glyph.obj
 0002:0009718c       $chain$1$?_Reallocate@?$vector@V?$vector@UPoint@Glyph@woff2@@V?$allocator@UPoint@Glyph@woff2@@@std@@@std@@V?$allocator@V?$vector@UPoint@Glyph@woff2@@V?$allocator@UPoint@Glyph@woff2@@@std@@@std@@@2@@std@@IEAAX_K@Z 00000001800db18c     glyph.obj
 0002:0009719c       $chain$0$?_Reallocate@?$vector@UPoint@Glyph@woff2@@V?$allocator@UPoint@Glyph@woff2@@@std@@@std@@IEAAX_K@Z 00000001800db19c     glyph.obj
 0002:000971b0       $chain$1$?_Reallocate@?$vector@UPoint@Glyph@woff2@@V?$allocator@UPoint@Glyph@woff2@@@std@@@std@@IEAAX_K@Z 00000001800db1b0     glyph.obj
 0002:000971c0       $unwind$??$_Destroy_range1@V?$allocator@V?$vector@EV?$allocator@E@std@@@std@@@std@@PEAV?$vector@EV?$allocator@E@std@@@2@@std@@YAXPEAV?$vector@EV?$allocator@E@std@@@0@0AEAU?$_Wrap_alloc@V?$allocator@V?$vector@EV?$allocator@E@std@@@std@@@std@@@0@U?$integral_constant@_N$0A@@0@@Z 00000001800db1c0     glyph.obj
 0002:000971c0       $unwind$??$_Uninitialized_default_fill_n@PEAU?$Histogram@$0BAA@@brotli@@_KV?$allocator@U?$Histogram@$0BAA@@brotli@@@std@@@std@@YAXPEAU?$Histogram@$0BAA@@brotli@@_KAEAU?$_Wrap_alloc@V?$allocator@U?$Histogram@$0BAA@@brotli@@@std@@@0@@Z 00000001800db1c0     block_splitter.obj
 0002:000971c0       $unwind$??$_Uninitialized_default_fill_n@PEAU?$Histogram@$0CAI@@brotli@@_KV?$allocator@U?$Histogram@$0CAI@@brotli@@@std@@@std@@YAXPEAU?$Histogram@$0CAI@@brotli@@_KAEAU?$_Wrap_alloc@V?$allocator@U?$Histogram@$0CAI@@brotli@@@std@@@0@@Z 00000001800db1c0     block_splitter.obj
 0002:000971cc       $chain$0$??$_Destroy_range1@V?$allocator@V?$vector@EV?$allocator@E@std@@@std@@@std@@PEAV?$vector@EV?$allocator@E@std@@@2@@std@@YAXPEAV?$vector@EV?$allocator@E@std@@@0@0AEAU?$_Wrap_alloc@V?$allocator@V?$vector@EV?$allocator@E@std@@@std@@@std@@@0@U?$integral_constant@_N$0A@@0@@Z 00000001800db1cc     glyph.obj
 0002:000971e0       $chain$1$??$_Destroy_range1@V?$allocator@V?$vector@EV?$allocator@E@std@@@std@@@std@@PEAV?$vector@EV?$allocator@E@std@@@2@@std@@YAXPEAV?$vector@EV?$allocator@E@std@@@0@0AEAU?$_Wrap_alloc@V?$allocator@V?$vector@EV?$allocator@E@std@@@std@@@std@@@0@U?$integral_constant@_N$0A@@0@@Z 00000001800db1e0     glyph.obj
 0002:000971f0       $chain$2$??$_Destroy_range1@V?$allocator@V?$vector@EV?$allocator@E@std@@@std@@@std@@PEAV?$vector@EV?$allocator@E@std@@@2@@std@@YAXPEAV?$vector@EV?$allocator@E@std@@@0@0AEAU?$_Wrap_alloc@V?$allocator@V?$vector@EV?$allocator@E@std@@@std@@@std@@@0@U?$integral_constant@_N$0A@@0@@Z 00000001800db1f0     glyph.obj
 0002:00097204       $unwind$??$_Destroy_range1@V?$allocator@V?$vector@UPoint@Glyph@woff2@@V?$allocator@UPoint@Glyph@woff2@@@std@@@std@@@std@@PEAV?$vector@UPoint@Glyph@woff2@@V?$allocator@UPoint@Glyph@woff2@@@std@@@2@@std@@YAXPEAV?$vector@UPoint@Glyph@woff2@@V?$allocator@UPoint@Glyph@woff2@@@std@@@0@0AEAU?$_Wrap_alloc@V?$allocator@V?$vector@UPoint@Glyph@woff2@@V?$allocator@UPoint@Glyph@woff2@@@std@@@std@@@std@@@0@U?$integral_constant@_N$0A@@0@@Z 00000001800db204     glyph.obj
 0002:00097210       $chain$2$??$_Destroy_range1@V?$allocator@V?$vector@UPoint@Glyph@woff2@@V?$allocator@UPoint@Glyph@woff2@@@std@@@std@@@std@@PEAV?$vector@UPoint@Glyph@woff2@@V?$allocator@UPoint@Glyph@woff2@@@std@@@2@@std@@YAXPEAV?$vector@UPoint@Glyph@woff2@@V?$allocator@UPoint@Glyph@woff2@@@std@@@0@0AEAU?$_Wrap_alloc@V?$allocator@V?$vector@UPoint@Glyph@woff2@@V?$allocator@UPoint@Glyph@woff2@@@std@@@std@@@std@@@0@U?$integral_constant@_N$0A@@0@@Z 00000001800db210     glyph.obj
 0002:0009722c       $chain$3$??$_Destroy_range1@V?$allocator@V?$vector@UPoint@Glyph@woff2@@V?$allocator@UPoint@Glyph@woff2@@@std@@@std@@@std@@PEAV?$vector@UPoint@Glyph@woff2@@V?$allocator@UPoint@Glyph@woff2@@@std@@@2@@std@@YAXPEAV?$vector@UPoint@Glyph@woff2@@V?$allocator@UPoint@Glyph@woff2@@@std@@@0@0AEAU?$_Wrap_alloc@V?$allocator@V?$vector@UPoint@Glyph@woff2@@V?$allocator@UPoint@Glyph@woff2@@@std@@@std@@@std@@@0@U?$integral_constant@_N$0A@@0@@Z 00000001800db22c     glyph.obj
 0002:0009723c       $chain$4$??$_Destroy_range1@V?$allocator@V?$vector@UPoint@Glyph@woff2@@V?$allocator@UPoint@Glyph@woff2@@@std@@@std@@@std@@PEAV?$vector@UPoint@Glyph@woff2@@V?$allocator@UPoint@Glyph@woff2@@@std@@@2@@std@@YAXPEAV?$vector@UPoint@Glyph@woff2@@V?$allocator@UPoint@Glyph@woff2@@@std@@@0@0AEAU?$_Wrap_alloc@V?$allocator@V?$vector@UPoint@Glyph@woff2@@V?$allocator@UPoint@Glyph@woff2@@@std@@@std@@@std@@@0@U?$integral_constant@_N$0A@@0@@Z 00000001800db23c     glyph.obj
 0002:00097258       $unwind$?Log2Floor@brotli@@YAHI@Z 00000001800db258     backward_references.obj
 0002:00097258       $unwind$?Log2Floor@woff2@@YAHI@Z 00000001800db258     font.obj
 0002:00097264       $unwind$?OutputOrderedTags@Font@woff2@@QEBA?AV?$vector@IV?$allocator@I@std@@@std@@XZ 00000001800db264     font.obj
 0002:00097274       $chain$0$?OutputOrderedTags@Font@woff2@@QEBA?AV?$vector@IV?$allocator@I@std@@@std@@XZ 00000001800db274     font.obj
 0002:00097288       $chain$1$?OutputOrderedTags@Font@woff2@@QEBA?AV?$vector@IV?$allocator@I@std@@@std@@XZ 00000001800db288     font.obj
 0002:00097298       $unwind$?ReadTrueTypeFont@woff2@@YA_NPEAVBuffer@1@PEBE_KPEAUFont@1@@Z 00000001800db298     font.obj
 0002:000972ac       $chain$2$?ReadTrueTypeFont@woff2@@YA_NPEAVBuffer@1@PEBE_KPEAUFont@1@@Z 00000001800db2ac     font.obj
 0002:000972c8       $chain$3$?ReadTrueTypeFont@woff2@@YA_NPEAVBuffer@1@PEBE_KPEAUFont@1@@Z 00000001800db2c8     font.obj
 0002:000972d8       $chain$4$?ReadTrueTypeFont@woff2@@YA_NPEAVBuffer@1@PEBE_KPEAUFont@1@@Z 00000001800db2d8     font.obj
 0002:000972f4       $unwind$?ReadCollectionFont@woff2@@YA_NPEAVBuffer@1@PEBE_KPEAUFont@1@PEAV?$map@IPEAUTable@Font@woff2@@U?$less@I@std@@V?$allocator@U?$pair@$$CBIPEAUTable@Font@woff2@@@std@@@5@@std@@@Z 00000001800db2f4     font.obj
 0002:000972fc       $chain$1$?ReadCollectionFont@woff2@@YA_NPEAVBuffer@1@PEBE_KPEAUFont@1@PEAV?$map@IPEAUTable@Font@woff2@@U?$less@I@std@@V?$allocator@U?$pair@$$CBIPEAUTable@Font@woff2@@@std@@@5@@std@@@Z 00000001800db2fc     font.obj
 0002:00097314       $chain$4$?ReadCollectionFont@woff2@@YA_NPEAVBuffer@1@PEBE_KPEAUFont@1@PEAV?$map@IPEAUTable@Font@woff2@@U?$less@I@std@@V?$allocator@U?$pair@$$CBIPEAUTable@Font@woff2@@@std@@@5@@std@@@Z 00000001800db314     font.obj
 0002:00097330       $chain$5$?ReadCollectionFont@woff2@@YA_NPEAVBuffer@1@PEBE_KPEAUFont@1@PEAV?$map@IPEAUTable@Font@woff2@@U?$less@I@std@@V?$allocator@U?$pair@$$CBIPEAUTable@Font@woff2@@@std@@@5@@std@@@Z 00000001800db330     font.obj
 0002:00097340       $chain$6$?ReadCollectionFont@woff2@@YA_NPEAVBuffer@1@PEBE_KPEAUFont@1@PEAV?$map@IPEAUTable@Font@woff2@@U?$less@I@std@@V?$allocator@U?$pair@$$CBIPEAUTable@Font@woff2@@@std@@@5@@std@@@Z 00000001800db340     font.obj
 0002:00097350       $unwind$?ReadTrueTypeCollection@woff2@@YA_NPEAVBuffer@1@PEBE_KPEAUFontCollection@1@@Z 00000001800db350     font.obj
 0002:0009735c       $chain$5$?ReadTrueTypeCollection@woff2@@YA_NPEAVBuffer@1@PEBE_KPEAUFontCollection@1@@Z 00000001800db35c     font.obj
 0002:00097384       $chain$6$?ReadTrueTypeCollection@woff2@@YA_NPEAVBuffer@1@PEBE_KPEAUFontCollection@1@@Z 00000001800db384     font.obj
 0002:00097394       $chain$7$?ReadTrueTypeCollection@woff2@@YA_NPEAVBuffer@1@PEBE_KPEAUFontCollection@1@@Z 00000001800db394     font.obj
 0002:000973bc       $unwind$?GetGlyphData@woff2@@YA_NAEBUFont@1@HPEAPEBEPEA_K@Z 00000001800db3bc     font.obj
 0002:000973d4       $unwind$?erase@?$_Tree@V?$_Tmap_traits@IUTable@Font@woff2@@U?$less@I@std@@V?$allocator@U?$pair@$$CBIUTable@Font@woff2@@@std@@@5@$0A@@std@@@std@@QEAA?AV?$_Tree_iterator@V?$_Tree_val@U?$_Tree_simple_types@U?$pair@$$CBIUTable@Font@woff2@@@std@@@std@@@std@@@2@V?$_Tree_const_iterator@V?$_Tree_val@U?$_Tree_simple_types@U?$pair@$$CBIUTable@Font@woff2@@@std@@@std@@@std@@@2@@Z 00000001800db3d4     font.obj
 0002:000973e4       $chain$0$?erase@?$_Tree@V?$_Tmap_traits@IUTable@Font@woff2@@U?$less@I@std@@V?$allocator@U?$pair@$$CBIUTable@Font@woff2@@@std@@@5@$0A@@std@@@std@@QEAA?AV?$_Tree_iterator@V?$_Tree_val@U?$_Tree_simple_types@U?$pair@$$CBIUTable@Font@woff2@@@std@@@std@@@std@@@2@V?$_Tree_const_iterator@V?$_Tree_val@U?$_Tree_simple_types@U?$pair@$$CBIUTable@Font@woff2@@@std@@@std@@@std@@@2@@Z 00000001800db3e4     font.obj
 0002:000973f8       $chain$1$?erase@?$_Tree@V?$_Tmap_traits@IUTable@Font@woff2@@U?$less@I@std@@V?$allocator@U?$pair@$$CBIUTable@Font@woff2@@@std@@@5@$0A@@std@@@std@@QEAA?AV?$_Tree_iterator@V?$_Tree_val@U?$_Tree_simple_types@U?$pair@$$CBIUTable@Font@woff2@@@std@@@std@@@std@@@2@V?$_Tree_const_iterator@V?$_Tree_val@U?$_Tree_simple_types@U?$pair@$$CBIUTable@Font@woff2@@@std@@@std@@@std@@@2@@Z 00000001800db3f8     font.obj
 0002:00097408       $unwind$??4?$vector@EV?$allocator@E@std@@@std@@QEAAAEAV01@AEBV01@@Z 00000001800db408     font.obj
 0002:00097414       $chain$0$??4?$vector@EV?$allocator@E@std@@@std@@QEAAAEAV01@AEBV01@@Z 00000001800db414     font.obj
 0002:00097428       $chain$1$??4?$vector@EV?$allocator@E@std@@@std@@QEAAAEAV01@AEBV01@@Z 00000001800db428     font.obj
 0002:0009743c       $chain$2$??4?$vector@EV?$allocator@E@std@@@std@@QEAAAEAV01@AEBV01@@Z 00000001800db43c     font.obj
 0002:0009744c       $chain$3$??4?$vector@EV?$allocator@E@std@@@std@@QEAAAEAV01@AEBV01@@Z 00000001800db44c     font.obj
 0002:0009745c       $unwind$?_Tidy@?$vector@UFont@woff2@@V?$allocator@UFont@woff2@@@std@@@std@@IEAAXXZ 00000001800db45c     font.obj
 0002:00097468       $chain$0$?_Tidy@?$vector@UFont@woff2@@V?$allocator@UFont@woff2@@@std@@@std@@IEAAXXZ 00000001800db468     font.obj
 0002:0009747c       $chain$1$?_Tidy@?$vector@UFont@woff2@@V?$allocator@UFont@woff2@@@std@@@std@@IEAAXXZ 00000001800db47c     font.obj
 0002:00097490       $chain$2$?_Tidy@?$vector@UFont@woff2@@V?$allocator@UFont@woff2@@@std@@@std@@IEAAXXZ 00000001800db490     font.obj
 0002:000974a0       $chain$3$?_Tidy@?$vector@UFont@woff2@@V?$allocator@UFont@woff2@@@std@@@std@@IEAAXXZ 00000001800db4a0     font.obj
 0002:000974b0       $unwind$?_Pop_back_n@?$vector@UFont@woff2@@V?$allocator@UFont@woff2@@@std@@@std@@QEAAX_K@Z 00000001800db4b0     font.obj
 0002:000974c0       $chain$0$?_Pop_back_n@?$vector@UFont@woff2@@V?$allocator@UFont@woff2@@@std@@@std@@QEAAX_K@Z 00000001800db4c0     font.obj
 0002:000974d4       $chain$1$?_Pop_back_n@?$vector@UFont@woff2@@V?$allocator@UFont@woff2@@@std@@@std@@QEAAX_K@Z 00000001800db4d4     font.obj
 0002:000974e4       $unwind$?erase@?$_Tree@V?$_Tmap_traits@IIU?$less@I@std@@V?$allocator@U?$pair@$$CBII@std@@@2@$0A@@std@@@std@@QEAA?AV?$_Tree_iterator@V?$_Tree_val@U?$_Tree_simple_types@U?$pair@$$CBII@std@@@std@@@std@@@2@V?$_Tree_const_iterator@V?$_Tree_val@U?$_Tree_simple_types@U?$pair@$$CBII@std@@@std@@@std@@@2@0@Z 00000001800db4e4     font.obj
 0002:000974e4       $unwind$?erase@?$_Tree@V?$_Tmap_traits@EEU?$less@E@std@@V?$allocator@U?$pair@$$CBEE@std@@@2@$0A@@std@@@std@@QEAA?AV?$_Tree_iterator@V?$_Tree_val@U?$_Tree_simple_types@U?$pair@$$CBEE@std@@@std@@@std@@@2@V?$_Tree_const_iterator@V?$_Tree_val@U?$_Tree_simple_types@U?$pair@$$CBEE@std@@@std@@@std@@@2@0@Z 00000001800db4e4     block_splitter.obj
 0002:000974e4       $unwind$?erase@?$_Tree@V?$_Tset_traits@HU?$less@H@std@@V?$allocator@H@2@$0A@@std@@@std@@QEAA?AV?$_Tree_const_iterator@V?$_Tree_val@U?$_Tree_simple_types@H@std@@@std@@@2@V32@0@Z 00000001800db4e4     block_splitter.obj
 0002:000974e4       $unwind$?erase@?$_Tree@V?$_Tmap_traits@HHU?$less@H@std@@V?$allocator@U?$pair@$$CBHH@std@@@2@$0A@@std@@@std@@QEAA?AV?$_Tree_iterator@V?$_Tree_val@U?$_Tree_simple_types@U?$pair@$$CBHH@std@@@std@@@std@@@2@V?$_Tree_const_iterator@V?$_Tree_val@U?$_Tree_simple_types@U?$pair@$$CBHH@std@@@std@@@std@@@2@0@Z 00000001800db4e4     block_splitter.obj
 0002:000974e4       $unwind$?erase@?$_Tree@V?$_Tmap_traits@IPEAUTable@Font@woff2@@U?$less@I@std@@V?$allocator@U?$pair@$$CBIPEAUTable@Font@woff2@@@std@@@5@$0A@@std@@@std@@QEAA?AV?$_Tree_iterator@V?$_Tree_val@U?$_Tree_simple_types@U?$pair@$$CBIPEAUTable@Font@woff2@@@std@@@std@@@std@@@2@V?$_Tree_const_iterator@V?$_Tree_val@U?$_Tree_simple_types@U?$pair@$$CBIPEAUTable@Font@woff2@@@std@@@std@@@std@@@2@0@Z 00000001800db4e4     font.obj
 0002:000974e4       $unwind$?erase@?$_Tree@V?$_Tmap_traits@IGU?$less@I@std@@V?$allocator@U?$pair@$$CBIG@std@@@2@$0A@@std@@@std@@QEAA?AV?$_Tree_iterator@V?$_Tree_val@U?$_Tree_simple_types@U?$pair@$$CBIG@std@@@std@@@std@@@2@V?$_Tree_const_iterator@V?$_Tree_val@U?$_Tree_simple_types@U?$pair@$$CBIG@std@@@std@@@std@@@2@0@Z 00000001800db4e4     woff2_enc.obj
 0002:000974f0       $chain$0$?erase@?$_Tree@V?$_Tmap_traits@IIU?$less@I@std@@V?$allocator@U?$pair@$$CBII@std@@@2@$0A@@std@@@std@@QEAA?AV?$_Tree_iterator@V?$_Tree_val@U?$_Tree_simple_types@U?$pair@$$CBII@std@@@std@@@std@@@2@V?$_Tree_const_iterator@V?$_Tree_val@U?$_Tree_simple_types@U?$pair@$$CBII@std@@@std@@@std@@@2@0@Z 00000001800db4f0     font.obj
 0002:000974f0       $chain$0$?erase@?$_Tree@V?$_Tmap_traits@IGU?$less@I@std@@V?$allocator@U?$pair@$$CBIG@std@@@2@$0A@@std@@@std@@QEAA?AV?$_Tree_iterator@V?$_Tree_val@U?$_Tree_simple_types@U?$pair@$$CBIG@std@@@std@@@std@@@2@V?$_Tree_const_iterator@V?$_Tree_val@U?$_Tree_simple_types@U?$pair@$$CBIG@std@@@std@@@std@@@2@0@Z 00000001800db4f0     woff2_enc.obj
 0002:000974f0       $chain$0$?erase@?$_Tree@V?$_Tmap_traits@EEU?$less@E@std@@V?$allocator@U?$pair@$$CBEE@std@@@2@$0A@@std@@@std@@QEAA?AV?$_Tree_iterator@V?$_Tree_val@U?$_Tree_simple_types@U?$pair@$$CBEE@std@@@std@@@std@@@2@V?$_Tree_const_iterator@V?$_Tree_val@U?$_Tree_simple_types@U?$pair@$$CBEE@std@@@std@@@std@@@2@0@Z 00000001800db4f0     block_splitter.obj
 0002:000974f0       $chain$0$?erase@?$_Tree@V?$_Tmap_traits@HHU?$less@H@std@@V?$allocator@U?$pair@$$CBHH@std@@@2@$0A@@std@@@std@@QEAA?AV?$_Tree_iterator@V?$_Tree_val@U?$_Tree_simple_types@U?$pair@$$CBHH@std@@@std@@@std@@@2@V?$_Tree_const_iterator@V?$_Tree_val@U?$_Tree_simple_types@U?$pair@$$CBHH@std@@@std@@@std@@@2@0@Z 00000001800db4f0     block_splitter.obj
 0002:000974f0       $chain$0$?erase@?$_Tree@V?$_Tset_traits@HU?$less@H@std@@V?$allocator@H@2@$0A@@std@@@std@@QEAA?AV?$_Tree_const_iterator@V?$_Tree_val@U?$_Tree_simple_types@H@std@@@std@@@2@V32@0@Z 00000001800db4f0     block_splitter.obj
 0002:000974f0       $chain$0$?erase@?$_Tree@V?$_Tmap_traits@IPEAUTable@Font@woff2@@U?$less@I@std@@V?$allocator@U?$pair@$$CBIPEAUTable@Font@woff2@@@std@@@5@$0A@@std@@@std@@QEAA?AV?$_Tree_iterator@V?$_Tree_val@U?$_Tree_simple_types@U?$pair@$$CBIPEAUTable@Font@woff2@@@std@@@std@@@std@@@2@V?$_Tree_const_iterator@V?$_Tree_val@U?$_Tree_simple_types@U?$pair@$$CBIPEAUTable@Font@woff2@@@std@@@std@@@std@@@2@0@Z 00000001800db4f0     font.obj
 0002:00097504       $chain$1$?erase@?$_Tree@V?$_Tmap_traits@EEU?$less@E@std@@V?$allocator@U?$pair@$$CBEE@std@@@2@$0A@@std@@@std@@QEAA?AV?$_Tree_iterator@V?$_Tree_val@U?$_Tree_simple_types@U?$pair@$$CBEE@std@@@std@@@std@@@2@V?$_Tree_const_iterator@V?$_Tree_val@U?$_Tree_simple_types@U?$pair@$$CBEE@std@@@std@@@std@@@2@0@Z 00000001800db504     block_splitter.obj
 0002:00097504       $chain$1$?erase@?$_Tree@V?$_Tmap_traits@IGU?$less@I@std@@V?$allocator@U?$pair@$$CBIG@std@@@2@$0A@@std@@@std@@QEAA?AV?$_Tree_iterator@V?$_Tree_val@U?$_Tree_simple_types@U?$pair@$$CBIG@std@@@std@@@std@@@2@V?$_Tree_const_iterator@V?$_Tree_val@U?$_Tree_simple_types@U?$pair@$$CBIG@std@@@std@@@std@@@2@0@Z 00000001800db504     woff2_enc.obj
 0002:00097504       $chain$1$?erase@?$_Tree@V?$_Tmap_traits@IPEAUTable@Font@woff2@@U?$less@I@std@@V?$allocator@U?$pair@$$CBIPEAUTable@Font@woff2@@@std@@@5@$0A@@std@@@std@@QEAA?AV?$_Tree_iterator@V?$_Tree_val@U?$_Tree_simple_types@U?$pair@$$CBIPEAUTable@Font@woff2@@@std@@@std@@@std@@@2@V?$_Tree_const_iterator@V?$_Tree_val@U?$_Tree_simple_types@U?$pair@$$CBIPEAUTable@Font@woff2@@@std@@@std@@@std@@@2@0@Z 00000001800db504     font.obj
 0002:00097504       $chain$1$?erase@?$_Tree@V?$_Tmap_traits@HHU?$less@H@std@@V?$allocator@U?$pair@$$CBHH@std@@@2@$0A@@std@@@std@@QEAA?AV?$_Tree_iterator@V?$_Tree_val@U?$_Tree_simple_types@U?$pair@$$CBHH@std@@@std@@@std@@@2@V?$_Tree_const_iterator@V?$_Tree_val@U?$_Tree_simple_types@U?$pair@$$CBHH@std@@@std@@@std@@@2@0@Z 00000001800db504     block_splitter.obj
 0002:00097504       $chain$1$?erase@?$_Tree@V?$_Tmap_traits@IIU?$less@I@std@@V?$allocator@U?$pair@$$CBII@std@@@2@$0A@@std@@@std@@QEAA?AV?$_Tree_iterator@V?$_Tree_val@U?$_Tree_simple_types@U?$pair@$$CBII@std@@@std@@@std@@@2@V?$_Tree_const_iterator@V?$_Tree_val@U?$_Tree_simple_types@U?$pair@$$CBII@std@@@std@@@std@@@2@0@Z 00000001800db504     font.obj
 0002:00097504       $chain$1$?erase@?$_Tree@V?$_Tset_traits@HU?$less@H@std@@V?$allocator@H@2@$0A@@std@@@std@@QEAA?AV?$_Tree_const_iterator@V?$_Tree_val@U?$_Tree_simple_types@H@std@@@std@@@2@V32@0@Z 00000001800db504     block_splitter.obj
 0002:00097514       $unwind$?_Reallocate@?$vector@UFont@woff2@@V?$allocator@UFont@woff2@@@std@@@std@@IEAAX_K@Z 00000001800db514     font.obj
 0002:00097520       $chain$4$?_Reallocate@?$vector@UFont@woff2@@V?$allocator@UFont@woff2@@@std@@@std@@IEAAX_K@Z 00000001800db520     font.obj
 0002:00097544       $chain$5$?_Reallocate@?$vector@UFont@woff2@@V?$allocator@UFont@woff2@@@std@@@std@@IEAAX_K@Z 00000001800db544     font.obj
 0002:00097554       $chain$0$?_Reallocate@?$vector@HV?$allocator@H@std@@@std@@IEAAX_K@Z 00000001800db554     block_splitter.obj
 0002:00097554       $chain$0$?_Reallocate@?$vector@IV?$allocator@I@std@@@std@@IEAAX_K@Z 00000001800db554     font.obj
 0002:00097568       $chain$1$?_Reallocate@?$vector@HV?$allocator@H@std@@@std@@IEAAX_K@Z 00000001800db568     block_splitter.obj
 0002:00097568       $chain$1$?_Reallocate@?$vector@IV?$allocator@I@std@@@std@@IEAAX_K@Z 00000001800db568     font.obj
 0002:00097578       $unwind$?erase@?$_Tree@V?$_Tmap_traits@IPEAUTable@Font@woff2@@U?$less@I@std@@V?$allocator@U?$pair@$$CBIPEAUTable@Font@woff2@@@std@@@5@$0A@@std@@@std@@QEAA?AV?$_Tree_iterator@V?$_Tree_val@U?$_Tree_simple_types@U?$pair@$$CBIPEAUTable@Font@woff2@@@std@@@std@@@std@@@2@V?$_Tree_const_iterator@V?$_Tree_val@U?$_Tree_simple_types@U?$pair@$$CBIPEAUTable@Font@woff2@@@std@@@std@@@std@@@2@@Z 00000001800db578     font.obj
 0002:00097578       $unwind$?erase@?$_Tree@V?$_Tmap_traits@HHU?$less@H@std@@V?$allocator@U?$pair@$$CBHH@std@@@2@$0A@@std@@@std@@QEAA?AV?$_Tree_iterator@V?$_Tree_val@U?$_Tree_simple_types@U?$pair@$$CBHH@std@@@std@@@std@@@2@V?$_Tree_const_iterator@V?$_Tree_val@U?$_Tree_simple_types@U?$pair@$$CBHH@std@@@std@@@std@@@2@@Z 00000001800db578     block_splitter.obj
 0002:00097578       $unwind$?erase@?$_Tree@V?$_Tset_traits@HU?$less@H@std@@V?$allocator@H@2@$0A@@std@@@std@@QEAA?AV?$_Tree_const_iterator@V?$_Tree_val@U?$_Tree_simple_types@H@std@@@std@@@2@V32@@Z 00000001800db578     block_splitter.obj
 0002:00097578       $unwind$?erase@?$_Tree@V?$_Tmap_traits@EEU?$less@E@std@@V?$allocator@U?$pair@$$CBEE@std@@@2@$0A@@std@@@std@@QEAA?AV?$_Tree_iterator@V?$_Tree_val@U?$_Tree_simple_types@U?$pair@$$CBEE@std@@@std@@@std@@@2@V?$_Tree_const_iterator@V?$_Tree_val@U?$_Tree_simple_types@U?$pair@$$CBEE@std@@@std@@@std@@@2@@Z 00000001800db578     block_splitter.obj
 0002:00097578       $unwind$?erase@?$_Tree@V?$_Tmap_traits@IIU?$less@I@std@@V?$allocator@U?$pair@$$CBII@std@@@2@$0A@@std@@@std@@QEAA?AV?$_Tree_iterator@V?$_Tree_val@U?$_Tree_simple_types@U?$pair@$$CBII@std@@@std@@@std@@@2@V?$_Tree_const_iterator@V?$_Tree_val@U?$_Tree_simple_types@U?$pair@$$CBII@std@@@std@@@std@@@2@@Z 00000001800db578     font.obj
 0002:00097578       $unwind$?erase@?$_Tree@V?$_Tmap_traits@IGU?$less@I@std@@V?$allocator@U?$pair@$$CBIG@std@@@2@$0A@@std@@@std@@QEAA?AV?$_Tree_iterator@V?$_Tree_val@U?$_Tree_simple_types@U?$pair@$$CBIG@std@@@std@@@std@@@2@V?$_Tree_const_iterator@V?$_Tree_val@U?$_Tree_simple_types@U?$pair@$$CBIG@std@@@std@@@std@@@2@@Z 00000001800db578     woff2_enc.obj
 0002:00097584       $chain$1$?erase@?$_Tree@V?$_Tmap_traits@IPEAUTable@Font@woff2@@U?$less@I@std@@V?$allocator@U?$pair@$$CBIPEAUTable@Font@woff2@@@std@@@5@$0A@@std@@@std@@QEAA?AV?$_Tree_iterator@V?$_Tree_val@U?$_Tree_simple_types@U?$pair@$$CBIPEAUTable@Font@woff2@@@std@@@std@@@std@@@2@V?$_Tree_const_iterator@V?$_Tree_val@U?$_Tree_simple_types@U?$pair@$$CBIPEAUTable@Font@woff2@@@std@@@std@@@std@@@2@@Z 00000001800db584     font.obj
 0002:00097584       $chain$1$?erase@?$_Tree@V?$_Tmap_traits@IGU?$less@I@std@@V?$allocator@U?$pair@$$CBIG@std@@@2@$0A@@std@@@std@@QEAA?AV?$_Tree_iterator@V?$_Tree_val@U?$_Tree_simple_types@U?$pair@$$CBIG@std@@@std@@@std@@@2@V?$_Tree_const_iterator@V?$_Tree_val@U?$_Tree_simple_types@U?$pair@$$CBIG@std@@@std@@@std@@@2@@Z 00000001800db584     woff2_enc.obj
 0002:00097584       $chain$1$?erase@?$_Tree@V?$_Tmap_traits@HHU?$less@H@std@@V?$allocator@U?$pair@$$CBHH@std@@@2@$0A@@std@@@std@@QEAA?AV?$_Tree_iterator@V?$_Tree_val@U?$_Tree_simple_types@U?$pair@$$CBHH@std@@@std@@@std@@@2@V?$_Tree_const_iterator@V?$_Tree_val@U?$_Tree_simple_types@U?$pair@$$CBHH@std@@@std@@@std@@@2@@Z 00000001800db584     block_splitter.obj
 0002:00097584       $chain$1$?erase@?$_Tree@V?$_Tmap_traits@IIU?$less@I@std@@V?$allocator@U?$pair@$$CBII@std@@@2@$0A@@std@@@std@@QEAA?AV?$_Tree_iterator@V?$_Tree_val@U?$_Tree_simple_types@U?$pair@$$CBII@std@@@std@@@std@@@2@V?$_Tree_const_iterator@V?$_Tree_val@U?$_Tree_simple_types@U?$pair@$$CBII@std@@@std@@@std@@@2@@Z 00000001800db584     font.obj
 0002:00097584       $chain$1$?erase@?$_Tree@V?$_Tmap_traits@EEU?$less@E@std@@V?$allocator@U?$pair@$$CBEE@std@@@2@$0A@@std@@@std@@QEAA?AV?$_Tree_iterator@V?$_Tree_val@U?$_Tree_simple_types@U?$pair@$$CBEE@std@@@std@@@std@@@2@V?$_Tree_const_iterator@V?$_Tree_val@U?$_Tree_simple_types@U?$pair@$$CBEE@std@@@std@@@std@@@2@@Z 00000001800db584     block_splitter.obj
 0002:00097584       $chain$1$?erase@?$_Tree@V?$_Tset_traits@HU?$less@H@std@@V?$allocator@H@2@$0A@@std@@@std@@QEAA?AV?$_Tree_const_iterator@V?$_Tree_val@U?$_Tree_simple_types@H@std@@@std@@@2@V32@@Z 00000001800db584     block_splitter.obj
 0002:0009759c       $chain$2$?erase@?$_Tree@V?$_Tset_traits@HU?$less@H@std@@V?$allocator@H@2@$0A@@std@@@std@@QEAA?AV?$_Tree_const_iterator@V?$_Tree_val@U?$_Tree_simple_types@H@std@@@std@@@2@V32@@Z 00000001800db59c     block_splitter.obj
 0002:0009759c       $chain$2$?erase@?$_Tree@V?$_Tmap_traits@IPEAUTable@Font@woff2@@U?$less@I@std@@V?$allocator@U?$pair@$$CBIPEAUTable@Font@woff2@@@std@@@5@$0A@@std@@@std@@QEAA?AV?$_Tree_iterator@V?$_Tree_val@U?$_Tree_simple_types@U?$pair@$$CBIPEAUTable@Font@woff2@@@std@@@std@@@std@@@2@V?$_Tree_const_iterator@V?$_Tree_val@U?$_Tree_simple_types@U?$pair@$$CBIPEAUTable@Font@woff2@@@std@@@std@@@std@@@2@@Z 00000001800db59c     font.obj
 0002:0009759c       $chain$2$?erase@?$_Tree@V?$_Tmap_traits@IGU?$less@I@std@@V?$allocator@U?$pair@$$CBIG@std@@@2@$0A@@std@@@std@@QEAA?AV?$_Tree_iterator@V?$_Tree_val@U?$_Tree_simple_types@U?$pair@$$CBIG@std@@@std@@@std@@@2@V?$_Tree_const_iterator@V?$_Tree_val@U?$_Tree_simple_types@U?$pair@$$CBIG@std@@@std@@@std@@@2@@Z 00000001800db59c     woff2_enc.obj
 0002:0009759c       $chain$2$?erase@?$_Tree@V?$_Tmap_traits@IIU?$less@I@std@@V?$allocator@U?$pair@$$CBII@std@@@2@$0A@@std@@@std@@QEAA?AV?$_Tree_iterator@V?$_Tree_val@U?$_Tree_simple_types@U?$pair@$$CBII@std@@@std@@@std@@@2@V?$_Tree_const_iterator@V?$_Tree_val@U?$_Tree_simple_types@U?$pair@$$CBII@std@@@std@@@std@@@2@@Z 00000001800db59c     font.obj
 0002:0009759c       $chain$2$?erase@?$_Tree@V?$_Tmap_traits@HHU?$less@H@std@@V?$allocator@U?$pair@$$CBHH@std@@@2@$0A@@std@@@std@@QEAA?AV?$_Tree_iterator@V?$_Tree_val@U?$_Tree_simple_types@U?$pair@$$CBHH@std@@@std@@@std@@@2@V?$_Tree_const_iterator@V?$_Tree_val@U?$_Tree_simple_types@U?$pair@$$CBHH@std@@@std@@@std@@@2@@Z 00000001800db59c     block_splitter.obj
 0002:0009759c       $chain$2$?erase@?$_Tree@V?$_Tmap_traits@EEU?$less@E@std@@V?$allocator@U?$pair@$$CBEE@std@@@2@$0A@@std@@@std@@QEAA?AV?$_Tree_iterator@V?$_Tree_val@U?$_Tree_simple_types@U?$pair@$$CBEE@std@@@std@@@std@@@2@V?$_Tree_const_iterator@V?$_Tree_val@U?$_Tree_simple_types@U?$pair@$$CBEE@std@@@std@@@std@@@2@@Z 00000001800db59c     block_splitter.obj
 0002:000975ac       $unwind$??$_Uninitialized_default_fill_n1@PEAUFont@woff2@@_KV?$allocator@UFont@woff2@@@std@@@std@@YAXPEAUFont@woff2@@_KAEAU?$_Wrap_alloc@V?$allocator@UFont@woff2@@@std@@@0@U?$integral_constant@_N$0A@@0@@Z 00000001800db5ac     font.obj
 0002:000975b4       $chain$1$??$_Uninitialized_default_fill_n1@PEAUFont@woff2@@_KV?$allocator@UFont@woff2@@@std@@@std@@YAXPEAUFont@woff2@@_KAEAU?$_Wrap_alloc@V?$allocator@UFont@woff2@@@std@@@0@U?$integral_constant@_N$0A@@0@@Z 00000001800db5b4     font.obj
 0002:000975cc       $chain$2$??$_Uninitialized_default_fill_n1@PEAUFont@woff2@@_KV?$allocator@UFont@woff2@@@std@@@std@@YAXPEAUFont@woff2@@_KAEAU?$_Wrap_alloc@V?$allocator@UFont@woff2@@@std@@@0@U?$integral_constant@_N$0A@@0@@Z 00000001800db5cc     font.obj
 0002:000975dc       $unwind$??$_Try_emplace@AEBI$$V@?$map@IUTable@Font@woff2@@U?$less@I@std@@V?$allocator@U?$pair@$$CBIUTable@Font@woff2@@@std@@@5@@std@@QEAA?AU?$pair@V?$_Tree_iterator@V?$_Tree_val@U?$_Tree_simple_types@U?$pair@$$CBIUTable@Font@woff2@@@std@@@std@@@std@@@std@@_N@1@AEBI@Z 00000001800db5dc     font.obj
 0002:000975dc       $unwind$??$_Try_emplace@AEBI$$V@?$map@IPEAUTable@Font@woff2@@U?$less@I@std@@V?$allocator@U?$pair@$$CBIPEAUTable@Font@woff2@@@std@@@5@@std@@QEAA?AU?$pair@V?$_Tree_iterator@V?$_Tree_val@U?$_Tree_simple_types@U?$pair@$$CBIPEAUTable@Font@woff2@@@std@@@std@@@std@@@std@@_N@1@AEBI@Z 00000001800db5dc     font.obj
 0002:000975dc       $unwind$??$_Try_emplace@I$$V@?$map@IUTable@Font@woff2@@U?$less@I@std@@V?$allocator@U?$pair@$$CBIUTable@Font@woff2@@@std@@@5@@std@@QEAA?AU?$pair@V?$_Tree_iterator@V?$_Tree_val@U?$_Tree_simple_types@U?$pair@$$CBIUTable@Font@woff2@@@std@@@std@@@std@@@std@@_N@1@$$QEAI@Z 00000001800db5dc     transform.obj
 0002:000975dc       $unwind$??$_Try_emplace@AEBI$$V@?$map@IGU?$less@I@std@@V?$allocator@U?$pair@$$CBIG@std@@@2@@std@@QEAA?AU?$pair@V?$_Tree_iterator@V?$_Tree_val@U?$_Tree_simple_types@U?$pair@$$CBIG@std@@@std@@@std@@@std@@_N@1@AEBI@Z 00000001800db5dc     woff2_enc.obj
 0002:000975f0       $unwind$??$_Sort_unchecked1@PEAI_JU?$less@X@std@@@std@@YAXPEAI0_JAEAU?$less@X@0@@Z 00000001800db5f0     font.obj
 0002:00097604       $unwind$??$_Insert_hint@AEAU?$pair@$$CBII@std@@PEAU?$_Tree_node@U?$pair@$$CBII@std@@PEAX@2@@?$_Tree@V?$_Tmap_traits@IIU?$less@I@std@@V?$allocator@U?$pair@$$CBII@std@@@2@$0A@@std@@@std@@IEAA?AV?$_Tree_iterator@V?$_Tree_val@U?$_Tree_simple_types@U?$pair@$$CBII@std@@@std@@@std@@@1@V?$_Tree_const_iterator@V?$_Tree_val@U?$_Tree_simple_types@U?$pair@$$CBII@std@@@std@@@std@@@1@AEAU?$pair@$$CBII@1@PEAU?$_Tree_node@U?$pair@$$CBII@std@@PEAX@1@@Z 00000001800db604     font.obj
 0002:00097604       $unwind$??$_Insert_hint@AEAU?$pair@$$CBIG@std@@PEAU?$_Tree_node@U?$pair@$$CBIG@std@@PEAX@2@@?$_Tree@V?$_Tmap_traits@IGU?$less@I@std@@V?$allocator@U?$pair@$$CBIG@std@@@2@$0A@@std@@@std@@IEAA?AV?$_Tree_iterator@V?$_Tree_val@U?$_Tree_simple_types@U?$pair@$$CBIG@std@@@std@@@std@@@1@V?$_Tree_const_iterator@V?$_Tree_val@U?$_Tree_simple_types@U?$pair@$$CBIG@std@@@std@@@std@@@1@AEAU?$pair@$$CBIG@1@PEAU?$_Tree_node@U?$pair@$$CBIG@std@@PEAX@1@@Z 00000001800db604     woff2_enc.obj
 0002:00097604       $unwind$??$_Insert_hint@AEAU?$pair@$$CBEE@std@@PEAU?$_Tree_node@U?$pair@$$CBEE@std@@PEAX@2@@?$_Tree@V?$_Tmap_traits@EEU?$less@E@std@@V?$allocator@U?$pair@$$CBEE@std@@@2@$0A@@std@@@std@@IEAA?AV?$_Tree_iterator@V?$_Tree_val@U?$_Tree_simple_types@U?$pair@$$CBEE@std@@@std@@@std@@@1@V?$_Tree_const_iterator@V?$_Tree_val@U?$_Tree_simple_types@U?$pair@$$CBEE@std@@@std@@@std@@@1@AEAU?$pair@$$CBEE@1@PEAU?$_Tree_node@U?$pair@$$CBEE@std@@PEAX@1@@Z 00000001800db604     block_splitter.obj
 0002:00097604       $unwind$??$_Insert_hint@AEAU?$pair@$$CBIPEAUTable@Font@woff2@@@std@@PEAU?$_Tree_node@U?$pair@$$CBIPEAUTable@Font@woff2@@@std@@PEAX@2@@?$_Tree@V?$_Tmap_traits@IPEAUTable@Font@woff2@@U?$less@I@std@@V?$allocator@U?$pair@$$CBIPEAUTable@Font@woff2@@@std@@@5@$0A@@std@@@std@@IEAA?AV?$_Tree_iterator@V?$_Tree_val@U?$_Tree_simple_types@U?$pair@$$CBIPEAUTable@Font@woff2@@@std@@@std@@@std@@@1@V?$_Tree_const_iterator@V?$_Tree_val@U?$_Tree_simple_types@U?$pair@$$CBIPEAUTable@Font@woff2@@@std@@@std@@@std@@@1@AEAU?$pair@$$CBIPEAUTable@Font@woff2@@@1@PEAU?$_Tree_node@U?$pair@$$CBIPEAUTable@Font@woff2@@@std@@PEAX@1@@Z 00000001800db604     font.obj
 0002:00097604       $unwind$??$_Insert_hint@AEAU?$pair@$$CBHH@std@@PEAU?$_Tree_node@U?$pair@$$CBHH@std@@PEAX@2@@?$_Tree@V?$_Tmap_traits@HHU?$less@H@std@@V?$allocator@U?$pair@$$CBHH@std@@@2@$0A@@std@@@std@@IEAA?AV?$_Tree_iterator@V?$_Tree_val@U?$_Tree_simple_types@U?$pair@$$CBHH@std@@@std@@@std@@@1@V?$_Tree_const_iterator@V?$_Tree_val@U?$_Tree_simple_types@U?$pair@$$CBHH@std@@@std@@@std@@@1@AEAU?$pair@$$CBHH@1@PEAU?$_Tree_node@U?$pair@$$CBHH@std@@PEAX@1@@Z 00000001800db604     block_splitter.obj
 0002:00097604       $unwind$??$_Insert_hint@AEAU?$pair@$$CBIUTable@Font@woff2@@@std@@PEAU?$_Tree_node@U?$pair@$$CBIUTable@Font@woff2@@@std@@PEAX@2@@?$_Tree@V?$_Tmap_traits@IUTable@Font@woff2@@U?$less@I@std@@V?$allocator@U?$pair@$$CBIUTable@Font@woff2@@@std@@@5@$0A@@std@@@std@@IEAA?AV?$_Tree_iterator@V?$_Tree_val@U?$_Tree_simple_types@U?$pair@$$CBIUTable@Font@woff2@@@std@@@std@@@std@@@1@V?$_Tree_const_iterator@V?$_Tree_val@U?$_Tree_simple_types@U?$pair@$$CBIUTable@Font@woff2@@@std@@@std@@@std@@@1@AEAU?$pair@$$CBIUTable@Font@woff2@@@1@PEAU?$_Tree_node@U?$pair@$$CBIUTable@Font@woff2@@@std@@PEAX@1@@Z 00000001800db604     font.obj
 0002:00097610       $chain$0$??$_Insert_hint@AEAU?$pair@$$CBII@std@@PEAU?$_Tree_node@U?$pair@$$CBII@std@@PEAX@2@@?$_Tree@V?$_Tmap_traits@IIU?$less@I@std@@V?$allocator@U?$pair@$$CBII@std@@@2@$0A@@std@@@std@@IEAA?AV?$_Tree_iterator@V?$_Tree_val@U?$_Tree_simple_types@U?$pair@$$CBII@std@@@std@@@std@@@1@V?$_Tree_const_iterator@V?$_Tree_val@U?$_Tree_simple_types@U?$pair@$$CBII@std@@@std@@@std@@@1@AEAU?$pair@$$CBII@1@PEAU?$_Tree_node@U?$pair@$$CBII@std@@PEAX@1@@Z 00000001800db610     font.obj
 0002:00097610       $chain$0$??$_Insert_hint@AEAU?$pair@$$CBIG@std@@PEAU?$_Tree_node@U?$pair@$$CBIG@std@@PEAX@2@@?$_Tree@V?$_Tmap_traits@IGU?$less@I@std@@V?$allocator@U?$pair@$$CBIG@std@@@2@$0A@@std@@@std@@IEAA?AV?$_Tree_iterator@V?$_Tree_val@U?$_Tree_simple_types@U?$pair@$$CBIG@std@@@std@@@std@@@1@V?$_Tree_const_iterator@V?$_Tree_val@U?$_Tree_simple_types@U?$pair@$$CBIG@std@@@std@@@std@@@1@AEAU?$pair@$$CBIG@1@PEAU?$_Tree_node@U?$pair@$$CBIG@std@@PEAX@1@@Z 00000001800db610     woff2_enc.obj
 0002:00097624       $chain$2$??$_Insert_hint@AEAU?$pair@$$CBIG@std@@PEAU?$_Tree_node@U?$pair@$$CBIG@std@@PEAX@2@@?$_Tree@V?$_Tmap_traits@IGU?$less@I@std@@V?$allocator@U?$pair@$$CBIG@std@@@2@$0A@@std@@@std@@IEAA?AV?$_Tree_iterator@V?$_Tree_val@U?$_Tree_simple_types@U?$pair@$$CBIG@std@@@std@@@std@@@1@V?$_Tree_const_iterator@V?$_Tree_val@U?$_Tree_simple_types@U?$pair@$$CBIG@std@@@std@@@std@@@1@AEAU?$pair@$$CBIG@1@PEAU?$_Tree_node@U?$pair@$$CBIG@std@@PEAX@1@@Z 00000001800db624     woff2_enc.obj
 0002:00097624       $chain$8$??$_Insert_hint@AEAU?$pair@$$CBII@std@@PEAU?$_Tree_node@U?$pair@$$CBII@std@@PEAX@2@@?$_Tree@V?$_Tmap_traits@IIU?$less@I@std@@V?$allocator@U?$pair@$$CBII@std@@@2@$0A@@std@@@std@@IEAA?AV?$_Tree_iterator@V?$_Tree_val@U?$_Tree_simple_types@U?$pair@$$CBII@std@@@std@@@std@@@1@V?$_Tree_const_iterator@V?$_Tree_val@U?$_Tree_simple_types@U?$pair@$$CBII@std@@@std@@@std@@@1@AEAU?$pair@$$CBII@1@PEAU?$_Tree_node@U?$pair@$$CBII@std@@PEAX@1@@Z 00000001800db624     font.obj
 0002:00097624       $chain$4$??$_Insert_hint@AEAU?$pair@$$CBIG@std@@PEAU?$_Tree_node@U?$pair@$$CBIG@std@@PEAX@2@@?$_Tree@V?$_Tmap_traits@IGU?$less@I@std@@V?$allocator@U?$pair@$$CBIG@std@@@2@$0A@@std@@@std@@IEAA?AV?$_Tree_iterator@V?$_Tree_val@U?$_Tree_simple_types@U?$pair@$$CBIG@std@@@std@@@std@@@1@V?$_Tree_const_iterator@V?$_Tree_val@U?$_Tree_simple_types@U?$pair@$$CBIG@std@@@std@@@std@@@1@AEAU?$pair@$$CBIG@1@PEAU?$_Tree_node@U?$pair@$$CBIG@std@@PEAX@1@@Z 00000001800db624     woff2_enc.obj
 0002:00097624       $chain$6$??$_Insert_hint@AEAU?$pair@$$CBIG@std@@PEAU?$_Tree_node@U?$pair@$$CBIG@std@@PEAX@2@@?$_Tree@V?$_Tmap_traits@IGU?$less@I@std@@V?$allocator@U?$pair@$$CBIG@std@@@2@$0A@@std@@@std@@IEAA?AV?$_Tree_iterator@V?$_Tree_val@U?$_Tree_simple_types@U?$pair@$$CBIG@std@@@std@@@std@@@1@V?$_Tree_const_iterator@V?$_Tree_val@U?$_Tree_simple_types@U?$pair@$$CBIG@std@@@std@@@std@@@1@AEAU?$pair@$$CBIG@1@PEAU?$_Tree_node@U?$pair@$$CBIG@std@@PEAX@1@@Z 00000001800db624     woff2_enc.obj
 0002:00097624       $chain$2$??$_Insert_hint@AEAU?$pair@$$CBII@std@@PEAU?$_Tree_node@U?$pair@$$CBII@std@@PEAX@2@@?$_Tree@V?$_Tmap_traits@IIU?$less@I@std@@V?$allocator@U?$pair@$$CBII@std@@@2@$0A@@std@@@std@@IEAA?AV?$_Tree_iterator@V?$_Tree_val@U?$_Tree_simple_types@U?$pair@$$CBII@std@@@std@@@std@@@1@V?$_Tree_const_iterator@V?$_Tree_val@U?$_Tree_simple_types@U?$pair@$$CBII@std@@@std@@@std@@@1@AEAU?$pair@$$CBII@1@PEAU?$_Tree_node@U?$pair@$$CBII@std@@PEAX@1@@Z 00000001800db624     font.obj
 0002:00097624       $chain$6$??$_Insert_hint@AEAU?$pair@$$CBII@std@@PEAU?$_Tree_node@U?$pair@$$CBII@std@@PEAX@2@@?$_Tree@V?$_Tmap_traits@IIU?$less@I@std@@V?$allocator@U?$pair@$$CBII@std@@@2@$0A@@std@@@std@@IEAA?AV?$_Tree_iterator@V?$_Tree_val@U?$_Tree_simple_types@U?$pair@$$CBII@std@@@std@@@std@@@1@V?$_Tree_const_iterator@V?$_Tree_val@U?$_Tree_simple_types@U?$pair@$$CBII@std@@@std@@@std@@@1@AEAU?$pair@$$CBII@1@PEAU?$_Tree_node@U?$pair@$$CBII@std@@PEAX@1@@Z 00000001800db624     font.obj
 0002:00097624       $chain$4$??$_Insert_hint@AEAU?$pair@$$CBII@std@@PEAU?$_Tree_node@U?$pair@$$CBII@std@@PEAX@2@@?$_Tree@V?$_Tmap_traits@IIU?$less@I@std@@V?$allocator@U?$pair@$$CBII@std@@@2@$0A@@std@@@std@@IEAA?AV?$_Tree_iterator@V?$_Tree_val@U?$_Tree_simple_types@U?$pair@$$CBII@std@@@std@@@std@@@1@V?$_Tree_const_iterator@V?$_Tree_val@U?$_Tree_simple_types@U?$pair@$$CBII@std@@@std@@@std@@@1@AEAU?$pair@$$CBII@1@PEAU?$_Tree_node@U?$pair@$$CBII@std@@PEAX@1@@Z 00000001800db624     font.obj
 0002:00097624       $chain$8$??$_Insert_hint@AEAU?$pair@$$CBIG@std@@PEAU?$_Tree_node@U?$pair@$$CBIG@std@@PEAX@2@@?$_Tree@V?$_Tmap_traits@IGU?$less@I@std@@V?$allocator@U?$pair@$$CBIG@std@@@2@$0A@@std@@@std@@IEAA?AV?$_Tree_iterator@V?$_Tree_val@U?$_Tree_simple_types@U?$pair@$$CBIG@std@@@std@@@std@@@1@V?$_Tree_const_iterator@V?$_Tree_val@U?$_Tree_simple_types@U?$pair@$$CBIG@std@@@std@@@std@@@1@AEAU?$pair@$$CBIG@1@PEAU?$_Tree_node@U?$pair@$$CBIG@std@@PEAX@1@@Z 00000001800db624     woff2_enc.obj
 0002:00097638       $chain$0$??$_Insert_hint@AEAU?$pair@$$CBIPEAUTable@Font@woff2@@@std@@PEAU?$_Tree_node@U?$pair@$$CBIPEAUTable@Font@woff2@@@std@@PEAX@2@@?$_Tree@V?$_Tmap_traits@IPEAUTable@Font@woff2@@U?$less@I@std@@V?$allocator@U?$pair@$$CBIPEAUTable@Font@woff2@@@std@@@5@$0A@@std@@@std@@IEAA?AV?$_Tree_iterator@V?$_Tree_val@U?$_Tree_simple_types@U?$pair@$$CBIPEAUTable@Font@woff2@@@std@@@std@@@std@@@1@V?$_Tree_const_iterator@V?$_Tree_val@U?$_Tree_simple_types@U?$pair@$$CBIPEAUTable@Font@woff2@@@std@@@std@@@std@@@1@AEAU?$pair@$$CBIPEAUTable@Font@woff2@@@1@PEAU?$_Tree_node@U?$pair@$$CBIPEAUTable@Font@woff2@@@std@@PEAX@1@@Z 00000001800db638     font.obj
 0002:0009764c       $chain$8$??$_Insert_hint@AEAU?$pair@$$CBIPEAUTable@Font@woff2@@@std@@PEAU?$_Tree_node@U?$pair@$$CBIPEAUTable@Font@woff2@@@std@@PEAX@2@@?$_Tree@V?$_Tmap_traits@IPEAUTable@Font@woff2@@U?$less@I@std@@V?$allocator@U?$pair@$$CBIPEAUTable@Font@woff2@@@std@@@5@$0A@@std@@@std@@IEAA?AV?$_Tree_iterator@V?$_Tree_val@U?$_Tree_simple_types@U?$pair@$$CBIPEAUTable@Font@woff2@@@std@@@std@@@std@@@1@V?$_Tree_const_iterator@V?$_Tree_val@U?$_Tree_simple_types@U?$pair@$$CBIPEAUTable@Font@woff2@@@std@@@std@@@std@@@1@AEAU?$pair@$$CBIPEAUTable@Font@woff2@@@1@PEAU?$_Tree_node@U?$pair@$$CBIPEAUTable@Font@woff2@@@std@@PEAX@1@@Z 00000001800db64c     font.obj
 0002:0009764c       $chain$6$??$_Insert_hint@AEAU?$pair@$$CBIPEAUTable@Font@woff2@@@std@@PEAU?$_Tree_node@U?$pair@$$CBIPEAUTable@Font@woff2@@@std@@PEAX@2@@?$_Tree@V?$_Tmap_traits@IPEAUTable@Font@woff2@@U?$less@I@std@@V?$allocator@U?$pair@$$CBIPEAUTable@Font@woff2@@@std@@@5@$0A@@std@@@std@@IEAA?AV?$_Tree_iterator@V?$_Tree_val@U?$_Tree_simple_types@U?$pair@$$CBIPEAUTable@Font@woff2@@@std@@@std@@@std@@@1@V?$_Tree_const_iterator@V?$_Tree_val@U?$_Tree_simple_types@U?$pair@$$CBIPEAUTable@Font@woff2@@@std@@@std@@@std@@@1@AEAU?$pair@$$CBIPEAUTable@Font@woff2@@@1@PEAU?$_Tree_node@U?$pair@$$CBIPEAUTable@Font@woff2@@@std@@PEAX@1@@Z 00000001800db64c     font.obj
 0002:0009764c       $chain$4$??$_Insert_hint@AEAU?$pair@$$CBIPEAUTable@Font@woff2@@@std@@PEAU?$_Tree_node@U?$pair@$$CBIPEAUTable@Font@woff2@@@std@@PEAX@2@@?$_Tree@V?$_Tmap_traits@IPEAUTable@Font@woff2@@U?$less@I@std@@V?$allocator@U?$pair@$$CBIPEAUTable@Font@woff2@@@std@@@5@$0A@@std@@@std@@IEAA?AV?$_Tree_iterator@V?$_Tree_val@U?$_Tree_simple_types@U?$pair@$$CBIPEAUTable@Font@woff2@@@std@@@std@@@std@@@1@V?$_Tree_const_iterator@V?$_Tree_val@U?$_Tree_simple_types@U?$pair@$$CBIPEAUTable@Font@woff2@@@std@@@std@@@std@@@1@AEAU?$pair@$$CBIPEAUTable@Font@woff2@@@1@PEAU?$_Tree_node@U?$pair@$$CBIPEAUTable@Font@woff2@@@std@@PEAX@1@@Z 00000001800db64c     font.obj
 0002:0009764c       $chain$2$??$_Insert_hint@AEAU?$pair@$$CBIPEAUTable@Font@woff2@@@std@@PEAU?$_Tree_node@U?$pair@$$CBIPEAUTable@Font@woff2@@@std@@PEAX@2@@?$_Tree@V?$_Tmap_traits@IPEAUTable@Font@woff2@@U?$less@I@std@@V?$allocator@U?$pair@$$CBIPEAUTable@Font@woff2@@@std@@@5@$0A@@std@@@std@@IEAA?AV?$_Tree_iterator@V?$_Tree_val@U?$_Tree_simple_types@U?$pair@$$CBIPEAUTable@Font@woff2@@@std@@@std@@@std@@@1@V?$_Tree_const_iterator@V?$_Tree_val@U?$_Tree_simple_types@U?$pair@$$CBIPEAUTable@Font@woff2@@@std@@@std@@@std@@@1@AEAU?$pair@$$CBIPEAUTable@Font@woff2@@@1@PEAU?$_Tree_node@U?$pair@$$CBIPEAUTable@Font@woff2@@@std@@PEAX@1@@Z 00000001800db64c     font.obj
 0002:00097660       $chain$0$??$_Insert_hint@AEAU?$pair@$$CBIUTable@Font@woff2@@@std@@PEAU?$_Tree_node@U?$pair@$$CBIUTable@Font@woff2@@@std@@PEAX@2@@?$_Tree@V?$_Tmap_traits@IUTable@Font@woff2@@U?$less@I@std@@V?$allocator@U?$pair@$$CBIUTable@Font@woff2@@@std@@@5@$0A@@std@@@std@@IEAA?AV?$_Tree_iterator@V?$_Tree_val@U?$_Tree_simple_types@U?$pair@$$CBIUTable@Font@woff2@@@std@@@std@@@std@@@1@V?$_Tree_const_iterator@V?$_Tree_val@U?$_Tree_simple_types@U?$pair@$$CBIUTable@Font@woff2@@@std@@@std@@@std@@@1@AEAU?$pair@$$CBIUTable@Font@woff2@@@1@PEAU?$_Tree_node@U?$pair@$$CBIUTable@Font@woff2@@@std@@PEAX@1@@Z 00000001800db660     font.obj
 0002:00097674       $chain$6$??$_Insert_hint@AEAU?$pair@$$CBIUTable@Font@woff2@@@std@@PEAU?$_Tree_node@U?$pair@$$CBIUTable@Font@woff2@@@std@@PEAX@2@@?$_Tree@V?$_Tmap_traits@IUTable@Font@woff2@@U?$less@I@std@@V?$allocator@U?$pair@$$CBIUTable@Font@woff2@@@std@@@5@$0A@@std@@@std@@IEAA?AV?$_Tree_iterator@V?$_Tree_val@U?$_Tree_simple_types@U?$pair@$$CBIUTable@Font@woff2@@@std@@@std@@@std@@@1@V?$_Tree_const_iterator@V?$_Tree_val@U?$_Tree_simple_types@U?$pair@$$CBIUTable@Font@woff2@@@std@@@std@@@std@@@1@AEAU?$pair@$$CBIUTable@Font@woff2@@@1@PEAU?$_Tree_node@U?$pair@$$CBIUTable@Font@woff2@@@std@@PEAX@1@@Z 00000001800db674     font.obj
 0002:00097674       $chain$8$??$_Insert_hint@AEAU?$pair@$$CBIUTable@Font@woff2@@@std@@PEAU?$_Tree_node@U?$pair@$$CBIUTable@Font@woff2@@@std@@PEAX@2@@?$_Tree@V?$_Tmap_traits@IUTable@Font@woff2@@U?$less@I@std@@V?$allocator@U?$pair@$$CBIUTable@Font@woff2@@@std@@@5@$0A@@std@@@std@@IEAA?AV?$_Tree_iterator@V?$_Tree_val@U?$_Tree_simple_types@U?$pair@$$CBIUTable@Font@woff2@@@std@@@std@@@std@@@1@V?$_Tree_const_iterator@V?$_Tree_val@U?$_Tree_simple_types@U?$pair@$$CBIUTable@Font@woff2@@@std@@@std@@@std@@@1@AEAU?$pair@$$CBIUTable@Font@woff2@@@1@PEAU?$_Tree_node@U?$pair@$$CBIUTable@Font@woff2@@@std@@PEAX@1@@Z 00000001800db674     font.obj
 0002:00097674       $chain$2$??$_Insert_hint@AEAU?$pair@$$CBIUTable@Font@woff2@@@std@@PEAU?$_Tree_node@U?$pair@$$CBIUTable@Font@woff2@@@std@@PEAX@2@@?$_Tree@V?$_Tmap_traits@IUTable@Font@woff2@@U?$less@I@std@@V?$allocator@U?$pair@$$CBIUTable@Font@woff2@@@std@@@5@$0A@@std@@@std@@IEAA?AV?$_Tree_iterator@V?$_Tree_val@U?$_Tree_simple_types@U?$pair@$$CBIUTable@Font@woff2@@@std@@@std@@@std@@@1@V?$_Tree_const_iterator@V?$_Tree_val@U?$_Tree_simple_types@U?$pair@$$CBIUTable@Font@woff2@@@std@@@std@@@std@@@1@AEAU?$pair@$$CBIUTable@Font@woff2@@@1@PEAU?$_Tree_node@U?$pair@$$CBIUTable@Font@woff2@@@std@@PEAX@1@@Z 00000001800db674     font.obj
 0002:00097674       $chain$4$??$_Insert_hint@AEAU?$pair@$$CBIUTable@Font@woff2@@@std@@PEAU?$_Tree_node@U?$pair@$$CBIUTable@Font@woff2@@@std@@PEAX@2@@?$_Tree@V?$_Tmap_traits@IUTable@Font@woff2@@U?$less@I@std@@V?$allocator@U?$pair@$$CBIUTable@Font@woff2@@@std@@@5@$0A@@std@@@std@@IEAA?AV?$_Tree_iterator@V?$_Tree_val@U?$_Tree_simple_types@U?$pair@$$CBIUTable@Font@woff2@@@std@@@std@@@std@@@1@V?$_Tree_const_iterator@V?$_Tree_val@U?$_Tree_simple_types@U?$pair@$$CBIUTable@Font@woff2@@@std@@@std@@@std@@@1@AEAU?$pair@$$CBIUTable@Font@woff2@@@1@PEAU?$_Tree_node@U?$pair@$$CBIUTable@Font@woff2@@@std@@PEAX@1@@Z 00000001800db674     font.obj
 0002:00097688       $unwind$__std_exception_copy 00000001800db688     libvcruntime:std_exception.obj
 0002:00097688       $unwind$??$_Insert_at@AEBHU_Nil@std@@@?$_Tree@V?$_Tset_traits@HU?$less@H@std@@V?$allocator@H@2@$0A@@std@@@std@@IEAA?AV?$_Tree_const_iterator@V?$_Tree_val@U?$_Tree_simple_types@H@std@@@std@@@1@_NPEAU?$_Tree_node@HPEAX@1@AEBHU_Nil@1@@Z 00000001800db688     block_splitter.obj
 0002:00097688       $unwind$?assign@?$basic_string@DU?$char_traits@D@std@@V?$allocator@D@2@@std@@QEAAAEAV12@AEBV12@_K1@Z 00000001800db688     woff2_enc.obj
 0002:00097688       $unwind$?initialize_stdio_handles_nolock@@YAXXZ 00000001800db688     libucrt:ioinit.obj
 0002:00097688       $unwind$_free_osfhnd       00000001800db688     libucrt:osfinfo.obj
 0002:00097688       $unwind$??$_Partition_by_median_guess_unchecked@PEAIU?$less@X@std@@@std@@YA?AU?$pair@PEAIPEAI@0@PEAI0AEAU?$less@X@0@@Z 00000001800db688     font.obj
 0002:0009769c       $unwind$__GSHandlerCheckCommon 00000001800db69c     LIBCMT:_gshandler_.obj
 0002:0009769c       $unwind$??$_Make_heap_unchecked@PEAIU?$less@X@std@@@std@@YAXPEAI0AEAU?$less@X@0@@Z 00000001800db69c     font.obj
 0002:000976a4       $chain$1$??$_Make_heap_unchecked@PEAIU?$less@X@std@@@std@@YAXPEAI0AEAU?$less@X@0@@Z 00000001800db6a4     font.obj
 0002:000976bc       $chain$2$??$_Make_heap_unchecked@PEAIU?$less@X@std@@@std@@YAXPEAI0AEAU?$less@X@0@@Z 00000001800db6bc     font.obj
 0002:000976cc       $unwind$strrchr            00000001800db6cc     libvcruntime:strrchr.obj
 0002:000976cc       $unwind$??$_Sort_heap_unchecked@PEAIU?$less@X@std@@@std@@YAXPEAI0AEAU?$less@X@0@@Z 00000001800db6cc     font.obj
 0002:000976d4       $chain$5$??$_Sort_heap_unchecked@PEAIU?$less@X@std@@@std@@YAXPEAI0AEAU?$less@X@0@@Z 00000001800db6d4     font.obj
 0002:000976fc       $chain$6$??$_Sort_heap_unchecked@PEAIU?$less@X@std@@@std@@YAXPEAI0AEAU?$less@X@0@@Z 00000001800db6fc     font.obj
 0002:0009770c       $unwind$??$_Insertion_sort_unchecked@PEAIU?$less@X@std@@@std@@YAXPEAI0AEAU?$less@X@0@@Z 00000001800db70c     font.obj
 0002:00097718       $chain$0$??$_Insertion_sort_unchecked@PEAIU?$less@X@std@@@std@@YAXPEAI0AEAU?$less@X@0@@Z 00000001800db718     font.obj
 0002:0009772c       $chain$3$??$_Insertion_sort_unchecked@PEAIU?$less@X@std@@@std@@YAXPEAI0AEAU?$less@X@0@@Z 00000001800db72c     font.obj
 0002:00097748       $chain$4$??$_Insertion_sort_unchecked@PEAIU?$less@X@std@@@std@@YAXPEAI0AEAU?$less@X@0@@Z 00000001800db748     font.obj
 0002:00097758       $chain$5$??$_Insertion_sort_unchecked@PEAIU?$less@X@std@@@std@@YAXPEAI0AEAU?$less@X@0@@Z 00000001800db758     font.obj
 0002:00097768       $unwind$??$_Insert_nohint@AEAU?$pair@$$CBIPEAUTable@Font@woff2@@@std@@PEAU?$_Tree_node@U?$pair@$$CBIPEAUTable@Font@woff2@@@std@@PEAX@2@@?$_Tree@V?$_Tmap_traits@IPEAUTable@Font@woff2@@U?$less@I@std@@V?$allocator@U?$pair@$$CBIPEAUTable@Font@woff2@@@std@@@5@$0A@@std@@@std@@IEAA?AU?$pair@V?$_Tree_iterator@V?$_Tree_val@U?$_Tree_simple_types@U?$pair@$$CBIPEAUTable@Font@woff2@@@std@@@std@@@std@@@std@@_N@1@_NAEAU?$pair@$$CBIPEAUTable@Font@woff2@@@1@PEAU?$_Tree_node@U?$pair@$$CBIPEAUTable@Font@woff2@@@std@@PEAX@1@@Z 00000001800db768     font.obj
 0002:00097768       $unwind$??$_Insert_nohint@AEAU?$pair@$$CBIG@std@@PEAU?$_Tree_node@U?$pair@$$CBIG@std@@PEAX@2@@?$_Tree@V?$_Tmap_traits@IGU?$less@I@std@@V?$allocator@U?$pair@$$CBIG@std@@@2@$0A@@std@@@std@@IEAA?AU?$pair@V?$_Tree_iterator@V?$_Tree_val@U?$_Tree_simple_types@U?$pair@$$CBIG@std@@@std@@@std@@@std@@_N@1@_NAEAU?$pair@$$CBIG@1@PEAU?$_Tree_node@U?$pair@$$CBIG@std@@PEAX@1@@Z 00000001800db768     woff2_enc.obj
 0002:00097768       $unwind$??$_Insert_nohint@AEAU?$pair@$$CBHH@std@@PEAU?$_Tree_node@U?$pair@$$CBHH@std@@PEAX@2@@?$_Tree@V?$_Tmap_traits@HHU?$less@H@std@@V?$allocator@U?$pair@$$CBHH@std@@@2@$0A@@std@@@std@@IEAA?AU?$pair@V?$_Tree_iterator@V?$_Tree_val@U?$_Tree_simple_types@U?$pair@$$CBHH@std@@@std@@@std@@@std@@_N@1@_NAEAU?$pair@$$CBHH@1@PEAU?$_Tree_node@U?$pair@$$CBHH@std@@PEAX@1@@Z 00000001800db768     block_splitter.obj
 0002:00097768       $unwind$??$_Insert_nohint@AEBHU_Nil@std@@@?$_Tree@V?$_Tset_traits@HU?$less@H@std@@V?$allocator@H@2@$0A@@std@@@std@@IEAA?AU?$pair@V?$_Tree_const_iterator@V?$_Tree_val@U?$_Tree_simple_types@H@std@@@std@@@std@@_N@1@_NAEBHU_Nil@1@@Z 00000001800db768     block_splitter.obj
 0002:00097768       $unwind$??$_Insert_nohint@AEAU?$pair@$$CBEE@std@@PEAU?$_Tree_node@U?$pair@$$CBEE@std@@PEAX@2@@?$_Tree@V?$_Tmap_traits@EEU?$less@E@std@@V?$allocator@U?$pair@$$CBEE@std@@@2@$0A@@std@@@std@@IEAA?AU?$pair@V?$_Tree_iterator@V?$_Tree_val@U?$_Tree_simple_types@U?$pair@$$CBEE@std@@@std@@@std@@@std@@_N@1@_NAEAU?$pair@$$CBEE@1@PEAU?$_Tree_node@U?$pair@$$CBEE@std@@PEAX@1@@Z 00000001800db768     block_splitter.obj
 0002:00097768       $unwind$??$_Insert_nohint@AEAU?$pair@$$CBII@std@@PEAU?$_Tree_node@U?$pair@$$CBII@std@@PEAX@2@@?$_Tree@V?$_Tmap_traits@IIU?$less@I@std@@V?$allocator@U?$pair@$$CBII@std@@@2@$0A@@std@@@std@@IEAA?AU?$pair@V?$_Tree_iterator@V?$_Tree_val@U?$_Tree_simple_types@U?$pair@$$CBII@std@@@std@@@std@@@std@@_N@1@_NAEAU?$pair@$$CBII@1@PEAU?$_Tree_node@U?$pair@$$CBII@std@@PEAX@1@@Z 00000001800db768     font.obj
 0002:00097774       $unwind$??$_Insert_nohint@AEAU?$pair@$$CBIUTable@Font@woff2@@@std@@PEAU?$_Tree_node@U?$pair@$$CBIUTable@Font@woff2@@@std@@PEAX@2@@?$_Tree@V?$_Tmap_traits@IUTable@Font@woff2@@U?$less@I@std@@V?$allocator@U?$pair@$$CBIUTable@Font@woff2@@@std@@@5@$0A@@std@@@std@@IEAA?AU?$pair@V?$_Tree_iterator@V?$_Tree_val@U?$_Tree_simple_types@U?$pair@$$CBIUTable@Font@woff2@@@std@@@std@@@std@@@std@@_N@1@_NAEAU?$pair@$$CBIUTable@Font@woff2@@@1@PEAU?$_Tree_node@U?$pair@$$CBIUTable@Font@woff2@@@std@@PEAX@1@@Z 00000001800db774     font.obj
 0002:00097784       $unwind$?erase@?$_Tree@V?$_Tmap_traits@IUTable@Font@woff2@@U?$less@I@std@@V?$allocator@U?$pair@$$CBIUTable@Font@woff2@@@std@@@5@$0A@@std@@@std@@QEAA?AV?$_Tree_iterator@V?$_Tree_val@U?$_Tree_simple_types@U?$pair@$$CBIUTable@Font@woff2@@@std@@@std@@@std@@@2@V?$_Tree_const_iterator@V?$_Tree_val@U?$_Tree_simple_types@U?$pair@$$CBIUTable@Font@woff2@@@std@@@std@@@std@@@2@0@Z 00000001800db784     font.obj
 0002:00097790       $chain$0$?_Erase@?$_Tree@V?$_Tmap_traits@IUTable@Font@woff2@@U?$less@I@std@@V?$allocator@U?$pair@$$CBIUTable@Font@woff2@@@std@@@5@$0A@@std@@@std@@IEAAXPEAU?$_Tree_node@U?$pair@$$CBIUTable@Font@woff2@@@std@@PEAX@2@@Z 00000001800db790     font.obj
 0002:000977a4       $chain$1$?_Erase@?$_Tree@V?$_Tmap_traits@IUTable@Font@woff2@@U?$less@I@std@@V?$allocator@U?$pair@$$CBIUTable@Font@woff2@@@std@@@5@$0A@@std@@@std@@IEAAXPEAU?$_Tree_node@U?$pair@$$CBIUTable@Font@woff2@@@std@@PEAX@2@@Z 00000001800db7a4     font.obj
 0002:000977b4       $chain$2$?_Erase@?$_Tree@V?$_Tmap_traits@IUTable@Font@woff2@@U?$less@I@std@@V?$allocator@U?$pair@$$CBIUTable@Font@woff2@@@std@@@5@$0A@@std@@@std@@IEAAXPEAU?$_Tree_node@U?$pair@$$CBIUTable@Font@woff2@@@std@@PEAX@2@@Z 00000001800db7b4     font.obj
 0002:000977c8       $unwind$??$_Guess_median_unchecked@PEAIU?$less@X@std@@@std@@YAXPEAI00AEAU?$less@X@0@@Z 00000001800db7c8     font.obj
 0002:000977d0       $chain$0$??$_Guess_median_unchecked@PEAIU?$less@X@std@@@std@@YAXPEAI00AEAU?$less@X@0@@Z 00000001800db7d0     font.obj
 0002:000977e4       $chain$1$??$_Guess_median_unchecked@PEAIU?$less@X@std@@@std@@YAXPEAI00AEAU?$less@X@0@@Z 00000001800db7e4     font.obj
 0002:000977f4       $unwind$fwprintf           00000001800db7f4     libucrt:assert.obj
 0002:000977f4       $unwind$fprintf            00000001800db7f4     normalize.obj
 0002:00097800       $unwind$?WriteNormalizedLoca@?A0x2d59e7ae@woff2@@YA_NHHPEAUFont@2@@Z 00000001800db800     normalize.obj
 0002:0009781c       $unwind$?MakeEditableBuffer@?A0x2d59e7ae@woff2@@YA_NPEAUFont@2@H@Z 00000001800db81c     normalize.obj
 0002:00097824       $chain$1$?MakeEditableBuffer@?A0x2d59e7ae@woff2@@YA_NPEAUFont@2@H@Z 00000001800db824     normalize.obj
 0002:0009783c       $chain$2$?MakeEditableBuffer@?A0x2d59e7ae@woff2@@YA_NPEAUFont@2@H@Z 00000001800db83c     normalize.obj
 0002:0009784c       $unwind$?WriteBytes@?A0x41905820@woff2@@YAXPEAV?$vector@EV?$allocator@E@std@@@std@@AEBV34@@Z 00000001800db84c     transform.obj
 0002:0009784c       $unwind$?NormalizeGlyphs@woff2@@YA_NPEAUFont@1@@Z 00000001800db84c     normalize.obj
 0002:0009785c       $chain$1$?NormalizeGlyphs@woff2@@YA_NPEAUFont@1@@Z 00000001800db85c     normalize.obj
 0002:00097874       $unwind$?NormalizeOffsets@woff2@@YA_NPEAUFont@1@@Z 00000001800db874     normalize.obj
 0002:0009787c       $chain$3$?NormalizeOffsets@woff2@@YA_NPEAUFont@1@@Z 00000001800db87c     normalize.obj
 0002:0009789c       $chain$5$?NormalizeOffsets@woff2@@YA_NPEAUFont@1@@Z 00000001800db89c     normalize.obj
 0002:000978b4       $chain$6$?NormalizeOffsets@woff2@@YA_NPEAUFont@1@@Z 00000001800db8b4     normalize.obj
 0002:000978c4       $chain$7$?NormalizeOffsets@woff2@@YA_NPEAUFont@1@@Z 00000001800db8c4     normalize.obj
 0002:000978d4       $unwind$?FixChecksums@woff2@@YA_NPEAUFont@1@@Z 00000001800db8d4     normalize.obj
 0002:000978e4       $chain$2$?FixChecksums@woff2@@YA_NPEAUFont@1@@Z 00000001800db8e4     normalize.obj
 0002:000978f8       $chain$3$?FixChecksums@woff2@@YA_NPEAUFont@1@@Z 00000001800db8f8     normalize.obj
 0002:00097908       $unwind$?NormalizeFontCollection@woff2@@YA_NPEAUFontCollection@1@@Z 00000001800db908     normalize.obj
 0002:00097914       $chain$0$?NormalizeFontCollection@woff2@@YA_NPEAUFontCollection@1@@Z 00000001800db914     normalize.obj
 0002:00097928       $chain$4$?NormalizeFontCollection@woff2@@YA_NPEAUFontCollection@1@@Z 00000001800db928     normalize.obj
 0002:00097948       $chain$5$?NormalizeFontCollection@woff2@@YA_NPEAUFontCollection@1@@Z 00000001800db948     normalize.obj
 0002:00097958       $chain$7$?NormalizeFontCollection@woff2@@YA_NPEAUFontCollection@1@@Z 00000001800db958     normalize.obj
 0002:00097958       $chain$9$?NormalizeFontCollection@woff2@@YA_NPEAUFontCollection@1@@Z 00000001800db958     normalize.obj
 0002:0009797c       $chain$1$?WriteBytes@?A0x41905820@woff2@@YAXPEAV?$vector@EV?$allocator@E@std@@@std@@AEBV34@@Z 00000001800db97c     transform.obj
 0002:00097994       $chain$2$?WriteBytes@?A0x41905820@woff2@@YAXPEAV?$vector@EV?$allocator@E@std@@@std@@AEBV34@@Z 00000001800db994     transform.obj
 0002:000979a4       $chain$3$?WriteBytes@?A0x41905820@woff2@@YAXPEAV?$vector@EV?$allocator@E@std@@@std@@AEBV34@@Z 00000001800db9a4     transform.obj
 0002:000979bc       $unwind$?WriteUShort@?A0x41905820@woff2@@YAXPEAV?$vector@EV?$allocator@E@std@@@std@@H@Z 00000001800db9bc     transform.obj
 0002:000979bc       $unwind$?WriteLong@?A0x41905820@woff2@@YAXPEAV?$vector@EV?$allocator@E@std@@@std@@H@Z 00000001800db9bc     transform.obj
 0002:000979cc       $unwind$?GetTransformedGlyfBytes@GlyfEncoder@?A0x41905820@woff2@@QEAAXPEAV?$vector@EV?$allocator@E@std@@@std@@@Z 00000001800db9cc     transform.obj
 0002:000979cc       $unwind$??$_Insert@AEAU?$pair@$$CBV?$basic_string@DU?$char_traits@D@std@@V?$allocator@D@2@@std@@H@std@@V?$_List_unchecked_iterator@V?$_List_val@U?$_List_simple_types@U?$pair@$$CBV?$basic_string@DU?$char_traits@D@std@@V?$allocator@D@2@@std@@H@std@@@std@@@std@@@2@@?$_Hash@V?$_Umap_traits@V?$basic_string@DU?$char_traits@D@std@@V?$allocator@D@2@@std@@HV?$_Uhash_compare@V?$basic_string@DU?$char_traits@D@std@@V?$allocator@D@2@@std@@U?$hash@V?$basic_string@DU?$char_traits@D@std@@V?$allocator@D@2@@std@@@2@U?$equal_to@V?$basic_string@DU?$char_traits@D@std@@V?$allocator@D@2@@std@@@2@@2@V?$allocator@U?$pair@$$CBV?$basic_string@DU?$char_traits@D@std@@V?$allocator@D@2@@std@@H@std@@@2@$0A@@std@@@std@@IEAA?AU?$pair@V?$_List_iterator@V?$_List_val@U?$_List_simple_types@U?$pair@$$CBV?$basic_string@DU?$char_traits@D@std@@V?$allocator@D@2@@std@@H@std@@@std@@@std@@@std@@_N@1@AEAU?$pair@$$CBV?$basic_string@DU?$char_traits@D@std@@V?$allocator@D@2@@std@@H@1@V?$_List_unchecked_iterator@V?$_List_val@U?$_List_simple_types@U?$pair@$$CBV?$basic_string@DU?$char_traits@D@std@@V?$allocator@D@2@@std@@H@std@@@std@@@std@@@1@@Z 00000001800db9cc     encode.obj
 0002:000979e8       $unwind$?ShouldWriteSimpleGlyphBbox@GlyfEncoder@?A0x41905820@woff2@@AEAA_NAEBVGlyph@3@@Z 00000001800db9e8     transform.obj
 0002:000979e8       $unwind$?IsMostlyUTF8@brotli@@YA_NPEBE_KN@Z 00000001800db9e8     encode.obj
 0002:000979e8       $unwind$__scrt_is_nonwritable_in_current_image$filt$0 00000001800db9e8     LIBCMT:utility.obj
 0002:000979f0       $chain$2$?ShouldWriteSimpleGlyphBbox@GlyfEncoder@?A0x41905820@woff2@@AEAA_NAEBVGlyph@3@@Z 00000001800db9f0     transform.obj
 0002:00097a0c       $chain$3$?ShouldWriteSimpleGlyphBbox@GlyfEncoder@?A0x41905820@woff2@@AEAA_NAEBVGlyph@3@@Z 00000001800dba0c     transform.obj
 0002:00097a0c       $chain$5$?ShouldWriteSimpleGlyphBbox@GlyfEncoder@?A0x41905820@woff2@@AEAA_NAEBVGlyph@3@@Z 00000001800dba0c     transform.obj
 0002:00097a24       $chain$6$?ShouldWriteSimpleGlyphBbox@GlyfEncoder@?A0x41905820@woff2@@AEAA_NAEBVGlyph@3@@Z 00000001800dba24     transform.obj
 0002:00097a34       $unwind$?WriteSimpleGlyph@GlyfEncoder@?A0x41905820@woff2@@AEAAXHAEBVGlyph@3@@Z 00000001800dba34     transform.obj
 0002:00097a44       $chain$3$?WriteSimpleGlyph@GlyfEncoder@?A0x41905820@woff2@@AEAAXHAEBVGlyph@3@@Z 00000001800dba44     transform.obj
 0002:00097a64       $chain$4$?WriteSimpleGlyph@GlyfEncoder@?A0x41905820@woff2@@AEAAXHAEBVGlyph@3@@Z 00000001800dba64     transform.obj
 0002:00097a7c       $unwind$?WriteTriplet@GlyfEncoder@?A0x41905820@woff2@@AEAAX_NHH@Z 00000001800dba7c     transform.obj
 0002:00097a90       $chain$0$?WriteTriplet@GlyfEncoder@?A0x41905820@woff2@@AEAAX_NHH@Z 00000001800dba90     transform.obj
 0002:00097aa4       $chain$1$?WriteTriplet@GlyfEncoder@?A0x41905820@woff2@@AEAAX_NHH@Z 00000001800dbaa4     transform.obj
 0002:00097ab4       $unwind$?TransformGlyfAndLocaTables@woff2@@YA_NPEAUFont@1@@Z 00000001800dbab4     transform.obj
 0002:00097ac4       $chain$0$?TransformGlyfAndLocaTables@woff2@@YA_NPEAUFont@1@@Z 00000001800dbac4     transform.obj
 0002:00097ad8       $chain$3$?TransformGlyfAndLocaTables@woff2@@YA_NPEAUFont@1@@Z 00000001800dbad8     transform.obj
 0002:00097af4       $chain$4$?TransformGlyfAndLocaTables@woff2@@YA_NPEAUFont@1@@Z 00000001800dbaf4     transform.obj
 0002:00097af4       $chain$6$?TransformGlyfAndLocaTables@woff2@@YA_NPEAUFont@1@@Z 00000001800dbaf4     transform.obj
 0002:00097b04       $chain$5$?TransformGlyfAndLocaTables@woff2@@YA_NPEAUFont@1@@Z 00000001800dbb04     transform.obj
 0002:00097b20       $chain$8$?TransformGlyfAndLocaTables@woff2@@YA_NPEAUFont@1@@Z 00000001800dbb20     transform.obj
 0002:00097b34       $unwind$?Write255UShort@woff2@@YAXPEAV?$vector@EV?$allocator@E@std@@@std@@H@Z 00000001800dbb34     variable_length.obj
 0002:00097b44       $chain$0$?Write255UShort@woff2@@YAXPEAV?$vector@EV?$allocator@E@std@@@std@@H@Z 00000001800dbb44     variable_length.obj
 0002:00097b58       $chain$1$?Write255UShort@woff2@@YAXPEAV?$vector@EV?$allocator@E@std@@@std@@H@Z 00000001800dbb58     variable_length.obj
 0002:00097b68       $unwind$?Store255UShort@woff2@@YAXHPEA_KPEAE@Z 00000001800dbb68     variable_length.obj
 0002:00097b68       $unwind$_stricmp_l         00000001800dbb68     libucrt:stricmp.obj
 0002:00097b68       $unwind$?x_ismbbtype_l@@YAHPEAU__crt_locale_pointers@@IHH@Z 00000001800dbb68     libucrt:ismbbyte.obj
 0002:00097b78       $unwind$?StoreBase128@woff2@@YAX_KPEA_KPEAE@Z 00000001800dbb78     variable_length.obj
 0002:00097b84       $chain$0$?StoreBase128@woff2@@YAX_KPEA_KPEAE@Z 00000001800dbb84     variable_length.obj
 0002:00097b98       $chain$1$?StoreBase128@woff2@@YAX_KPEA_KPEAE@Z 00000001800dbb98     variable_length.obj
 0002:00097ba8       $unwind$?Compress@?A0x683ef156@woff2@@YA_NPEBE_KPEAEPEAIW4Mode@BrotliParams@brotli@@@Z 00000001800dbba8     woff2_enc.obj
 0002:00097bb0       $unwind$?ComputeWoff2Length@?A0x683ef156@woff2@@YA_KAEBUFontCollection@2@AEBV?$vector@UTable@woff2@@V?$allocator@UTable@woff2@@@std@@@std@@V?$map@IGU?$less@I@std@@V?$allocator@U?$pair@$$CBIG@std@@@2@@5@_K@Z 00000001800dbbb0     woff2_enc.obj
 0002:00097bc0       $chain$1$?ComputeWoff2Length@?A0x683ef156@woff2@@YA_KAEBUFontCollection@2@AEBV?$vector@UTable@woff2@@V?$allocator@UTable@woff2@@@std@@@std@@V?$map@IGU?$less@I@std@@V?$allocator@U?$pair@$$CBIG@std@@@2@@5@_K@Z 00000001800dbbc0     woff2_enc.obj
 0002:00097bd8       $chain$2$?ComputeWoff2Length@?A0x683ef156@woff2@@YA_KAEBUFontCollection@2@AEBV?$vector@UTable@woff2@@V?$allocator@UTable@woff2@@@std@@@std@@V?$map@IGU?$less@I@std@@V?$allocator@U?$pair@$$CBIG@std@@@2@@5@_K@Z 00000001800dbbd8     woff2_enc.obj
 0002:00097bec       $chain$3$?ComputeWoff2Length@?A0x683ef156@woff2@@YA_KAEBUFontCollection@2@AEBV?$vector@UTable@woff2@@V?$allocator@UTable@woff2@@@std@@@std@@V?$map@IGU?$less@I@std@@V?$allocator@U?$pair@$$CBIG@std@@@2@@5@_K@Z 00000001800dbbec     woff2_enc.obj
 0002:00097c00       $chain$4$?ComputeWoff2Length@?A0x683ef156@woff2@@YA_KAEBUFontCollection@2@AEBV?$vector@UTable@woff2@@V?$allocator@UTable@woff2@@@std@@@std@@V?$map@IGU?$less@I@std@@V?$allocator@U?$pair@$$CBIG@std@@@2@@5@_K@Z 00000001800dbc00     woff2_enc.obj
 0002:00097c10       $chain$5$?ComputeWoff2Length@?A0x683ef156@woff2@@YA_KAEBUFontCollection@2@AEBV?$vector@UTable@woff2@@V?$allocator@UTable@woff2@@@std@@@std@@V?$map@IGU?$less@I@std@@V?$allocator@U?$pair@$$CBIG@std@@@2@@5@_K@Z 00000001800dbc10     woff2_enc.obj
 0002:00097c20       $chain$6$?ComputeWoff2Length@?A0x683ef156@woff2@@YA_KAEBUFontCollection@2@AEBV?$vector@UTable@woff2@@V?$allocator@UTable@woff2@@@std@@@std@@V?$map@IGU?$less@I@std@@V?$allocator@U?$pair@$$CBIG@std@@@2@@5@_K@Z 00000001800dbc20     woff2_enc.obj
 0002:00097c30       $unwind$?ComputeUncompressedLength@?A0x683ef156@woff2@@YA_KAEBUFontCollection@2@@Z 00000001800dbc30     woff2_enc.obj
 0002:00097c3c       $unwind$?MaxWOFF2CompressedSize@woff2@@YA_KPEBE_K@Z 00000001800dbc3c     woff2_enc.obj
 0002:00097c4c       $unwind$?ConvertTTFToWOFF2@woff2@@YA_NPEBE_KPEAEPEA_K@Z 00000001800dbc4c     woff2_enc.obj
 0002:00097c64       $unwind$?ConvertTTFToWOFF2@woff2@@YA_NPEBE_KPEAEPEA_KAEBV?$basic_string@DU?$char_traits@D@std@@V?$allocator@D@2@@std@@@Z 00000001800dbc64     woff2_enc.obj
 0002:00097c84       $chain$0$?_Reallocate@?$vector@UTable@woff2@@V?$allocator@UTable@woff2@@@std@@@std@@IEAAX_K@Z 00000001800dbc84     woff2_enc.obj
 0002:00097c98       $chain$1$?_Reallocate@?$vector@UTable@woff2@@V?$allocator@UTable@woff2@@@std@@@std@@IEAAX_K@Z 00000001800dbc98     woff2_enc.obj
 0002:00097ca8       $unwind$?_Copy@?$basic_string@DU?$char_traits@D@std@@V?$allocator@D@2@@std@@QEAAX_K0@Z 00000001800dbca8     woff2_enc.obj
 0002:00097cbc       $unwind$??$?0U?$_Wrap_alloc@V?$allocator@U?$_Tree_node@U?$pair@$$CBIG@std@@PEAX@std@@@std@@@std@@@?$_Tree@V?$_Tmap_traits@IGU?$less@I@std@@V?$allocator@U?$pair@$$CBIG@std@@@2@$0A@@std@@@std@@QEAA@AEBV01@$$QEAU?$_Wrap_alloc@V?$allocator@U?$_Tree_node@U?$pair@$$CBIG@std@@PEAX@std@@@std@@@1@@Z 00000001800dbcbc     woff2_enc.obj
 0002:00097cbc       $unwind$__acrt_lowio_destroy_handle_array 00000001800dbcbc     libucrt:osfinfo.obj
 0002:00097ccc       $unwind$??$_Copy_nodes@U_Copy_tag@?$_Tree@V?$_Tmap_traits@IGU?$less@I@std@@V?$allocator@U?$pair@$$CBIG@std@@@2@$0A@@std@@@std@@@?$_Tree@V?$_Tmap_traits@IGU?$less@I@std@@V?$allocator@U?$pair@$$CBIG@std@@@2@$0A@@std@@@std@@IEAAPEAU?$_Tree_node@U?$pair@$$CBIG@std@@PEAX@1@PEAU21@0U_Copy_tag@01@@Z 00000001800dbccc     woff2_enc.obj
 0002:00097cd8       $chain$1$??$_Copy_nodes@U_Copy_tag@?$_Tree@V?$_Tmap_traits@IGU?$less@I@std@@V?$allocator@U?$pair@$$CBIG@std@@@2@$0A@@std@@@std@@@?$_Tree@V?$_Tmap_traits@IGU?$less@I@std@@V?$allocator@U?$pair@$$CBIG@std@@@2@$0A@@std@@@std@@IEAAPEAU?$_Tree_node@U?$pair@$$CBIG@std@@PEAX@1@PEAU21@0U_Copy_tag@01@@Z 00000001800dbcd8     woff2_enc.obj
 0002:00097cf0       $chain$2$??$_Copy_nodes@U_Copy_tag@?$_Tree@V?$_Tmap_traits@IGU?$less@I@std@@V?$allocator@U?$pair@$$CBIG@std@@@2@$0A@@std@@@std@@@?$_Tree@V?$_Tmap_traits@IGU?$less@I@std@@V?$allocator@U?$pair@$$CBIG@std@@@2@$0A@@std@@@std@@IEAAPEAU?$_Tree_node@U?$pair@$$CBIG@std@@PEAX@1@PEAU21@0U_Copy_tag@01@@Z 00000001800dbcf0     woff2_enc.obj
 0002:00097d00       $unwind$?GetLength@StaticDictionary@brotli@@QEBAHI@Z 00000001800dbd00     backward_references.obj
 0002:00097d08       $unwind$?BackwardReferenceScore@brotli@@YANNHH@Z 00000001800dbd08     backward_references.obj
 0002:00097d14       $unwind$?GetLengthCode@brotli@@YAXHHHPEAGPEA_K@Z 00000001800dbd14     backward_references.obj
 0002:00097d2c       $unwind$?CreateBackwardReferences@brotli@@YAX_K0PEBE0PEBM0_KNHPEAUHashers@1@HPEAH5PEAUCommand@1@5@Z 00000001800dbd2c     backward_references.obj
 0002:00097d34       $unwind$?lower_bound@?$_Hash@V?$_Umap_traits@V?$basic_string@DU?$char_traits@D@std@@V?$allocator@D@2@@std@@HV?$_Uhash_compare@V?$basic_string@DU?$char_traits@D@std@@V?$allocator@D@2@@std@@U?$hash@V?$basic_string@DU?$char_traits@D@std@@V?$allocator@D@2@@std@@@2@U?$equal_to@V?$basic_string@DU?$char_traits@D@std@@V?$allocator@D@2@@std@@@2@@2@V?$allocator@U?$pair@$$CBV?$basic_string@DU?$char_traits@D@std@@V?$allocator@D@2@@std@@H@std@@@2@$0A@@std@@@std@@QEAA?AV?$_List_iterator@V?$_List_val@U?$_List_simple_types@U?$pair@$$CBV?$basic_string@DU?$char_traits@D@std@@V?$allocator@D@2@@std@@H@std@@@std@@@std@@@2@AEBV?$basic_string@DU?$char_traits@D@std@@V?$allocator@D@2@@2@@Z 00000001800dbd34     encode.obj
 0002:00097d34       $unwind$?lower_bound@?$_Hash@V?$_Umap_traits@V?$basic_string@DU?$char_traits@D@std@@V?$allocator@D@2@@std@@HV?$_Uhash_compare@V?$basic_string@DU?$char_traits@D@std@@V?$allocator@D@2@@std@@U?$hash@V?$basic_string@DU?$char_traits@D@std@@V?$allocator@D@2@@std@@@2@U?$equal_to@V?$basic_string@DU?$char_traits@D@std@@V?$allocator@D@2@@std@@@2@@2@V?$allocator@U?$pair@$$CBV?$basic_string@DU?$char_traits@D@std@@V?$allocator@D@2@@std@@H@std@@@2@$0A@@std@@@std@@QEBA?AV?$_List_const_iterator@V?$_List_val@U?$_List_simple_types@U?$pair@$$CBV?$basic_string@DU?$char_traits@D@std@@V?$allocator@D@2@@std@@H@std@@@std@@@std@@@2@AEBV?$basic_string@DU?$char_traits@D@std@@V?$allocator@D@2@@2@@Z 00000001800dbd34     backward_references.obj
 0002:00097d50       $unwind$??$CreateBackwardReferences@V?$HashLongestMatchQuickly@$0BA@$00@brotli@@$0A@$0A@@brotli@@YAX_K0PEBE0PEBM0_KNHPEAV?$HashLongestMatchQuickly@$0BA@$00@0@PEAH5PEAUCommand@0@5@Z 00000001800dbd50     backward_references.obj
 0002:00097d64       $chain$9$??$CreateBackwardReferences@V?$HashLongestMatchQuickly@$0BA@$00@brotli@@$0A@$0A@@brotli@@YAX_K0PEBE0PEBM0_KNHPEAV?$HashLongestMatchQuickly@$0BA@$00@0@PEAH5PEAUCommand@0@5@Z 00000001800dbd64     backward_references.obj
 0002:00097d9c       $chain$10$??$CreateBackwardReferences@V?$HashLongestMatchQuickly@$0BA@$00@brotli@@$0A@$0A@@brotli@@YAX_K0PEBE0PEBM0_KNHPEAV?$HashLongestMatchQuickly@$0BA@$00@0@PEAH5PEAUCommand@0@5@Z 00000001800dbd9c     backward_references.obj
 0002:00097dac       $unwind$??$CreateBackwardReferences@V?$HashLongestMatchQuickly@$0BB@$03@brotli@@$0A@$0A@@brotli@@YAX_K0PEBE0PEBM0_KNHPEAV?$HashLongestMatchQuickly@$0BB@$03@0@PEAH5PEAUCommand@0@5@Z 00000001800dbdac     backward_references.obj
 0002:00097dc4       $chain$4$??$CreateBackwardReferences@V?$HashLongestMatchQuickly@$0BB@$03@brotli@@$0A@$0A@@brotli@@YAX_K0PEBE0PEBM0_KNHPEAV?$HashLongestMatchQuickly@$0BB@$03@0@PEAH5PEAUCommand@0@5@Z 00000001800dbdc4     backward_references.obj
 0002:00097de8       $chain$5$??$CreateBackwardReferences@V?$HashLongestMatchQuickly@$0BB@$03@brotli@@$0A@$0A@@brotli@@YAX_K0PEBE0PEBM0_KNHPEAV?$HashLongestMatchQuickly@$0BB@$03@0@PEAH5PEAUCommand@0@5@Z 00000001800dbde8     backward_references.obj
 0002:00097df8       $unwind$??$CreateBackwardReferences@V?$HashLongestMatch@$0O@$04$03$03$0A@$0A@@brotli@@$0A@$0A@@brotli@@YAX_K0PEBE0PEBM0_KNHPEAV?$HashLongestMatch@$0O@$04$03$03$0A@$0A@@0@PEAH5PEAUCommand@0@5@Z 00000001800dbdf8     backward_references.obj
 0002:00097df8       $unwind$??$CreateBackwardReferences@V?$HashLongestMatch@$0P@$07$03$0BA@$0A@$0A@@brotli@@$0A@$0A@@brotli@@YAX_K0PEBE0PEBM0_KNHPEAV?$HashLongestMatch@$0P@$07$03$0BA@$0A@$0A@@0@PEAH5PEAUCommand@0@5@Z 00000001800dbdf8     backward_references.obj
 0002:00097df8       $unwind$??$CreateBackwardReferences@V?$HashLongestMatch@$0P@$06$03$09$0A@$0A@@brotli@@$0A@$0A@@brotli@@YAX_K0PEBE0PEBM0_KNHPEAV?$HashLongestMatch@$0P@$06$03$09$0A@$0A@@0@PEAH5PEAUCommand@0@5@Z 00000001800dbdf8     backward_references.obj
 0002:00097df8       $unwind$??$CreateBackwardReferences@V?$HashLongestMatch@$0P@$05$03$09$0A@$0A@@brotli@@$0A@$0A@@brotli@@YAX_K0PEBE0PEBM0_KNHPEAV?$HashLongestMatch@$0P@$05$03$09$0A@$0A@@0@PEAH5PEAUCommand@0@5@Z 00000001800dbdf8     backward_references.obj
 0002:00097df8       $unwind$??$CreateBackwardReferences@V?$HashLongestMatch@$0O@$03$03$03$0A@$0A@@brotli@@$0A@$0A@@brotli@@YAX_K0PEBE0PEBM0_KNHPEAV?$HashLongestMatch@$0O@$03$03$03$0A@$0A@@0@PEAH5PEAUCommand@0@5@Z 00000001800dbdf8     backward_references.obj
 0002:00097e10       $chain$3$??$CreateBackwardReferences@V?$HashLongestMatch@$0O@$03$03$03$0A@$0A@@brotli@@$0A@$0A@@brotli@@YAX_K0PEBE0PEBM0_KNHPEAV?$HashLongestMatch@$0O@$03$03$03$0A@$0A@@0@PEAH5PEAUCommand@0@5@Z 00000001800dbe10     backward_references.obj
 0002:00097e30       $chain$4$??$CreateBackwardReferences@V?$HashLongestMatch@$0O@$03$03$03$0A@$0A@@brotli@@$0A@$0A@@brotli@@YAX_K0PEBE0PEBM0_KNHPEAV?$HashLongestMatch@$0O@$03$03$03$0A@$0A@@0@PEAH5PEAUCommand@0@5@Z 00000001800dbe30     backward_references.obj
 0002:00097e40       $chain$3$??$CreateBackwardReferences@V?$HashLongestMatch@$0O@$04$03$03$0A@$0A@@brotli@@$0A@$0A@@brotli@@YAX_K0PEBE0PEBM0_KNHPEAV?$HashLongestMatch@$0O@$04$03$03$0A@$0A@@0@PEAH5PEAUCommand@0@5@Z 00000001800dbe40     backward_references.obj
 0002:00097e60       $chain$4$??$CreateBackwardReferences@V?$HashLongestMatch@$0O@$04$03$03$0A@$0A@@brotli@@$0A@$0A@@brotli@@YAX_K0PEBE0PEBM0_KNHPEAV?$HashLongestMatch@$0O@$04$03$03$0A@$0A@@0@PEAH5PEAUCommand@0@5@Z 00000001800dbe60     backward_references.obj
 0002:00097e70       $chain$3$??$CreateBackwardReferences@V?$HashLongestMatch@$0P@$05$03$09$0A@$0A@@brotli@@$0A@$0A@@brotli@@YAX_K0PEBE0PEBM0_KNHPEAV?$HashLongestMatch@$0P@$05$03$09$0A@$0A@@0@PEAH5PEAUCommand@0@5@Z 00000001800dbe70     backward_references.obj
 0002:00097e90       $chain$4$??$CreateBackwardReferences@V?$HashLongestMatch@$0P@$05$03$09$0A@$0A@@brotli@@$0A@$0A@@brotli@@YAX_K0PEBE0PEBM0_KNHPEAV?$HashLongestMatch@$0P@$05$03$09$0A@$0A@@0@PEAH5PEAUCommand@0@5@Z 00000001800dbe90     backward_references.obj
 0002:00097ea0       $chain$3$??$CreateBackwardReferences@V?$HashLongestMatch@$0P@$06$03$09$0A@$0A@@brotli@@$0A@$0A@@brotli@@YAX_K0PEBE0PEBM0_KNHPEAV?$HashLongestMatch@$0P@$06$03$09$0A@$0A@@0@PEAH5PEAUCommand@0@5@Z 00000001800dbea0     backward_references.obj
 0002:00097ec0       $chain$4$??$CreateBackwardReferences@V?$HashLongestMatch@$0P@$06$03$09$0A@$0A@@brotli@@$0A@$0A@@brotli@@YAX_K0PEBE0PEBM0_KNHPEAV?$HashLongestMatch@$0P@$06$03$09$0A@$0A@@0@PEAH5PEAUCommand@0@5@Z 00000001800dbec0     backward_references.obj
 0002:00097ed0       $chain$3$??$CreateBackwardReferences@V?$HashLongestMatch@$0P@$07$03$0BA@$0A@$0A@@brotli@@$0A@$0A@@brotli@@YAX_K0PEBE0PEBM0_KNHPEAV?$HashLongestMatch@$0P@$07$03$0BA@$0A@$0A@@0@PEAH5PEAUCommand@0@5@Z 00000001800dbed0     backward_references.obj
 0002:00097ef0       $chain$4$??$CreateBackwardReferences@V?$HashLongestMatch@$0P@$07$03$0BA@$0A@$0A@@brotli@@$0A@$0A@@brotli@@YAX_K0PEBE0PEBM0_KNHPEAV?$HashLongestMatch@$0P@$07$03$0BA@$0A@$0A@@0@PEAH5PEAUCommand@0@5@Z 00000001800dbef0     backward_references.obj
 0002:00097f00       $unwind$??$CreateBackwardReferences@V?$HashLongestMatch@$0P@$07$03$0BA@$00$00@brotli@@$00$00@brotli@@YAX_K0PEBE0PEBM0_KNHPEAV?$HashLongestMatch@$0P@$07$03$0BA@$00$00@0@PEAH5PEAUCommand@0@5@Z 00000001800dbf00     backward_references.obj
 0002:00097f2c       $chain$6$??$CreateBackwardReferences@V?$HashLongestMatch@$0P@$07$03$0BA@$00$00@brotli@@$00$00@brotli@@YAX_K0PEBE0PEBM0_KNHPEAV?$HashLongestMatch@$0P@$07$03$0BA@$00$00@0@PEAH5PEAUCommand@0@5@Z 00000001800dbf2c     backward_references.obj
 0002:00097f58       $chain$7$??$CreateBackwardReferences@V?$HashLongestMatch@$0P@$07$03$0BA@$00$00@brotli@@$00$00@brotli@@YAX_K0PEBE0PEBM0_KNHPEAV?$HashLongestMatch@$0P@$07$03$0BA@$00$00@0@PEAH5PEAUCommand@0@5@Z 00000001800dbf58     backward_references.obj
 0002:00097f68       $unwind$??$CreateBackwardReferences@V?$HashLongestMatch@$0P@$07$01$0BA@$00$0A@@brotli@@$00$0A@@brotli@@YAX_K0PEBE0PEBM0_KNHPEAV?$HashLongestMatch@$0P@$07$01$0BA@$00$0A@@0@PEAH5PEAUCommand@0@5@Z 00000001800dbf68     backward_references.obj
 0002:00097f90       $chain$6$??$CreateBackwardReferences@V?$HashLongestMatch@$0P@$07$01$0BA@$00$0A@@brotli@@$00$0A@@brotli@@YAX_K0PEBE0PEBM0_KNHPEAV?$HashLongestMatch@$0P@$07$01$0BA@$00$0A@@0@PEAH5PEAUCommand@0@5@Z 00000001800dbf90     backward_references.obj
 0002:00097fbc       $chain$7$??$CreateBackwardReferences@V?$HashLongestMatch@$0P@$07$01$0BA@$00$0A@@brotli@@$00$0A@@brotli@@YAX_K0PEBE0PEBM0_KNHPEAV?$HashLongestMatch@$0P@$07$01$0BA@$00$0A@@0@PEAH5PEAUCommand@0@5@Z 00000001800dbfbc     backward_references.obj
 0002:00097fcc       $unwind$?FindLongestMatch@?$HashLongestMatch@$0P@$07$01$0BA@$00$0A@@brotli@@QEAA_NPEIBE_KPEIBM1NPEIBHIIIPEIAH44PEIAN@Z 00000001800dbfcc     backward_references.obj
 0002:00097ff4       $chain$0$?FindLongestMatch@?$HashLongestMatch@$0P@$07$01$0BA@$00$0A@@brotli@@QEAA_NPEIBE_KPEIBM1NPEIBHIIIPEIAH44PEIAN@Z 00000001800dbff4     backward_references.obj
 0002:00098008       $chain$2$?FindLongestMatch@?$HashLongestMatch@$0P@$07$01$0BA@$00$0A@@brotli@@QEAA_NPEIBE_KPEIBM1NPEIBHIIIPEIAH44PEIAN@Z 00000001800dc008     backward_references.obj
 0002:00098020       $chain$4$?FindLongestMatch@?$HashLongestMatch@$0P@$07$01$0BA@$00$0A@@brotli@@QEAA_NPEIBE_KPEIBM1NPEIBHIIIPEIAH44PEIAN@Z 00000001800dc020     backward_references.obj
 0002:00098038       $chain$5$?FindLongestMatch@?$HashLongestMatch@$0P@$07$01$0BA@$00$0A@@brotli@@QEAA_NPEIBE_KPEIBM1NPEIBHIIIPEIAH44PEIAN@Z 00000001800dc038     backward_references.obj
 0002:00098048       $chain$6$?FindLongestMatch@?$HashLongestMatch@$0P@$07$01$0BA@$00$0A@@brotli@@QEAA_NPEIBE_KPEIBM1NPEIBHIIIPEIAH44PEIAN@Z 00000001800dc048     backward_references.obj
 0002:00098060       $chain$7$?FindLongestMatch@?$HashLongestMatch@$0P@$07$01$0BA@$00$0A@@brotli@@QEAA_NPEIBE_KPEIBM1NPEIBHIIIPEIAH44PEIAN@Z 00000001800dc060     backward_references.obj
 0002:00098074       $chain$8$?FindLongestMatch@?$HashLongestMatch@$0P@$07$01$0BA@$00$0A@@brotli@@QEAA_NPEIBE_KPEIBM1NPEIBHIIIPEIAH44PEIAN@Z 00000001800dc074     backward_references.obj
 0002:0009808c       $chain$9$?FindLongestMatch@?$HashLongestMatch@$0P@$07$01$0BA@$00$0A@@brotli@@QEAA_NPEIBE_KPEIBM1NPEIBHIIIPEIAH44PEIAN@Z 00000001800dc08c     backward_references.obj
 0002:0009809c       $unwind$?FindLongestMatch@?$HashLongestMatch@$0P@$07$03$0BA@$00$00@brotli@@QEAA_NPEIBE_KPEIBM1NPEIBHIIIPEIAH44PEIAN@Z 00000001800dc09c     backward_references.obj
 0002:000980d0       $chain$0$?FindLongestMatch@?$HashLongestMatch@$0P@$07$03$0BA@$00$00@brotli@@QEAA_NPEIBE_KPEIBM1NPEIBHIIIPEIAH44PEIAN@Z 00000001800dc0d0     backward_references.obj
 0002:000980e4       $chain$1$?FindLongestMatch@?$HashLongestMatch@$0P@$07$03$0BA@$00$00@brotli@@QEAA_NPEIBE_KPEIBM1NPEIBHIIIPEIAH44PEIAN@Z 00000001800dc0e4     backward_references.obj
 0002:000980f4       $unwind$?FindLongestMatch@?$HashLongestMatch@$0P@$05$03$09$0A@$0A@@brotli@@QEAA_NPEIBE_KPEIBM1NPEIBHIIIPEIAH44PEIAN@Z 00000001800dc0f4     backward_references.obj
 0002:000980f4       $unwind$?FindLongestMatch@?$HashLongestMatch@$0O@$04$03$03$0A@$0A@@brotli@@QEAA_NPEIBE_KPEIBM1NPEIBHIIIPEIAH44PEIAN@Z 00000001800dc0f4     backward_references.obj
 0002:000980f4       $unwind$?FindLongestMatch@?$HashLongestMatch@$0O@$03$03$03$0A@$0A@@brotli@@QEAA_NPEIBE_KPEIBM1NPEIBHIIIPEIAH44PEIAN@Z 00000001800dc0f4     backward_references.obj
 0002:000980f4       $unwind$?FindLongestMatch@?$HashLongestMatch@$0P@$06$03$09$0A@$0A@@brotli@@QEAA_NPEIBE_KPEIBM1NPEIBHIIIPEIAH44PEIAN@Z 00000001800dc0f4     backward_references.obj
 0002:000980f4       $unwind$?FindLongestMatch@?$HashLongestMatch@$0P@$07$03$0BA@$0A@$0A@@brotli@@QEAA_NPEIBE_KPEIBM1NPEIBHIIIPEIAH44PEIAN@Z 00000001800dc0f4     backward_references.obj
 0002:00098118       $chain$0$?FindLongestMatch@?$HashLongestMatch@$0P@$07$03$0BA@$0A@$0A@@brotli@@QEAA_NPEIBE_KPEIBM1NPEIBHIIIPEIAH44PEIAN@Z 00000001800dc118     backward_references.obj
 0002:0009812c       $chain$1$?FindLongestMatch@?$HashLongestMatch@$0P@$07$03$0BA@$0A@$0A@@brotli@@QEAA_NPEIBE_KPEIBM1NPEIBHIIIPEIAH44PEIAN@Z 00000001800dc12c     backward_references.obj
 0002:00098140       $chain$2$?FindLongestMatch@?$HashLongestMatch@$0P@$07$03$0BA@$0A@$0A@@brotli@@QEAA_NPEIBE_KPEIBM1NPEIBHIIIPEIAH44PEIAN@Z 00000001800dc140     backward_references.obj
 0002:00098150       $chain$3$?FindLongestMatch@?$HashLongestMatch@$0P@$07$03$0BA@$0A@$0A@@brotli@@QEAA_NPEIBE_KPEIBM1NPEIBHIIIPEIAH44PEIAN@Z 00000001800dc150     backward_references.obj
 0002:00098160       $chain$0$?FindLongestMatch@?$HashLongestMatch@$0P@$06$03$09$0A@$0A@@brotli@@QEAA_NPEIBE_KPEIBM1NPEIBHIIIPEIAH44PEIAN@Z 00000001800dc160     backward_references.obj
 0002:00098174       $chain$1$?FindLongestMatch@?$HashLongestMatch@$0P@$06$03$09$0A@$0A@@brotli@@QEAA_NPEIBE_KPEIBM1NPEIBHIIIPEIAH44PEIAN@Z 00000001800dc174     backward_references.obj
 0002:00098188       $chain$2$?FindLongestMatch@?$HashLongestMatch@$0P@$06$03$09$0A@$0A@@brotli@@QEAA_NPEIBE_KPEIBM1NPEIBHIIIPEIAH44PEIAN@Z 00000001800dc188     backward_references.obj
 0002:00098198       $chain$3$?FindLongestMatch@?$HashLongestMatch@$0P@$06$03$09$0A@$0A@@brotli@@QEAA_NPEIBE_KPEIBM1NPEIBHIIIPEIAH44PEIAN@Z 00000001800dc198     backward_references.obj
 0002:000981a8       $chain$0$?FindLongestMatch@?$HashLongestMatch@$0P@$05$03$09$0A@$0A@@brotli@@QEAA_NPEIBE_KPEIBM1NPEIBHIIIPEIAH44PEIAN@Z 00000001800dc1a8     backward_references.obj
 0002:000981bc       $chain$1$?FindLongestMatch@?$HashLongestMatch@$0P@$05$03$09$0A@$0A@@brotli@@QEAA_NPEIBE_KPEIBM1NPEIBHIIIPEIAH44PEIAN@Z 00000001800dc1bc     backward_references.obj
 0002:000981d0       $chain$2$?FindLongestMatch@?$HashLongestMatch@$0P@$05$03$09$0A@$0A@@brotli@@QEAA_NPEIBE_KPEIBM1NPEIBHIIIPEIAH44PEIAN@Z 00000001800dc1d0     backward_references.obj
 0002:000981e0       $chain$3$?FindLongestMatch@?$HashLongestMatch@$0P@$05$03$09$0A@$0A@@brotli@@QEAA_NPEIBE_KPEIBM1NPEIBHIIIPEIAH44PEIAN@Z 00000001800dc1e0     backward_references.obj
 0002:000981f0       $chain$0$?FindLongestMatch@?$HashLongestMatch@$0O@$04$03$03$0A@$0A@@brotli@@QEAA_NPEIBE_KPEIBM1NPEIBHIIIPEIAH44PEIAN@Z 00000001800dc1f0     backward_references.obj
 0002:00098204       $chain$1$?FindLongestMatch@?$HashLongestMatch@$0O@$04$03$03$0A@$0A@@brotli@@QEAA_NPEIBE_KPEIBM1NPEIBHIIIPEIAH44PEIAN@Z 00000001800dc204     backward_references.obj
 0002:00098218       $chain$2$?FindLongestMatch@?$HashLongestMatch@$0O@$04$03$03$0A@$0A@@brotli@@QEAA_NPEIBE_KPEIBM1NPEIBHIIIPEIAH44PEIAN@Z 00000001800dc218     backward_references.obj
 0002:00098228       $chain$3$?FindLongestMatch@?$HashLongestMatch@$0O@$04$03$03$0A@$0A@@brotli@@QEAA_NPEIBE_KPEIBM1NPEIBHIIIPEIAH44PEIAN@Z 00000001800dc228     backward_references.obj
 0002:00098238       $chain$0$?FindLongestMatch@?$HashLongestMatch@$0O@$03$03$03$0A@$0A@@brotli@@QEAA_NPEIBE_KPEIBM1NPEIBHIIIPEIAH44PEIAN@Z 00000001800dc238     backward_references.obj
 0002:0009824c       $chain$1$?FindLongestMatch@?$HashLongestMatch@$0O@$03$03$03$0A@$0A@@brotli@@QEAA_NPEIBE_KPEIBM1NPEIBHIIIPEIAH44PEIAN@Z 00000001800dc24c     backward_references.obj
 0002:00098260       $chain$2$?FindLongestMatch@?$HashLongestMatch@$0O@$03$03$03$0A@$0A@@brotli@@QEAA_NPEIBE_KPEIBM1NPEIBHIIIPEIAH44PEIAN@Z 00000001800dc260     backward_references.obj
 0002:00098270       $chain$3$?FindLongestMatch@?$HashLongestMatch@$0O@$03$03$03$0A@$0A@@brotli@@QEAA_NPEIBE_KPEIBM1NPEIBHIIIPEIAH44PEIAN@Z 00000001800dc270     backward_references.obj
 0002:00098280       $unwind$?FindLongestMatch@?$HashLongestMatchQuickly@$0BB@$03@brotli@@QEAA_NPEIBE_KPEIBM1NPEIBHIIIPEIAH44PEIAN@Z 00000001800dc280     backward_references.obj
 0002:0009829c       $chain$3$?FindLongestMatch@?$HashLongestMatchQuickly@$0BB@$03@brotli@@QEAA_NPEIBE_KPEIBM1NPEIBHIIIPEIAH44PEIAN@Z 00000001800dc29c     backward_references.obj
 0002:000982bc       $chain$4$?FindLongestMatch@?$HashLongestMatchQuickly@$0BB@$03@brotli@@QEAA_NPEIBE_KPEIBM1NPEIBHIIIPEIAH44PEIAN@Z 00000001800dc2bc     backward_references.obj
 0002:000982cc       $unwind$?HuffmanBitCost@brotli@@YAHPEBEH@Z 00000001800dc2cc     block_splitter.obj
 0002:000982ec       $unwind$?ClusterCostDiff@brotli@@YANHH@Z 00000001800dc2ec     block_splitter.obj
 0002:00098308       $unwind$?CopyLiteralsToByteArray@brotli@@YAXPEBUCommand@1@_KPEBEPEAV?$vector@EV?$allocator@E@std@@@std@@@Z 00000001800dc308     block_splitter.obj
 0002:0009831c       $chain$1$?CopyLiteralsToByteArray@brotli@@YAXPEBUCommand@1@_KPEBEPEAV?$vector@EV?$allocator@E@std@@@std@@@Z 00000001800dc31c     block_splitter.obj
 0002:00098334       $chain$2$?CopyLiteralsToByteArray@brotli@@YAXPEBUCommand@1@_KPEBEPEAV?$vector@EV?$allocator@E@std@@@std@@@Z 00000001800dc334     block_splitter.obj
 0002:00098344       $unwind$?CopyCommandsToByteArray@brotli@@YAXPEBUCommand@1@_KPEAV?$vector@GV?$allocator@G@std@@@std@@PEAV?$vector@EV?$allocator@E@std@@@4@@Z 00000001800dc344     block_splitter.obj
 0002:00098354       $chain$3$?CopyCommandsToByteArray@brotli@@YAXPEBUCommand@1@_KPEAV?$vector@GV?$allocator@G@std@@@std@@PEAV?$vector@EV?$allocator@E@std@@@4@@Z 00000001800dc354     block_splitter.obj
 0002:00098374       $chain$4$?CopyCommandsToByteArray@brotli@@YAXPEBUCommand@1@_KPEAV?$vector@GV?$allocator@G@std@@@std@@PEAV?$vector@EV?$allocator@E@std@@@4@@Z 00000001800dc374     block_splitter.obj
 0002:00098384       $chain$5$?CopyCommandsToByteArray@brotli@@YAXPEBUCommand@1@_KPEAV?$vector@GV?$allocator@G@std@@@std@@PEAV?$vector@EV?$allocator@E@std@@@4@@Z 00000001800dc384     block_splitter.obj
 0002:000983a4       $unwind$?BitCost@brotli@@YAMHH@Z 00000001800dc3a4     block_splitter.obj
 0002:000983b4       $unwind$?RemapBlockIds@brotli@@YAHPEAE_K@Z 00000001800dc3b4     block_splitter.obj
 0002:000983c4       $chain$1$?RemapBlockIds@brotli@@YAHPEAE_K@Z 00000001800dc3c4     block_splitter.obj
 0002:000983dc       $chain$2$?RemapBlockIds@brotli@@YAHPEAE_K@Z 00000001800dc3dc     block_splitter.obj
 0002:000983f0       $chain$3$?RemapBlockIds@brotli@@YAHPEAE_K@Z 00000001800dc3f0     block_splitter.obj
 0002:00098400       $chain$4$?RemapBlockIds@brotli@@YAHPEAE_K@Z 00000001800dc400     block_splitter.obj
 0002:00098414       $unwind$?BuildBlockSplit@brotli@@YAXAEBV?$vector@EV?$allocator@E@std@@@std@@PEAUBlockSplit@1@@Z 00000001800dc414     block_splitter.obj
 0002:00098428       $chain$1$?BuildBlockSplit@brotli@@YAXAEBV?$vector@EV?$allocator@E@std@@@std@@PEAUBlockSplit@1@@Z 00000001800dc428     block_splitter.obj
 0002:00098440       $chain$2$?BuildBlockSplit@brotli@@YAXAEBV?$vector@EV?$allocator@E@std@@@std@@PEAUBlockSplit@1@@Z 00000001800dc440     block_splitter.obj
 0002:00098450       $unwind$?SplitBlock@brotli@@YAXPEBUCommand@1@_KPEBEPEAUBlockSplit@1@33@Z 00000001800dc450     block_splitter.obj
 0002:00098460       $chain$0$?_Reallocate@?$vector@GV?$allocator@G@std@@@std@@IEAAX_K@Z 00000001800dc460     block_splitter.obj
 0002:00098474       $chain$1$?_Reallocate@?$vector@GV?$allocator@G@std@@@std@@IEAAX_K@Z 00000001800dc474     block_splitter.obj
 0002:00098484       $unwind$??$SplitByteVector@U?$Histogram@$0BAA@@brotli@@E@brotli@@YAXAEBV?$vector@EV?$allocator@E@std@@@std@@HHHNPEAUBlockSplit@0@@Z 00000001800dc484     block_splitter.obj
 0002:00098484       $unwind$??$SplitByteVector@U?$Histogram@$0CAI@@brotli@@E@brotli@@YAXAEBV?$vector@EV?$allocator@E@std@@@std@@HHHNPEAUBlockSplit@0@@Z 00000001800dc484     block_splitter.obj
 0002:00098490       $chain$2$??$SplitByteVector@U?$Histogram@$0BAA@@brotli@@E@brotli@@YAXAEBV?$vector@EV?$allocator@E@std@@@std@@HHHNPEAUBlockSplit@0@@Z 00000001800dc490     block_splitter.obj
 0002:000984ac       $chain$6$??$SplitByteVector@U?$Histogram@$0BAA@@brotli@@E@brotli@@YAXAEBV?$vector@EV?$allocator@E@std@@@std@@HHHNPEAUBlockSplit@0@@Z 00000001800dc4ac     block_splitter.obj
 0002:000984cc       $chain$7$??$SplitByteVector@U?$Histogram@$0BAA@@brotli@@E@brotli@@YAXAEBV?$vector@EV?$allocator@E@std@@@std@@HHHNPEAUBlockSplit@0@@Z 00000001800dc4cc     block_splitter.obj
 0002:000984dc       $chain$9$??$SplitByteVector@U?$Histogram@$0BAA@@brotli@@E@brotli@@YAXAEBV?$vector@EV?$allocator@E@std@@@std@@HHHNPEAUBlockSplit@0@@Z 00000001800dc4dc     block_splitter.obj
 0002:000984fc       $chain$10$??$SplitByteVector@U?$Histogram@$0BAA@@brotli@@E@brotli@@YAXAEBV?$vector@EV?$allocator@E@std@@@std@@HHHNPEAUBlockSplit@0@@Z 00000001800dc4fc     block_splitter.obj
 0002:00098528       $unwind$??$SplitByteVector@U?$Histogram@$0CMA@@brotli@@G@brotli@@YAXAEBV?$vector@GV?$allocator@G@std@@@std@@HHHNPEAUBlockSplit@0@@Z 00000001800dc528     block_splitter.obj
 0002:00098534       $chain$2$??$SplitByteVector@U?$Histogram@$0CMA@@brotli@@G@brotli@@YAXAEBV?$vector@GV?$allocator@G@std@@@std@@HHHNPEAUBlockSplit@0@@Z 00000001800dc534     block_splitter.obj
 0002:00098550       $chain$3$??$SplitByteVector@U?$Histogram@$0CMA@@brotli@@G@brotli@@YAXAEBV?$vector@GV?$allocator@G@std@@@std@@HHHNPEAUBlockSplit@0@@Z 00000001800dc550     block_splitter.obj
 0002:00098564       $chain$6$??$SplitByteVector@U?$Histogram@$0CMA@@brotli@@G@brotli@@YAXAEBV?$vector@GV?$allocator@G@std@@@std@@HHHNPEAUBlockSplit@0@@Z 00000001800dc564     block_splitter.obj
 0002:00098580       $chain$7$??$SplitByteVector@U?$Histogram@$0CMA@@brotli@@G@brotli@@YAXAEBV?$vector@GV?$allocator@G@std@@@std@@HHHNPEAUBlockSplit@0@@Z 00000001800dc580     block_splitter.obj
 0002:00098590       $chain$8$??$SplitByteVector@U?$Histogram@$0CMA@@brotli@@G@brotli@@YAXAEBV?$vector@GV?$allocator@G@std@@@std@@HHHNPEAUBlockSplit@0@@Z 00000001800dc590     block_splitter.obj
 0002:000985a0       $chain$10$??$SplitByteVector@U?$Histogram@$0CMA@@brotli@@G@brotli@@YAXAEBV?$vector@GV?$allocator@G@std@@@std@@HHHNPEAUBlockSplit@0@@Z 00000001800dc5a0     block_splitter.obj
 0002:000985c0       $chain$2$??$SplitByteVector@U?$Histogram@$0CAI@@brotli@@E@brotli@@YAXAEBV?$vector@EV?$allocator@E@std@@@std@@HHHNPEAUBlockSplit@0@@Z 00000001800dc5c0     block_splitter.obj
 0002:000985dc       $chain$6$??$SplitByteVector@U?$Histogram@$0CAI@@brotli@@E@brotli@@YAXAEBV?$vector@EV?$allocator@E@std@@@std@@HHHNPEAUBlockSplit@0@@Z 00000001800dc5dc     block_splitter.obj
 0002:000985fc       $chain$7$??$SplitByteVector@U?$Histogram@$0CAI@@brotli@@E@brotli@@YAXAEBV?$vector@EV?$allocator@E@std@@@std@@HHHNPEAUBlockSplit@0@@Z 00000001800dc5fc     block_splitter.obj
 0002:0009860c       $chain$9$??$SplitByteVector@U?$Histogram@$0CAI@@brotli@@E@brotli@@YAXAEBV?$vector@EV?$allocator@E@std@@@std@@HHHNPEAUBlockSplit@0@@Z 00000001800dc60c     block_splitter.obj
 0002:0009862c       $chain$10$??$SplitByteVector@U?$Histogram@$0CAI@@brotli@@E@brotli@@YAXAEBV?$vector@EV?$allocator@E@std@@@std@@HHHNPEAUBlockSplit@0@@Z 00000001800dc62c     block_splitter.obj
 0002:00098658       $unwind$??$InitialEntropyCodes@U?$Histogram@$0BAA@@brotli@@E@brotli@@YAXPEBE_KHH1PEAV?$vector@U?$Histogram@$0BAA@@brotli@@V?$allocator@U?$Histogram@$0BAA@@brotli@@@std@@@std@@@Z 00000001800dc658     block_splitter.obj
 0002:00098674       $chain$1$??$InitialEntropyCodes@U?$Histogram@$0BAA@@brotli@@E@brotli@@YAXPEBE_KHH1PEAV?$vector@U?$Histogram@$0BAA@@brotli@@V?$allocator@U?$Histogram@$0BAA@@brotli@@@std@@@std@@@Z 00000001800dc674     block_splitter.obj
 0002:0009868c       $chain$2$??$InitialEntropyCodes@U?$Histogram@$0BAA@@brotli@@E@brotli@@YAXPEBE_KHH1PEAV?$vector@U?$Histogram@$0BAA@@brotli@@V?$allocator@U?$Histogram@$0BAA@@brotli@@@std@@@std@@@Z 00000001800dc68c     block_splitter.obj
 0002:0009869c       $unwind$??$RefineEntropyCodes@U?$Histogram@$0BAA@@brotli@@E@brotli@@YAXPEBE_K1PEAV?$vector@U?$Histogram@$0BAA@@brotli@@V?$allocator@U?$Histogram@$0BAA@@brotli@@@std@@@std@@@Z 00000001800dc69c     block_splitter.obj
 0002:000986b8       $chain$2$??$RefineEntropyCodes@U?$Histogram@$0BAA@@brotli@@E@brotli@@YAXPEBE_K1PEAV?$vector@U?$Histogram@$0BAA@@brotli@@V?$allocator@U?$Histogram@$0BAA@@brotli@@@std@@@std@@@Z 00000001800dc6b8     block_splitter.obj
 0002:000986d4       $chain$3$??$RefineEntropyCodes@U?$Histogram@$0BAA@@brotli@@E@brotli@@YAXPEBE_K1PEAV?$vector@U?$Histogram@$0BAA@@brotli@@V?$allocator@U?$Histogram@$0BAA@@brotli@@@std@@@std@@@Z 00000001800dc6d4     block_splitter.obj
 0002:000986e4       $unwind$??$FindBlocks@E$0BAA@@brotli@@YAXPEBE_KNAEBV?$vector@U?$Histogram@$0BAA@@brotli@@V?$allocator@U?$Histogram@$0BAA@@brotli@@@std@@@std@@PEAE@Z 00000001800dc6e4     block_splitter.obj
 0002:000986e4       $unwind$??$FindBlocks@E$0CAI@@brotli@@YAXPEBE_KNAEBV?$vector@U?$Histogram@$0CAI@@brotli@@V?$allocator@U?$Histogram@$0CAI@@brotli@@@std@@@std@@PEAE@Z 00000001800dc6e4     block_splitter.obj
 0002:000986f8       $chain$1$??$FindBlocks@E$0BAA@@brotli@@YAXPEBE_KNAEBV?$vector@U?$Histogram@$0BAA@@brotli@@V?$allocator@U?$Histogram@$0BAA@@brotli@@@std@@@std@@PEAE@Z 00000001800dc6f8     block_splitter.obj
 0002:00098710       $chain$4$??$FindBlocks@E$0BAA@@brotli@@YAXPEBE_KNAEBV?$vector@U?$Histogram@$0BAA@@brotli@@V?$allocator@U?$Histogram@$0BAA@@brotli@@@std@@@std@@PEAE@Z 00000001800dc710     block_splitter.obj
 0002:0009872c       $chain$6$??$FindBlocks@E$0BAA@@brotli@@YAXPEBE_KNAEBV?$vector@U?$Histogram@$0BAA@@brotli@@V?$allocator@U?$Histogram@$0BAA@@brotli@@@std@@@std@@PEAE@Z 00000001800dc72c     block_splitter.obj
 0002:00098744       $chain$7$??$FindBlocks@E$0BAA@@brotli@@YAXPEBE_KNAEBV?$vector@U?$Histogram@$0BAA@@brotli@@V?$allocator@U?$Histogram@$0BAA@@brotli@@@std@@@std@@PEAE@Z 00000001800dc744     block_splitter.obj
 0002:00098754       $chain$8$??$FindBlocks@E$0BAA@@brotli@@YAXPEBE_KNAEBV?$vector@U?$Histogram@$0BAA@@brotli@@V?$allocator@U?$Histogram@$0BAA@@brotli@@@std@@@std@@PEAE@Z 00000001800dc754     block_splitter.obj
 0002:00098768       $chain$9$??$FindBlocks@E$0BAA@@brotli@@YAXPEBE_KNAEBV?$vector@U?$Histogram@$0BAA@@brotli@@V?$allocator@U?$Histogram@$0BAA@@brotli@@@std@@@std@@PEAE@Z 00000001800dc768     block_splitter.obj
 0002:00098778       $unwind$??$ClusterBlocks@U?$Histogram@$0BAA@@brotli@@E@brotli@@YAXPEBE_KPEAE@Z 00000001800dc778     block_splitter.obj
 0002:00098794       $chain$1$??$ClusterBlocks@U?$Histogram@$0BAA@@brotli@@E@brotli@@YAXPEBE_KPEAE@Z 00000001800dc794     block_splitter.obj
 0002:000987ac       $chain$2$??$ClusterBlocks@U?$Histogram@$0BAA@@brotli@@E@brotli@@YAXPEBE_KPEAE@Z 00000001800dc7ac     block_splitter.obj
 0002:000987bc       $chain$3$??$ClusterBlocks@U?$Histogram@$0BAA@@brotli@@E@brotli@@YAXPEBE_KPEAE@Z 00000001800dc7bc     block_splitter.obj
 0002:000987d4       $unwind$??$InitialEntropyCodes@U?$Histogram@$0CMA@@brotli@@G@brotli@@YAXPEBG_KHH1PEAV?$vector@U?$Histogram@$0CMA@@brotli@@V?$allocator@U?$Histogram@$0CMA@@brotli@@@std@@@std@@@Z 00000001800dc7d4     block_splitter.obj
 0002:000987f0       $chain$1$??$InitialEntropyCodes@U?$Histogram@$0CMA@@brotli@@G@brotli@@YAXPEBG_KHH1PEAV?$vector@U?$Histogram@$0CMA@@brotli@@V?$allocator@U?$Histogram@$0CMA@@brotli@@@std@@@std@@@Z 00000001800dc7f0     block_splitter.obj
 0002:00098808       $chain$2$??$InitialEntropyCodes@U?$Histogram@$0CMA@@brotli@@G@brotli@@YAXPEBG_KHH1PEAV?$vector@U?$Histogram@$0CMA@@brotli@@V?$allocator@U?$Histogram@$0CMA@@brotli@@@std@@@std@@@Z 00000001800dc808     block_splitter.obj
 0002:00098818       $unwind$??$RefineEntropyCodes@U?$Histogram@$0CMA@@brotli@@G@brotli@@YAXPEBG_K1PEAV?$vector@U?$Histogram@$0CMA@@brotli@@V?$allocator@U?$Histogram@$0CMA@@brotli@@@std@@@std@@@Z 00000001800dc818     block_splitter.obj
 0002:00098834       $chain$2$??$RefineEntropyCodes@U?$Histogram@$0CMA@@brotli@@G@brotli@@YAXPEBG_K1PEAV?$vector@U?$Histogram@$0CMA@@brotli@@V?$allocator@U?$Histogram@$0CMA@@brotli@@@std@@@std@@@Z 00000001800dc834     block_splitter.obj
 0002:00098850       $chain$3$??$RefineEntropyCodes@U?$Histogram@$0CMA@@brotli@@G@brotli@@YAXPEBG_K1PEAV?$vector@U?$Histogram@$0CMA@@brotli@@V?$allocator@U?$Histogram@$0CMA@@brotli@@@std@@@std@@@Z 00000001800dc850     block_splitter.obj
 0002:00098860       $unwind$??$FindBlocks@G$0CMA@@brotli@@YAXPEBG_KNAEBV?$vector@U?$Histogram@$0CMA@@brotli@@V?$allocator@U?$Histogram@$0CMA@@brotli@@@std@@@std@@PEAE@Z 00000001800dc860     block_splitter.obj
 0002:00098874       $chain$1$??$FindBlocks@G$0CMA@@brotli@@YAXPEBG_KNAEBV?$vector@U?$Histogram@$0CMA@@brotli@@V?$allocator@U?$Histogram@$0CMA@@brotli@@@std@@@std@@PEAE@Z 00000001800dc874     block_splitter.obj
 0002:0009888c       $chain$3$??$FindBlocks@G$0CMA@@brotli@@YAXPEBG_KNAEBV?$vector@U?$Histogram@$0CMA@@brotli@@V?$allocator@U?$Histogram@$0CMA@@brotli@@@std@@@std@@PEAE@Z 00000001800dc88c     block_splitter.obj
 0002:000988a4       $chain$5$??$FindBlocks@G$0CMA@@brotli@@YAXPEBG_KNAEBV?$vector@U?$Histogram@$0CMA@@brotli@@V?$allocator@U?$Histogram@$0CMA@@brotli@@@std@@@std@@PEAE@Z 00000001800dc8a4     block_splitter.obj
 0002:000988bc       $chain$6$??$FindBlocks@G$0CMA@@brotli@@YAXPEBG_KNAEBV?$vector@U?$Histogram@$0CMA@@brotli@@V?$allocator@U?$Histogram@$0CMA@@brotli@@@std@@@std@@PEAE@Z 00000001800dc8bc     block_splitter.obj
 0002:000988cc       $chain$7$??$FindBlocks@G$0CMA@@brotli@@YAXPEBG_KNAEBV?$vector@U?$Histogram@$0CMA@@brotli@@V?$allocator@U?$Histogram@$0CMA@@brotli@@@std@@@std@@PEAE@Z 00000001800dc8cc     block_splitter.obj
 0002:000988dc       $chain$8$??$FindBlocks@G$0CMA@@brotli@@YAXPEBG_KNAEBV?$vector@U?$Histogram@$0CMA@@brotli@@V?$allocator@U?$Histogram@$0CMA@@brotli@@@std@@@std@@PEAE@Z 00000001800dc8dc     block_splitter.obj
 0002:000988ec       $unwind$??$ClusterBlocks@U?$Histogram@$0CMA@@brotli@@G@brotli@@YAXPEBG_KPEAE@Z 00000001800dc8ec     block_splitter.obj
 0002:00098908       $chain$2$??$ClusterBlocks@U?$Histogram@$0CMA@@brotli@@G@brotli@@YAXPEBG_KPEAE@Z 00000001800dc908     block_splitter.obj
 0002:00098924       $chain$3$??$ClusterBlocks@U?$Histogram@$0CMA@@brotli@@G@brotli@@YAXPEBG_KPEAE@Z 00000001800dc924     block_splitter.obj
 0002:00098934       $chain$4$??$ClusterBlocks@U?$Histogram@$0CMA@@brotli@@G@brotli@@YAXPEBG_KPEAE@Z 00000001800dc934     block_splitter.obj
 0002:00098950       $unwind$??$InitialEntropyCodes@U?$Histogram@$0CAI@@brotli@@E@brotli@@YAXPEBE_KHH1PEAV?$vector@U?$Histogram@$0CAI@@brotli@@V?$allocator@U?$Histogram@$0CAI@@brotli@@@std@@@std@@@Z 00000001800dc950     block_splitter.obj
 0002:0009896c       $chain$1$??$InitialEntropyCodes@U?$Histogram@$0CAI@@brotli@@E@brotli@@YAXPEBE_KHH1PEAV?$vector@U?$Histogram@$0CAI@@brotli@@V?$allocator@U?$Histogram@$0CAI@@brotli@@@std@@@std@@@Z 00000001800dc96c     block_splitter.obj
 0002:00098984       $chain$2$??$InitialEntropyCodes@U?$Histogram@$0CAI@@brotli@@E@brotli@@YAXPEBE_KHH1PEAV?$vector@U?$Histogram@$0CAI@@brotli@@V?$allocator@U?$Histogram@$0CAI@@brotli@@@std@@@std@@@Z 00000001800dc984     block_splitter.obj
 0002:00098994       $unwind$??$RefineEntropyCodes@U?$Histogram@$0CAI@@brotli@@E@brotli@@YAXPEBE_K1PEAV?$vector@U?$Histogram@$0CAI@@brotli@@V?$allocator@U?$Histogram@$0CAI@@brotli@@@std@@@std@@@Z 00000001800dc994     block_splitter.obj
 0002:000989b0       $chain$2$??$RefineEntropyCodes@U?$Histogram@$0CAI@@brotli@@E@brotli@@YAXPEBE_K1PEAV?$vector@U?$Histogram@$0CAI@@brotli@@V?$allocator@U?$Histogram@$0CAI@@brotli@@@std@@@std@@@Z 00000001800dc9b0     block_splitter.obj
 0002:000989cc       $chain$3$??$RefineEntropyCodes@U?$Histogram@$0CAI@@brotli@@E@brotli@@YAXPEBE_K1PEAV?$vector@U?$Histogram@$0CAI@@brotli@@V?$allocator@U?$Histogram@$0CAI@@brotli@@@std@@@std@@@Z 00000001800dc9cc     block_splitter.obj
 0002:000989dc       $chain$1$??$FindBlocks@E$0CAI@@brotli@@YAXPEBE_KNAEBV?$vector@U?$Histogram@$0CAI@@brotli@@V?$allocator@U?$Histogram@$0CAI@@brotli@@@std@@@std@@PEAE@Z 00000001800dc9dc     block_splitter.obj
 0002:000989f4       $chain$4$??$FindBlocks@E$0CAI@@brotli@@YAXPEBE_KNAEBV?$vector@U?$Histogram@$0CAI@@brotli@@V?$allocator@U?$Histogram@$0CAI@@brotli@@@std@@@std@@PEAE@Z 00000001800dc9f4     block_splitter.obj
 0002:00098a10       $chain$6$??$FindBlocks@E$0CAI@@brotli@@YAXPEBE_KNAEBV?$vector@U?$Histogram@$0CAI@@brotli@@V?$allocator@U?$Histogram@$0CAI@@brotli@@@std@@@std@@PEAE@Z 00000001800dca10     block_splitter.obj
 0002:00098a28       $chain$7$??$FindBlocks@E$0CAI@@brotli@@YAXPEBE_KNAEBV?$vector@U?$Histogram@$0CAI@@brotli@@V?$allocator@U?$Histogram@$0CAI@@brotli@@@std@@@std@@PEAE@Z 00000001800dca28     block_splitter.obj
 0002:00098a38       $chain$8$??$FindBlocks@E$0CAI@@brotli@@YAXPEBE_KNAEBV?$vector@U?$Histogram@$0CAI@@brotli@@V?$allocator@U?$Histogram@$0CAI@@brotli@@@std@@@std@@PEAE@Z 00000001800dca38     block_splitter.obj
 0002:00098a4c       $chain$9$??$FindBlocks@E$0CAI@@brotli@@YAXPEBE_KNAEBV?$vector@U?$Histogram@$0CAI@@brotli@@V?$allocator@U?$Histogram@$0CAI@@brotli@@@std@@@std@@PEAE@Z 00000001800dca4c     block_splitter.obj
 0002:00098a5c       $unwind$??$ClusterBlocks@U?$Histogram@$0CAI@@brotli@@E@brotli@@YAXPEBE_KPEAE@Z 00000001800dca5c     block_splitter.obj
 0002:00098a78       $chain$1$??$ClusterBlocks@U?$Histogram@$0CAI@@brotli@@E@brotli@@YAXPEBE_KPEAE@Z 00000001800dca78     block_splitter.obj
 0002:00098a90       $chain$2$??$ClusterBlocks@U?$Histogram@$0CAI@@brotli@@E@brotli@@YAXPEBE_KPEAE@Z 00000001800dca90     block_splitter.obj
 0002:00098aa0       $chain$3$??$ClusterBlocks@U?$Histogram@$0CAI@@brotli@@E@brotli@@YAXPEBE_KPEAE@Z 00000001800dcaa0     block_splitter.obj
 0002:00098ab8       $unwind$__acrt_is_packaged_app 00000001800dcab8     libucrt:winapi_thunks.obj
 0002:00098ab8       $unwind$iswctype           00000001800dcab8     libucrt:iswctype.obj
 0002:00098ab8       $unwind$?push_back@?$vector@U?$Histogram@$0CMA@@brotli@@V?$allocator@U?$Histogram@$0CMA@@brotli@@@std@@@std@@QEAAXAEBU?$Histogram@$0CMA@@brotli@@@Z 00000001800dcab8     block_splitter.obj
 0002:00098ac4       $chain$0$?push_back@?$vector@U?$Histogram@$0CMA@@brotli@@V?$allocator@U?$Histogram@$0CMA@@brotli@@@std@@@std@@QEAAXAEBU?$Histogram@$0CMA@@brotli@@@Z 00000001800dcac4     block_splitter.obj
 0002:00098ad8       $chain$1$?push_back@?$vector@U?$Histogram@$0CMA@@brotli@@V?$allocator@U?$Histogram@$0CMA@@brotli@@@std@@@std@@QEAAXAEBU?$Histogram@$0CMA@@brotli@@@Z 00000001800dcad8     block_splitter.obj
 0002:00098ae8       $unwind$?resize@?$vector@U?$Histogram@$0CMA@@brotli@@V?$allocator@U?$Histogram@$0CMA@@brotli@@@std@@@std@@QEAAX_K@Z 00000001800dcae8     block_splitter.obj
 0002:00098af4       $chain$1$?resize@?$vector@U?$Histogram@$0CMA@@brotli@@V?$allocator@U?$Histogram@$0CMA@@brotli@@@std@@@std@@QEAAX_K@Z 00000001800dcaf4     block_splitter.obj
 0002:00098b0c       $chain$2$?resize@?$vector@U?$Histogram@$0CMA@@brotli@@V?$allocator@U?$Histogram@$0CMA@@brotli@@@std@@@std@@QEAAX_K@Z 00000001800dcb0c     block_splitter.obj
 0002:00098b20       $chain$3$?resize@?$vector@U?$Histogram@$0CMA@@brotli@@V?$allocator@U?$Histogram@$0CMA@@brotli@@@std@@@std@@QEAAX_K@Z 00000001800dcb20     block_splitter.obj
 0002:00098b30       $chain$4$?resize@?$vector@U?$Histogram@$0CMA@@brotli@@V?$allocator@U?$Histogram@$0CMA@@brotli@@@std@@@std@@QEAAX_K@Z 00000001800dcb30     block_splitter.obj
 0002:00098b40       $unwind$?_Reallocate@?$vector@U?$Histogram@$0CMA@@brotli@@V?$allocator@U?$Histogram@$0CMA@@brotli@@@std@@@std@@IEAAX_K@Z 00000001800dcb40     block_splitter.obj
 0002:00098b40       $unwind$?_Reallocate@?$vector@U?$Histogram@$0BAA@@brotli@@V?$allocator@U?$Histogram@$0BAA@@brotli@@@std@@@std@@IEAAX_K@Z 00000001800dcb40     block_splitter.obj
 0002:00098b40       $unwind$?_Reallocate@?$vector@U?$Histogram@$0CAI@@brotli@@V?$allocator@U?$Histogram@$0CAI@@brotli@@@std@@@std@@IEAAX_K@Z 00000001800dcb40     block_splitter.obj
 0002:00098b50       $chain$0$?_Reallocate@?$vector@U?$Histogram@$0CAI@@brotli@@V?$allocator@U?$Histogram@$0CAI@@brotli@@@std@@@std@@IEAAX_K@Z 00000001800dcb50     block_splitter.obj
 0002:00098b64       $chain$1$?_Reallocate@?$vector@U?$Histogram@$0CAI@@brotli@@V?$allocator@U?$Histogram@$0CAI@@brotli@@@std@@@std@@IEAAX_K@Z 00000001800dcb64     block_splitter.obj
 0002:00098b74       $chain$0$?_Reallocate@?$vector@U?$Histogram@$0CMA@@brotli@@V?$allocator@U?$Histogram@$0CMA@@brotli@@@std@@@std@@IEAAX_K@Z 00000001800dcb74     block_splitter.obj
 0002:00098b88       $chain$1$?_Reallocate@?$vector@U?$Histogram@$0CMA@@brotli@@V?$allocator@U?$Histogram@$0CMA@@brotli@@@std@@@std@@IEAAX_K@Z 00000001800dcb88     block_splitter.obj
 0002:00098b98       $chain$0$?_Reallocate@?$vector@U?$Histogram@$0BAA@@brotli@@V?$allocator@U?$Histogram@$0BAA@@brotli@@@std@@@std@@IEAAX_K@Z 00000001800dcb98     block_splitter.obj
 0002:00098bac       $chain$1$?_Reallocate@?$vector@U?$Histogram@$0BAA@@brotli@@V?$allocator@U?$Histogram@$0BAA@@brotli@@@std@@@std@@IEAAX_K@Z 00000001800dcbac     block_splitter.obj
 0002:00098bbc       $unwind$??$ClusterHistograms@U?$Histogram@$0CAI@@brotli@@@brotli@@YAXAEBV?$vector@U?$Histogram@$0CAI@@brotli@@V?$allocator@U?$Histogram@$0CAI@@brotli@@@std@@@std@@HHHPEAV12@PEAV?$vector@HV?$allocator@H@std@@@2@@Z 00000001800dcbbc     block_splitter.obj
 0002:00098bbc       $unwind$??$ClusterHistograms@U?$Histogram@$0BAA@@brotli@@@brotli@@YAXAEBV?$vector@U?$Histogram@$0BAA@@brotli@@V?$allocator@U?$Histogram@$0BAA@@brotli@@@std@@@std@@HHHPEAV12@PEAV?$vector@HV?$allocator@H@std@@@2@@Z 00000001800dcbbc     block_splitter.obj
 0002:00098bd0       $chain$1$??$ClusterHistograms@U?$Histogram@$0BAA@@brotli@@@brotli@@YAXAEBV?$vector@U?$Histogram@$0BAA@@brotli@@V?$allocator@U?$Histogram@$0BAA@@brotli@@@std@@@std@@HHHPEAV12@PEAV?$vector@HV?$allocator@H@std@@@2@@Z 00000001800dcbd0     block_splitter.obj
 0002:00098be8       $chain$2$??$ClusterHistograms@U?$Histogram@$0BAA@@brotli@@@brotli@@YAXAEBV?$vector@U?$Histogram@$0BAA@@brotli@@V?$allocator@U?$Histogram@$0BAA@@brotli@@@std@@@std@@HHHPEAV12@PEAV?$vector@HV?$allocator@H@std@@@2@@Z 00000001800dcbe8     block_splitter.obj
 0002:00098bf8       $unwind$??$ClusterHistograms@U?$Histogram@$0CMA@@brotli@@@brotli@@YAXAEBV?$vector@U?$Histogram@$0CMA@@brotli@@V?$allocator@U?$Histogram@$0CMA@@brotli@@@std@@@std@@HHHPEAV12@PEAV?$vector@HV?$allocator@H@std@@@2@@Z 00000001800dcbf8     block_splitter.obj
 0002:00098c0c       $chain$1$??$ClusterHistograms@U?$Histogram@$0CMA@@brotli@@@brotli@@YAXAEBV?$vector@U?$Histogram@$0CMA@@brotli@@V?$allocator@U?$Histogram@$0CMA@@brotli@@@std@@@std@@HHHPEAV12@PEAV?$vector@HV?$allocator@H@std@@@2@@Z 00000001800dcc0c     block_splitter.obj
 0002:00098c24       $chain$2$??$ClusterHistograms@U?$Histogram@$0CMA@@brotli@@@brotli@@YAXAEBV?$vector@U?$Histogram@$0CMA@@brotli@@V?$allocator@U?$Histogram@$0CMA@@brotli@@@std@@@std@@HHHPEAV12@PEAV?$vector@HV?$allocator@H@std@@@2@@Z 00000001800dcc24     block_splitter.obj
 0002:00098c34       $chain$1$??$ClusterHistograms@U?$Histogram@$0CAI@@brotli@@@brotli@@YAXAEBV?$vector@U?$Histogram@$0CAI@@brotli@@V?$allocator@U?$Histogram@$0CAI@@brotli@@@std@@@std@@HHHPEAV12@PEAV?$vector@HV?$allocator@H@std@@@2@@Z 00000001800dcc34     block_splitter.obj
 0002:00098c4c       $chain$2$??$ClusterHistograms@U?$Histogram@$0CAI@@brotli@@@brotli@@YAXAEBV?$vector@U?$Histogram@$0CAI@@brotli@@V?$allocator@U?$Histogram@$0CAI@@brotli@@@std@@@std@@HHHPEAV12@PEAV?$vector@HV?$allocator@H@std@@@2@@Z 00000001800dcc4c     block_splitter.obj
 0002:00098c5c       $chain$0$??$_Uninitialized_default_fill_n@PEAU?$Histogram@$0CAI@@brotli@@_KV?$allocator@U?$Histogram@$0CAI@@brotli@@@std@@@std@@YAXPEAU?$Histogram@$0CAI@@brotli@@_KAEAU?$_Wrap_alloc@V?$allocator@U?$Histogram@$0CAI@@brotli@@@std@@@0@@Z 00000001800dcc5c     block_splitter.obj
 0002:00098c70       $chain$1$??$_Uninitialized_default_fill_n@PEAU?$Histogram@$0CAI@@brotli@@_KV?$allocator@U?$Histogram@$0CAI@@brotli@@@std@@@std@@YAXPEAU?$Histogram@$0CAI@@brotli@@_KAEAU?$_Wrap_alloc@V?$allocator@U?$Histogram@$0CAI@@brotli@@@std@@@0@@Z 00000001800dcc70     block_splitter.obj
 0002:00098c80       $chain$0$??$_Uninitialized_default_fill_n@PEAU?$Histogram@$0BAA@@brotli@@_KV?$allocator@U?$Histogram@$0BAA@@brotli@@@std@@@std@@YAXPEAU?$Histogram@$0BAA@@brotli@@_KAEAU?$_Wrap_alloc@V?$allocator@U?$Histogram@$0BAA@@brotli@@@std@@@0@@Z 00000001800dcc80     block_splitter.obj
 0002:00098c94       $chain$1$??$_Uninitialized_default_fill_n@PEAU?$Histogram@$0BAA@@brotli@@_KV?$allocator@U?$Histogram@$0BAA@@brotli@@@std@@@std@@YAXPEAU?$Histogram@$0BAA@@brotli@@_KAEAU?$_Wrap_alloc@V?$allocator@U?$Histogram@$0BAA@@brotli@@@std@@@0@@Z 00000001800dcc94     block_splitter.obj
 0002:00098ca4       $unwind$??$PopulationCost@$0BAA@@brotli@@YANAEBU?$Histogram@$0BAA@@0@@Z 00000001800dcca4     block_splitter.obj
 0002:00098cb8       $chain$1$??$PopulationCost@$0BAA@@brotli@@YANAEBU?$Histogram@$0BAA@@0@@Z 00000001800dccb8     block_splitter.obj
 0002:00098cd0       $chain$2$??$PopulationCost@$0BAA@@brotli@@YANAEBU?$Histogram@$0BAA@@0@@Z 00000001800dccd0     block_splitter.obj
 0002:00098ce4       $chain$3$??$PopulationCost@$0BAA@@brotli@@YANAEBU?$Histogram@$0BAA@@0@@Z 00000001800dcce4     block_splitter.obj
 0002:00098cf4       $chain$4$??$PopulationCost@$0BAA@@brotli@@YANAEBU?$Histogram@$0BAA@@0@@Z 00000001800dccf4     block_splitter.obj
 0002:00098d04       $unwind$??$HistogramCombine@U?$Histogram@$0BAA@@brotli@@@brotli@@YAXPEAU?$Histogram@$0BAA@@0@PEAH1HH@Z 00000001800dcd04     block_splitter.obj
 0002:00098d28       $chain$3$??$HistogramCombine@U?$Histogram@$0BAA@@brotli@@@brotli@@YAXPEAU?$Histogram@$0BAA@@0@PEAH1HH@Z 00000001800dcd28     block_splitter.obj
 0002:00098d3c       $chain$4$??$HistogramCombine@U?$Histogram@$0BAA@@brotli@@@brotli@@YAXPEAU?$Histogram@$0BAA@@0@PEAH1HH@Z 00000001800dcd3c     block_splitter.obj
 0002:00098d4c       $unwind$??$HistogramRemap@U?$Histogram@$0BAA@@brotli@@@brotli@@YAXPEBU?$Histogram@$0BAA@@0@HPEAU10@PEAH@Z 00000001800dcd4c     block_splitter.obj
 0002:00098d4c       $unwind$??$HistogramRemap@U?$Histogram@$0CMA@@brotli@@@brotli@@YAXPEBU?$Histogram@$0CMA@@0@HPEAU10@PEAH@Z 00000001800dcd4c     block_splitter.obj
 0002:00098d4c       $unwind$??$HistogramRemap@U?$Histogram@$0CAI@@brotli@@@brotli@@YAXPEBU?$Histogram@$0CAI@@0@HPEAU10@PEAH@Z 00000001800dcd4c     block_splitter.obj
 0002:00098d5c       $chain$1$??$HistogramRemap@U?$Histogram@$0BAA@@brotli@@@brotli@@YAXPEBU?$Histogram@$0BAA@@0@HPEAU10@PEAH@Z 00000001800dcd5c     block_splitter.obj
 0002:00098d74       $chain$3$??$HistogramRemap@U?$Histogram@$0BAA@@brotli@@@brotli@@YAXPEBU?$Histogram@$0BAA@@0@HPEAU10@PEAH@Z 00000001800dcd74     block_splitter.obj
 0002:00098d8c       $chain$4$??$HistogramRemap@U?$Histogram@$0BAA@@brotli@@@brotli@@YAXPEBU?$Histogram@$0BAA@@0@HPEAU10@PEAH@Z 00000001800dcd8c     block_splitter.obj
 0002:00098da0       $chain$5$??$HistogramRemap@U?$Histogram@$0BAA@@brotli@@@brotli@@YAXPEBU?$Histogram@$0BAA@@0@HPEAU10@PEAH@Z 00000001800dcda0     block_splitter.obj
 0002:00098db0       $chain$6$??$HistogramRemap@U?$Histogram@$0BAA@@brotli@@@brotli@@YAXPEBU?$Histogram@$0BAA@@0@HPEAU10@PEAH@Z 00000001800dcdb0     block_splitter.obj
 0002:00098dc4       $chain$7$??$HistogramRemap@U?$Histogram@$0BAA@@brotli@@@brotli@@YAXPEBU?$Histogram@$0BAA@@0@HPEAU10@PEAH@Z 00000001800dcdc4     block_splitter.obj
 0002:00098dd4       $unwind$??$HistogramReindex@U?$Histogram@$0CMA@@brotli@@@brotli@@YAXPEAV?$vector@U?$Histogram@$0CMA@@brotli@@V?$allocator@U?$Histogram@$0CMA@@brotli@@@std@@@std@@PEAV?$vector@HV?$allocator@H@std@@@2@@Z 00000001800dcdd4     block_splitter.obj
 0002:00098dd4       $unwind$??$HistogramReindex@U?$Histogram@$0BAA@@brotli@@@brotli@@YAXPEAV?$vector@U?$Histogram@$0BAA@@brotli@@V?$allocator@U?$Histogram@$0BAA@@brotli@@@std@@@std@@PEAV?$vector@HV?$allocator@H@std@@@2@@Z 00000001800dcdd4     block_splitter.obj
 0002:00098de8       $chain$0$??$HistogramReindex@U?$Histogram@$0BAA@@brotli@@@brotli@@YAXPEAV?$vector@U?$Histogram@$0BAA@@brotli@@V?$allocator@U?$Histogram@$0BAA@@brotli@@@std@@@std@@PEAV?$vector@HV?$allocator@H@std@@@2@@Z 00000001800dcde8     block_splitter.obj
 0002:00098dfc       $chain$1$??$HistogramReindex@U?$Histogram@$0BAA@@brotli@@@brotli@@YAXPEAV?$vector@U?$Histogram@$0BAA@@brotli@@V?$allocator@U?$Histogram@$0BAA@@brotli@@@std@@@std@@PEAV?$vector@HV?$allocator@H@std@@@2@@Z 00000001800dcdfc     block_splitter.obj
 0002:00098e10       $chain$2$??$HistogramReindex@U?$Histogram@$0BAA@@brotli@@@brotli@@YAXPEAV?$vector@U?$Histogram@$0BAA@@brotli@@V?$allocator@U?$Histogram@$0BAA@@brotli@@@std@@@std@@PEAV?$vector@HV?$allocator@H@std@@@2@@Z 00000001800dce10     block_splitter.obj
 0002:00098e20       $chain$3$??$HistogramReindex@U?$Histogram@$0BAA@@brotli@@@brotli@@YAXPEAV?$vector@U?$Histogram@$0BAA@@brotli@@V?$allocator@U?$Histogram@$0BAA@@brotli@@@std@@@std@@PEAV?$vector@HV?$allocator@H@std@@@2@@Z 00000001800dce20     block_splitter.obj
 0002:00098e30       $unwind$??$PopulationCost@$0CMA@@brotli@@YANAEBU?$Histogram@$0CMA@@0@@Z 00000001800dce30     block_splitter.obj
 0002:00098e44       $chain$1$??$PopulationCost@$0CMA@@brotli@@YANAEBU?$Histogram@$0CMA@@0@@Z 00000001800dce44     block_splitter.obj
 0002:00098e5c       $chain$2$??$PopulationCost@$0CMA@@brotli@@YANAEBU?$Histogram@$0CMA@@0@@Z 00000001800dce5c     block_splitter.obj
 0002:00098e70       $chain$3$??$PopulationCost@$0CMA@@brotli@@YANAEBU?$Histogram@$0CMA@@0@@Z 00000001800dce70     block_splitter.obj
 0002:00098e80       $chain$4$??$PopulationCost@$0CMA@@brotli@@YANAEBU?$Histogram@$0CMA@@0@@Z 00000001800dce80     block_splitter.obj
 0002:00098e90       $unwind$??$HistogramCombine@U?$Histogram@$0CAI@@brotli@@@brotli@@YAXPEAU?$Histogram@$0CAI@@0@PEAH1HH@Z 00000001800dce90     block_splitter.obj
 0002:00098e90       $unwind$??$HistogramCombine@U?$Histogram@$0CMA@@brotli@@@brotli@@YAXPEAU?$Histogram@$0CMA@@0@PEAH1HH@Z 00000001800dce90     block_splitter.obj
 0002:00098eb4       $chain$3$??$HistogramCombine@U?$Histogram@$0CMA@@brotli@@@brotli@@YAXPEAU?$Histogram@$0CMA@@0@PEAH1HH@Z 00000001800dceb4     block_splitter.obj
 0002:00098ec8       $chain$4$??$HistogramCombine@U?$Histogram@$0CMA@@brotli@@@brotli@@YAXPEAU?$Histogram@$0CMA@@0@PEAH1HH@Z 00000001800dcec8     block_splitter.obj
 0002:00098ed8       $chain$1$??$HistogramRemap@U?$Histogram@$0CMA@@brotli@@@brotli@@YAXPEBU?$Histogram@$0CMA@@0@HPEAU10@PEAH@Z 00000001800dced8     block_splitter.obj
 0002:00098ef0       $chain$3$??$HistogramRemap@U?$Histogram@$0CMA@@brotli@@@brotli@@YAXPEBU?$Histogram@$0CMA@@0@HPEAU10@PEAH@Z 00000001800dcef0     block_splitter.obj
 0002:00098f08       $chain$4$??$HistogramRemap@U?$Histogram@$0CMA@@brotli@@@brotli@@YAXPEBU?$Histogram@$0CMA@@0@HPEAU10@PEAH@Z 00000001800dcf08     block_splitter.obj
 0002:00098f1c       $chain$5$??$HistogramRemap@U?$Histogram@$0CMA@@brotli@@@brotli@@YAXPEBU?$Histogram@$0CMA@@0@HPEAU10@PEAH@Z 00000001800dcf1c     block_splitter.obj
 0002:00098f2c       $chain$6$??$HistogramRemap@U?$Histogram@$0CMA@@brotli@@@brotli@@YAXPEBU?$Histogram@$0CMA@@0@HPEAU10@PEAH@Z 00000001800dcf2c     block_splitter.obj
 0002:00098f40       $chain$7$??$HistogramRemap@U?$Histogram@$0CMA@@brotli@@@brotli@@YAXPEBU?$Histogram@$0CMA@@0@HPEAU10@PEAH@Z 00000001800dcf40     block_splitter.obj
 0002:00098f50       $chain$0$??$HistogramReindex@U?$Histogram@$0CMA@@brotli@@@brotli@@YAXPEAV?$vector@U?$Histogram@$0CMA@@brotli@@V?$allocator@U?$Histogram@$0CMA@@brotli@@@std@@@std@@PEAV?$vector@HV?$allocator@H@std@@@2@@Z 00000001800dcf50     block_splitter.obj
 0002:00098f64       $chain$1$??$HistogramReindex@U?$Histogram@$0CMA@@brotli@@@brotli@@YAXPEAV?$vector@U?$Histogram@$0CMA@@brotli@@V?$allocator@U?$Histogram@$0CMA@@brotli@@@std@@@std@@PEAV?$vector@HV?$allocator@H@std@@@2@@Z 00000001800dcf64     block_splitter.obj
 0002:00098f78       $chain$2$??$HistogramReindex@U?$Histogram@$0CMA@@brotli@@@brotli@@YAXPEAV?$vector@U?$Histogram@$0CMA@@brotli@@V?$allocator@U?$Histogram@$0CMA@@brotli@@@std@@@std@@PEAV?$vector@HV?$allocator@H@std@@@2@@Z 00000001800dcf78     block_splitter.obj
 0002:00098f88       $chain$3$??$HistogramReindex@U?$Histogram@$0CMA@@brotli@@@brotli@@YAXPEAV?$vector@U?$Histogram@$0CMA@@brotli@@V?$allocator@U?$Histogram@$0CMA@@brotli@@@std@@@std@@PEAV?$vector@HV?$allocator@H@std@@@2@@Z 00000001800dcf88     block_splitter.obj
 0002:00098f98       $unwind$??$PopulationCost@$0CAI@@brotli@@YANAEBU?$Histogram@$0CAI@@0@@Z 00000001800dcf98     block_splitter.obj
 0002:00098fac       $chain$1$??$PopulationCost@$0CAI@@brotli@@YANAEBU?$Histogram@$0CAI@@0@@Z 00000001800dcfac     block_splitter.obj
 0002:00098fc4       $chain$2$??$PopulationCost@$0CAI@@brotli@@YANAEBU?$Histogram@$0CAI@@0@@Z 00000001800dcfc4     block_splitter.obj
 0002:00098fd8       $chain$3$??$PopulationCost@$0CAI@@brotli@@YANAEBU?$Histogram@$0CAI@@0@@Z 00000001800dcfd8     block_splitter.obj
 0002:00098fe8       $chain$4$??$PopulationCost@$0CAI@@brotli@@YANAEBU?$Histogram@$0CAI@@0@@Z 00000001800dcfe8     block_splitter.obj
 0002:00098ff8       $chain$3$??$HistogramCombine@U?$Histogram@$0CAI@@brotli@@@brotli@@YAXPEAU?$Histogram@$0CAI@@0@PEAH1HH@Z 00000001800dcff8     block_splitter.obj
 0002:0009900c       $chain$4$??$HistogramCombine@U?$Histogram@$0CAI@@brotli@@@brotli@@YAXPEAU?$Histogram@$0CAI@@0@PEAH1HH@Z 00000001800dd00c     block_splitter.obj
 0002:0009901c       $chain$1$??$HistogramRemap@U?$Histogram@$0CAI@@brotli@@@brotli@@YAXPEBU?$Histogram@$0CAI@@0@HPEAU10@PEAH@Z 00000001800dd01c     block_splitter.obj
 0002:00099034       $chain$3$??$HistogramRemap@U?$Histogram@$0CAI@@brotli@@@brotli@@YAXPEBU?$Histogram@$0CAI@@0@HPEAU10@PEAH@Z 00000001800dd034     block_splitter.obj
 0002:0009904c       $chain$4$??$HistogramRemap@U?$Histogram@$0CAI@@brotli@@@brotli@@YAXPEBU?$Histogram@$0CAI@@0@HPEAU10@PEAH@Z 00000001800dd04c     block_splitter.obj
 0002:00099060       $chain$5$??$HistogramRemap@U?$Histogram@$0CAI@@brotli@@@brotli@@YAXPEBU?$Histogram@$0CAI@@0@HPEAU10@PEAH@Z 00000001800dd060     block_splitter.obj
 0002:00099070       $chain$6$??$HistogramRemap@U?$Histogram@$0CAI@@brotli@@@brotli@@YAXPEBU?$Histogram@$0CAI@@0@HPEAU10@PEAH@Z 00000001800dd070     block_splitter.obj
 0002:00099084       $chain$7$??$HistogramRemap@U?$Histogram@$0CAI@@brotli@@@brotli@@YAXPEBU?$Histogram@$0CAI@@0@HPEAU10@PEAH@Z 00000001800dd084     block_splitter.obj
 0002:00099094       $unwind$??$HistogramReindex@U?$Histogram@$0CAI@@brotli@@@brotli@@YAXPEAV?$vector@U?$Histogram@$0CAI@@brotli@@V?$allocator@U?$Histogram@$0CAI@@brotli@@@std@@@std@@PEAV?$vector@HV?$allocator@H@std@@@2@@Z 00000001800dd094     block_splitter.obj
 0002:000990a8       $chain$0$??$HistogramReindex@U?$Histogram@$0CAI@@brotli@@@brotli@@YAXPEAV?$vector@U?$Histogram@$0CAI@@brotli@@V?$allocator@U?$Histogram@$0CAI@@brotli@@@std@@@std@@PEAV?$vector@HV?$allocator@H@std@@@2@@Z 00000001800dd0a8     block_splitter.obj
 0002:000990bc       $chain$1$??$HistogramReindex@U?$Histogram@$0CAI@@brotli@@@brotli@@YAXPEAV?$vector@U?$Histogram@$0CAI@@brotli@@V?$allocator@U?$Histogram@$0CAI@@brotli@@@std@@@std@@PEAV?$vector@HV?$allocator@H@std@@@2@@Z 00000001800dd0bc     block_splitter.obj
 0002:000990d0       $chain$2$??$HistogramReindex@U?$Histogram@$0CAI@@brotli@@@brotli@@YAXPEAV?$vector@U?$Histogram@$0CAI@@brotli@@V?$allocator@U?$Histogram@$0CAI@@brotli@@@std@@@std@@PEAV?$vector@HV?$allocator@H@std@@@2@@Z 00000001800dd0d0     block_splitter.obj
 0002:000990e0       $chain$3$??$HistogramReindex@U?$Histogram@$0CAI@@brotli@@@brotli@@YAXPEAV?$vector@U?$Histogram@$0CAI@@brotli@@V?$allocator@U?$Histogram@$0CAI@@brotli@@@std@@@std@@PEAV?$vector@HV?$allocator@H@std@@@2@@Z 00000001800dd0e0     block_splitter.obj
 0002:000990f0       $chain$0$??$_Insert_hint@AEAU?$pair@$$CBEE@std@@PEAU?$_Tree_node@U?$pair@$$CBEE@std@@PEAX@2@@?$_Tree@V?$_Tmap_traits@EEU?$less@E@std@@V?$allocator@U?$pair@$$CBEE@std@@@2@$0A@@std@@@std@@IEAA?AV?$_Tree_iterator@V?$_Tree_val@U?$_Tree_simple_types@U?$pair@$$CBEE@std@@@std@@@std@@@1@V?$_Tree_const_iterator@V?$_Tree_val@U?$_Tree_simple_types@U?$pair@$$CBEE@std@@@std@@@std@@@1@AEAU?$pair@$$CBEE@1@PEAU?$_Tree_node@U?$pair@$$CBEE@std@@PEAX@1@@Z 00000001800dd0f0     block_splitter.obj
 0002:00099104       $chain$2$??$_Insert_hint@AEAU?$pair@$$CBEE@std@@PEAU?$_Tree_node@U?$pair@$$CBEE@std@@PEAX@2@@?$_Tree@V?$_Tmap_traits@EEU?$less@E@std@@V?$allocator@U?$pair@$$CBEE@std@@@2@$0A@@std@@@std@@IEAA?AV?$_Tree_iterator@V?$_Tree_val@U?$_Tree_simple_types@U?$pair@$$CBEE@std@@@std@@@std@@@1@V?$_Tree_const_iterator@V?$_Tree_val@U?$_Tree_simple_types@U?$pair@$$CBEE@std@@@std@@@std@@@1@AEAU?$pair@$$CBEE@1@PEAU?$_Tree_node@U?$pair@$$CBEE@std@@PEAX@1@@Z 00000001800dd104     block_splitter.obj
 0002:00099104       $chain$6$??$_Insert_hint@AEAU?$pair@$$CBEE@std@@PEAU?$_Tree_node@U?$pair@$$CBEE@std@@PEAX@2@@?$_Tree@V?$_Tmap_traits@EEU?$less@E@std@@V?$allocator@U?$pair@$$CBEE@std@@@2@$0A@@std@@@std@@IEAA?AV?$_Tree_iterator@V?$_Tree_val@U?$_Tree_simple_types@U?$pair@$$CBEE@std@@@std@@@std@@@1@V?$_Tree_const_iterator@V?$_Tree_val@U?$_Tree_simple_types@U?$pair@$$CBEE@std@@@std@@@std@@@1@AEAU?$pair@$$CBEE@1@PEAU?$_Tree_node@U?$pair@$$CBEE@std@@PEAX@1@@Z 00000001800dd104     block_splitter.obj
 0002:00099104       $chain$4$??$_Insert_hint@AEAU?$pair@$$CBEE@std@@PEAU?$_Tree_node@U?$pair@$$CBEE@std@@PEAX@2@@?$_Tree@V?$_Tmap_traits@EEU?$less@E@std@@V?$allocator@U?$pair@$$CBEE@std@@@2@$0A@@std@@@std@@IEAA?AV?$_Tree_iterator@V?$_Tree_val@U?$_Tree_simple_types@U?$pair@$$CBEE@std@@@std@@@std@@@1@V?$_Tree_const_iterator@V?$_Tree_val@U?$_Tree_simple_types@U?$pair@$$CBEE@std@@@std@@@std@@@1@AEAU?$pair@$$CBEE@1@PEAU?$_Tree_node@U?$pair@$$CBEE@std@@PEAX@1@@Z 00000001800dd104     block_splitter.obj
 0002:00099104       $chain$8$??$_Insert_hint@AEAU?$pair@$$CBEE@std@@PEAU?$_Tree_node@U?$pair@$$CBEE@std@@PEAX@2@@?$_Tree@V?$_Tmap_traits@EEU?$less@E@std@@V?$allocator@U?$pair@$$CBEE@std@@@2@$0A@@std@@@std@@IEAA?AV?$_Tree_iterator@V?$_Tree_val@U?$_Tree_simple_types@U?$pair@$$CBEE@std@@@std@@@std@@@1@V?$_Tree_const_iterator@V?$_Tree_val@U?$_Tree_simple_types@U?$pair@$$CBEE@std@@@std@@@std@@@1@AEAU?$pair@$$CBEE@1@PEAU?$_Tree_node@U?$pair@$$CBEE@std@@PEAX@1@@Z 00000001800dd104     block_splitter.obj
 0002:00099118       $unwind$??$CompareAndPushToHeap@U?$Histogram@$0BAA@@brotli@@@brotli@@YAXPEBU?$Histogram@$0BAA@@0@PEBHHHPEAV?$vector@UHistogramPair@brotli@@V?$allocator@UHistogramPair@brotli@@@std@@@std@@@Z 00000001800dd118     block_splitter.obj
 0002:00099130       $chain$1$??$CompareAndPushToHeap@U?$Histogram@$0BAA@@brotli@@@brotli@@YAXPEBU?$Histogram@$0BAA@@0@PEBHHHPEAV?$vector@UHistogramPair@brotli@@V?$allocator@UHistogramPair@brotli@@@std@@@std@@@Z 00000001800dd130     block_splitter.obj
 0002:00099148       $chain$2$??$CompareAndPushToHeap@U?$Histogram@$0BAA@@brotli@@@brotli@@YAXPEBU?$Histogram@$0BAA@@0@PEBHHHPEAV?$vector@UHistogramPair@brotli@@V?$allocator@UHistogramPair@brotli@@@std@@@std@@@Z 00000001800dd148     block_splitter.obj
 0002:00099158       $chain$3$??$CompareAndPushToHeap@U?$Histogram@$0BAA@@brotli@@@brotli@@YAXPEBU?$Histogram@$0BAA@@0@PEBHHHPEAV?$vector@UHistogramPair@brotli@@V?$allocator@UHistogramPair@brotli@@@std@@@std@@@Z 00000001800dd158     block_splitter.obj
 0002:0009916c       $chain$4$??$CompareAndPushToHeap@U?$Histogram@$0BAA@@brotli@@@brotli@@YAXPEBU?$Histogram@$0BAA@@0@PEBHHHPEAV?$vector@UHistogramPair@brotli@@V?$allocator@UHistogramPair@brotli@@@std@@@std@@@Z 00000001800dd16c     block_splitter.obj
 0002:0009917c       $chain$0$??$pop_heap@V?$_Vector_iterator@V?$_Vector_val@U?$_Simple_types@UHistogramPair@brotli@@@std@@@std@@@std@@UHistogramPairComparator@brotli@@@std@@YAXV?$_Vector_iterator@V?$_Vector_val@U?$_Simple_types@UHistogramPair@brotli@@@std@@@std@@@0@0UHistogramPairComparator@brotli@@@Z 00000001800dd17c     block_splitter.obj
 0002:00099190       $chain$2$??$pop_heap@V?$_Vector_iterator@V?$_Vector_val@U?$_Simple_types@UHistogramPair@brotli@@@std@@@std@@@std@@UHistogramPairComparator@brotli@@@std@@YAXV?$_Vector_iterator@V?$_Vector_val@U?$_Simple_types@UHistogramPair@brotli@@@std@@@std@@@0@0UHistogramPairComparator@brotli@@@Z 00000001800dd190     block_splitter.obj
 0002:000991a8       $chain$3$??$pop_heap@V?$_Vector_iterator@V?$_Vector_val@U?$_Simple_types@UHistogramPair@brotli@@@std@@@std@@@std@@UHistogramPairComparator@brotli@@@std@@YAXV?$_Vector_iterator@V?$_Vector_val@U?$_Simple_types@UHistogramPair@brotli@@@std@@@std@@@0@0UHistogramPairComparator@brotli@@@Z 00000001800dd1a8     block_splitter.obj
 0002:000991bc       $chain$4$??$pop_heap@V?$_Vector_iterator@V?$_Vector_val@U?$_Simple_types@UHistogramPair@brotli@@@std@@@std@@@std@@UHistogramPairComparator@brotli@@@std@@YAXV?$_Vector_iterator@V?$_Vector_val@U?$_Simple_types@UHistogramPair@brotli@@@std@@@std@@@0@0UHistogramPairComparator@brotli@@@Z 00000001800dd1bc     block_splitter.obj
 0002:000991cc       $unwind$??$HistogramBitCostDistance@U?$Histogram@$0BAA@@brotli@@@brotli@@YANAEBU?$Histogram@$0BAA@@0@0@Z 00000001800dd1cc     block_splitter.obj
 0002:000991e0       $unwind$??$CompareAndPushToHeap@U?$Histogram@$0CMA@@brotli@@@brotli@@YAXPEBU?$Histogram@$0CMA@@0@PEBHHHPEAV?$vector@UHistogramPair@brotli@@V?$allocator@UHistogramPair@brotli@@@std@@@std@@@Z 00000001800dd1e0     block_splitter.obj
 0002:000991f8       $chain$1$??$CompareAndPushToHeap@U?$Histogram@$0CMA@@brotli@@@brotli@@YAXPEBU?$Histogram@$0CMA@@0@PEBHHHPEAV?$vector@UHistogramPair@brotli@@V?$allocator@UHistogramPair@brotli@@@std@@@std@@@Z 00000001800dd1f8     block_splitter.obj
 0002:00099210       $chain$2$??$CompareAndPushToHeap@U?$Histogram@$0CMA@@brotli@@@brotli@@YAXPEBU?$Histogram@$0CMA@@0@PEBHHHPEAV?$vector@UHistogramPair@brotli@@V?$allocator@UHistogramPair@brotli@@@std@@@std@@@Z 00000001800dd210     block_splitter.obj
 0002:00099220       $chain$3$??$CompareAndPushToHeap@U?$Histogram@$0CMA@@brotli@@@brotli@@YAXPEBU?$Histogram@$0CMA@@0@PEBHHHPEAV?$vector@UHistogramPair@brotli@@V?$allocator@UHistogramPair@brotli@@@std@@@std@@@Z 00000001800dd220     block_splitter.obj
 0002:00099234       $chain$4$??$CompareAndPushToHeap@U?$Histogram@$0CMA@@brotli@@@brotli@@YAXPEBU?$Histogram@$0CMA@@0@PEBHHHPEAV?$vector@UHistogramPair@brotli@@V?$allocator@UHistogramPair@brotli@@@std@@@std@@@Z 00000001800dd234     block_splitter.obj
 0002:00099244       $unwind$??$HistogramBitCostDistance@U?$Histogram@$0CMA@@brotli@@@brotli@@YANAEBU?$Histogram@$0CMA@@0@0@Z 00000001800dd244     block_splitter.obj
 0002:00099258       $unwind$??$CompareAndPushToHeap@U?$Histogram@$0CAI@@brotli@@@brotli@@YAXPEBU?$Histogram@$0CAI@@0@PEBHHHPEAV?$vector@UHistogramPair@brotli@@V?$allocator@UHistogramPair@brotli@@@std@@@std@@@Z 00000001800dd258     block_splitter.obj
 0002:00099270       $chain$1$??$CompareAndPushToHeap@U?$Histogram@$0CAI@@brotli@@@brotli@@YAXPEBU?$Histogram@$0CAI@@0@PEBHHHPEAV?$vector@UHistogramPair@brotli@@V?$allocator@UHistogramPair@brotli@@@std@@@std@@@Z 00000001800dd270     block_splitter.obj
 0002:00099288       $chain$2$??$CompareAndPushToHeap@U?$Histogram@$0CAI@@brotli@@@brotli@@YAXPEBU?$Histogram@$0CAI@@0@PEBHHHPEAV?$vector@UHistogramPair@brotli@@V?$allocator@UHistogramPair@brotli@@@std@@@std@@@Z 00000001800dd288     block_splitter.obj
 0002:00099298       $chain$3$??$CompareAndPushToHeap@U?$Histogram@$0CAI@@brotli@@@brotli@@YAXPEBU?$Histogram@$0CAI@@0@PEBHHHPEAV?$vector@UHistogramPair@brotli@@V?$allocator@UHistogramPair@brotli@@@std@@@std@@@Z 00000001800dd298     block_splitter.obj
 0002:000992ac       $chain$4$??$CompareAndPushToHeap@U?$Histogram@$0CAI@@brotli@@@brotli@@YAXPEBU?$Histogram@$0CAI@@0@PEBHHHPEAV?$vector@UHistogramPair@brotli@@V?$allocator@UHistogramPair@brotli@@@std@@@std@@@Z 00000001800dd2ac     block_splitter.obj
 0002:000992bc       $unwind$??$HistogramBitCostDistance@U?$Histogram@$0CAI@@brotli@@@brotli@@YANAEBU?$Histogram@$0CAI@@0@0@Z 00000001800dd2bc     block_splitter.obj
 0002:000992d0       $unwind$?_Reallocate@?$vector@UHistogramPair@brotli@@V?$allocator@UHistogramPair@brotli@@@std@@@std@@IEAAX_K@Z 00000001800dd2d0     block_splitter.obj
 0002:000992e0       $chain$0$?_Reallocate@?$vector@UHistogramPair@brotli@@V?$allocator@UHistogramPair@brotli@@@std@@@std@@IEAAX_K@Z 00000001800dd2e0     block_splitter.obj
 0002:000992f4       $chain$1$?_Reallocate@?$vector@UHistogramPair@brotli@@V?$allocator@UHistogramPair@brotli@@@std@@@std@@IEAAX_K@Z 00000001800dd2f4     block_splitter.obj
 0002:00099304       $chain$1$??$_Push_heap_unchecked@PEAUHistogramPair@brotli@@UHistogramPairComparator@2@@std@@YAXPEAUHistogramPair@brotli@@0AEAUHistogramPairComparator@2@@Z 00000001800dd304     block_splitter.obj
 0002:0009931c       $chain$2$??$_Push_heap_unchecked@PEAUHistogramPair@brotli@@UHistogramPairComparator@2@@std@@YAXPEAUHistogramPair@brotli@@0AEAUHistogramPairComparator@2@@Z 00000001800dd31c     block_splitter.obj
 0002:0009932c       $chain$0$??$_Insert_hint@AEAU?$pair@$$CBHH@std@@PEAU?$_Tree_node@U?$pair@$$CBHH@std@@PEAX@2@@?$_Tree@V?$_Tmap_traits@HHU?$less@H@std@@V?$allocator@U?$pair@$$CBHH@std@@@2@$0A@@std@@@std@@IEAA?AV?$_Tree_iterator@V?$_Tree_val@U?$_Tree_simple_types@U?$pair@$$CBHH@std@@@std@@@std@@@1@V?$_Tree_const_iterator@V?$_Tree_val@U?$_Tree_simple_types@U?$pair@$$CBHH@std@@@std@@@std@@@1@AEAU?$pair@$$CBHH@1@PEAU?$_Tree_node@U?$pair@$$CBHH@std@@PEAX@1@@Z 00000001800dd32c     block_splitter.obj
 0002:00099340       $chain$2$??$_Insert_hint@AEAU?$pair@$$CBHH@std@@PEAU?$_Tree_node@U?$pair@$$CBHH@std@@PEAX@2@@?$_Tree@V?$_Tmap_traits@HHU?$less@H@std@@V?$allocator@U?$pair@$$CBHH@std@@@2@$0A@@std@@@std@@IEAA?AV?$_Tree_iterator@V?$_Tree_val@U?$_Tree_simple_types@U?$pair@$$CBHH@std@@@std@@@std@@@1@V?$_Tree_const_iterator@V?$_Tree_val@U?$_Tree_simple_types@U?$pair@$$CBHH@std@@@std@@@std@@@1@AEAU?$pair@$$CBHH@1@PEAU?$_Tree_node@U?$pair@$$CBHH@std@@PEAX@1@@Z 00000001800dd340     block_splitter.obj
 0002:00099340       $chain$4$??$_Insert_hint@AEAU?$pair@$$CBHH@std@@PEAU?$_Tree_node@U?$pair@$$CBHH@std@@PEAX@2@@?$_Tree@V?$_Tmap_traits@HHU?$less@H@std@@V?$allocator@U?$pair@$$CBHH@std@@@2@$0A@@std@@@std@@IEAA?AV?$_Tree_iterator@V?$_Tree_val@U?$_Tree_simple_types@U?$pair@$$CBHH@std@@@std@@@std@@@1@V?$_Tree_const_iterator@V?$_Tree_val@U?$_Tree_simple_types@U?$pair@$$CBHH@std@@@std@@@std@@@1@AEAU?$pair@$$CBHH@1@PEAU?$_Tree_node@U?$pair@$$CBHH@std@@PEAX@1@@Z 00000001800dd340     block_splitter.obj
 0002:00099340       $chain$6$??$_Insert_hint@AEAU?$pair@$$CBHH@std@@PEAU?$_Tree_node@U?$pair@$$CBHH@std@@PEAX@2@@?$_Tree@V?$_Tmap_traits@HHU?$less@H@std@@V?$allocator@U?$pair@$$CBHH@std@@@2@$0A@@std@@@std@@IEAA?AV?$_Tree_iterator@V?$_Tree_val@U?$_Tree_simple_types@U?$pair@$$CBHH@std@@@std@@@std@@@1@V?$_Tree_const_iterator@V?$_Tree_val@U?$_Tree_simple_types@U?$pair@$$CBHH@std@@@std@@@std@@@1@AEAU?$pair@$$CBHH@1@PEAU?$_Tree_node@U?$pair@$$CBHH@std@@PEAX@1@@Z 00000001800dd340     block_splitter.obj
 0002:00099340       $chain$8$??$_Insert_hint@AEAU?$pair@$$CBHH@std@@PEAU?$_Tree_node@U?$pair@$$CBHH@std@@PEAX@2@@?$_Tree@V?$_Tmap_traits@HHU?$less@H@std@@V?$allocator@U?$pair@$$CBHH@std@@@2@$0A@@std@@@std@@IEAA?AV?$_Tree_iterator@V?$_Tree_val@U?$_Tree_simple_types@U?$pair@$$CBHH@std@@@std@@@std@@@1@V?$_Tree_const_iterator@V?$_Tree_val@U?$_Tree_simple_types@U?$pair@$$CBHH@std@@@std@@@std@@@1@AEAU?$pair@$$CBHH@1@PEAU?$_Tree_node@U?$pair@$$CBHH@std@@PEAX@1@@Z 00000001800dd340     block_splitter.obj
 0002:00099354       $unwind$?HuffmanBitCost@brotli@@YAHPEBEH@Z 00000001800dd354     brotli_bit_stream.obj
 0002:00099374       $unwind$?expand_if_necessary@?$argument_list@D@?A0xca0879c4@@AEAAHXZ 00000001800dd374     libucrt:argv_wildcards.obj
 0002:00099374       $unwind$?_ExecutionInCatch@@YAHPEAU_xDISPATCHER_CONTEXT@@PEBU_s_FuncInfo@@@Z 00000001800dd374     libvcruntime:trnsctrl.obj
 0002:00099374       $unwind$_recalloc_base     00000001800dd374     libucrt:recalloc.obj
 0002:00099374       $unwind$?SetDepth@?A0x1969e686@brotli@@YAXAEBUHuffmanTree@12@PEAU312@PEAEH@Z 00000001800dd374     entropy_encode.obj
 0002:00099374       $unwind$__acrt_lowio_create_handle_array 00000001800dd374     libucrt:osfinfo.obj
 0002:00099374       $unwind$?_Reallocate@?$vector@V?$_List_unchecked_iterator@V?$_List_val@U?$_List_simple_types@U?$pair@$$CBV?$basic_string@DU?$char_traits@D@std@@V?$allocator@D@2@@std@@H@std@@@std@@@std@@@std@@U?$_Wrap_alloc@V?$allocator@V?$_List_unchecked_iterator@V?$_List_val@U?$_List_simple_types@U?$pair@$$CBV?$basic_string@DU?$char_traits@D@std@@V?$allocator@D@2@@std@@H@std@@@std@@@std@@@std@@@std@@@2@@std@@IEAAX_K@Z 00000001800dd374     encode.obj
 0002:00099374       $unwind$?_Reallocate@?$vector@UHuffmanTree@?A0x1969e686@brotli@@V?$allocator@UHuffmanTree@?A0x1969e686@brotli@@@std@@@std@@IEAAX_K@Z 00000001800dd374     entropy_encode.obj
 0002:00099374       $unwind$__acrt_execute_initializers 00000001800dd374     libucrt:shared_initialization.obj
 0002:00099374       $unwind$?setSBCS@@YAXPEAU__crt_multibyte_data@@@Z 00000001800dd374     libucrt:mbctype.obj
 0002:00099374       $unwind$__vcrt_InitializeCriticalSectionEx 00000001800dd374     libvcruntime:winapi_downlevel.obj
 0002:00099374       $unwind$?dllmain_raw@@YAHQEAUHINSTANCE__@@KQEAX@Z 00000001800dd374     LIBCMT:dll_dllmain.obj
 0002:00099374       $unwind$__scrt_dllmain_exception_filter 00000001800dd374     LIBCMT:utility.obj
 0002:00099374       $unwind$?_Reallocate@?$vector@V?$_List_unchecked_iterator@V?$_List_val@U?$_List_simple_types@U?$pair@$$CBIH@std@@@std@@@std@@@std@@U?$_Wrap_alloc@V?$allocator@V?$_List_unchecked_iterator@V?$_List_val@U?$_List_simple_types@U?$pair@$$CBIH@std@@@std@@@std@@@std@@@std@@@2@@std@@IEAAX_K@Z 00000001800dd374     encode.obj
 0002:00099374       $unwind$_wassert           00000001800dd374     libucrt:assert.obj
 0002:00099374       $unwind$__acrt_free_locale 00000001800dd374     libucrt:locale_refcounting.obj
 0002:00099374       $unwind$__acrt_InitializeCriticalSectionEx 00000001800dd374     libucrt:winapi_thunks.obj
 0002:00099374       $unwind$?WriteBits@brotli@@YAXH_KPEIAHPEIAE@Z 00000001800dd374     brotli_bit_stream.obj
 0002:00099374       $unwind$_seh_filter_exe    00000001800dd374     libucrt:exception_filter.obj
 0002:00099374       $unwind$??$ensure_buffer_is_big_enough@D@formatting_buffer@__crt_stdio_output@@QEAA_N_K@Z 00000001800dd374     libucrt:output.obj
 0002:00099388       $unwind$?StoreVarLenUint8@brotli@@YAXHPEAHPEAE@Z 00000001800dd388     brotli_bit_stream.obj
 0002:0009939c       $unwind$?Write@RingBuffer@brotli@@QEAAXPEBE_K@Z 00000001800dd39c     encode.obj
 0002:0009939c       $unwind$??0BrotliCompressor@brotli@@QEAA@UBrotliParams@1@@Z 00000001800dd39c     encode.obj
 0002:0009939c       $unwind$?StoreCompressedMetaBlockHeader@brotli@@YA_N_N_KPEAHPEAE@Z 00000001800dd39c     brotli_bit_stream.obj
 0002:000993b4       $unwind$?StoreUncompressedMetaBlockHeader@brotli@@YA_N_KPEAHPEAE@Z 00000001800dd3b4     brotli_bit_stream.obj
 0002:000993c8       $unwind$?StoreHuffmanTreeOfHuffmanTreeToBitMask@brotli@@YAXHPEBEPEAHPEAE@Z 00000001800dd3c8     brotli_bit_stream.obj
 0002:000993dc       $chain$1$?StoreHuffmanTreeOfHuffmanTreeToBitMask@brotli@@YAXHPEBEPEAHPEAE@Z 00000001800dd3dc     brotli_bit_stream.obj
 0002:000993f4       $chain$2$?StoreHuffmanTreeOfHuffmanTreeToBitMask@brotli@@YAXHPEBEPEAHPEAE@Z 00000001800dd3f4     brotli_bit_stream.obj
 0002:00099404       $unwind$?StoreHuffmanTreeToBitMask@brotli@@YAXAEBV?$vector@EV?$allocator@E@std@@@std@@0PEBEAEBV?$vector@GV?$allocator@G@std@@@3@PEIAHPEIAE@Z 00000001800dd404     brotli_bit_stream.obj
 0002:00099410       $chain$4$?StoreHuffmanTreeToBitMask@brotli@@YAXAEBV?$vector@EV?$allocator@E@std@@@std@@0PEBEAEBV?$vector@GV?$allocator@G@std@@@3@PEIAHPEIAE@Z 00000001800dd410     brotli_bit_stream.obj
 0002:00099434       $chain$5$?StoreHuffmanTreeToBitMask@brotli@@YAXAEBV?$vector@EV?$allocator@E@std@@@std@@0PEBEAEBV?$vector@GV?$allocator@G@std@@@3@PEIAHPEIAE@Z 00000001800dd434     brotli_bit_stream.obj
 0002:00099444       $unwind$?StoreSimpleHuffmanTree@brotli@@YAXPEBEQEAHHHPEAHPEAE@Z 00000001800dd444     brotli_bit_stream.obj
 0002:00099460       $unwind$?StoreHuffmanTree@brotli@@YAXPEBE_KPEAHPEAE@Z 00000001800dd460     brotli_bit_stream.obj
 0002:00099480       $unwind$?BuildAndStoreHuffmanTree@brotli@@YAXPEBHHPEAEPEAGPEAH1@Z 00000001800dd480     brotli_bit_stream.obj
 0002:000994a0       $unwind$?MoveToFrontTransform@brotli@@YA?AV?$vector@HV?$allocator@H@std@@@std@@AEBV23@@Z 00000001800dd4a0     brotli_bit_stream.obj
 0002:000994ac       $chain$5$?MoveToFrontTransform@brotli@@YA?AV?$vector@HV?$allocator@H@std@@@std@@AEBV23@@Z 00000001800dd4ac     brotli_bit_stream.obj
 0002:000994d4       $chain$7$?MoveToFrontTransform@brotli@@YA?AV?$vector@HV?$allocator@H@std@@@std@@AEBV23@@Z 00000001800dd4d4     brotli_bit_stream.obj
 0002:000994f4       $chain$8$?MoveToFrontTransform@brotli@@YA?AV?$vector@HV?$allocator@H@std@@@std@@AEBV23@@Z 00000001800dd4f4     brotli_bit_stream.obj
 0002:0009951c       $unwind$?RunLengthCodeZeros@brotli@@YAXAEBV?$vector@HV?$allocator@H@std@@@std@@PEAHPEAV23@2@Z 00000001800dd51c     brotli_bit_stream.obj
 0002:00099530       $chain$1$?RunLengthCodeZeros@brotli@@YAXAEBV?$vector@HV?$allocator@H@std@@@std@@PEAHPEAV23@2@Z 00000001800dd530     brotli_bit_stream.obj
 0002:00099548       $chain$2$?RunLengthCodeZeros@brotli@@YAXAEBV?$vector@HV?$allocator@H@std@@@std@@PEAHPEAV23@2@Z 00000001800dd548     brotli_bit_stream.obj
 0002:00099558       $chain$3$?RunLengthCodeZeros@brotli@@YAXAEBV?$vector@HV?$allocator@H@std@@@std@@PEAHPEAV23@2@Z 00000001800dd558     brotli_bit_stream.obj
 0002:00099570       $unwind$?BestMaxZeroRunLengthPrefix@brotli@@YAHAEBV?$vector@HV?$allocator@H@std@@@std@@@Z 00000001800dd570     brotli_bit_stream.obj
